******************************************************************************
               TMS320C6x Linker Unix v8.3.3                    
******************************************************************************
>> Linked Fri Oct  2 09:59:58 2020

OUTPUT FILE NAME:   <test/xwr18xx/xwr18xx_link_dss.xe674>
ENTRY POINT SYMBOL: "_c_int00"  address: 007fdc00


MEMORY CONFIGURATION

         name            origin    length      used     unused   attr    fill
----------------------  --------  ---------  --------  --------  ----  --------
PAGE 0:
  L2SRAM_UMAP1          007e0000   00020000  00020000  00000000  RWIX
  L2SRAM_UMAP0          00800000   00020000  0001c133  00003ecd  RWIX
  L1PSRAM               00e00000   00004000  00000000  00004000  RWIX
  L1DSRAM               00f00000   00004000  00000000  00004000  RWIX
  L3SRAM                20000000   00100000  00000000  00100000  RWIX
  HWA_RAM               21030000   00010000  00000000  00010000  RWIX
  HSRAM                 21080000   00008000  00000000  00008000  RWIX

PAGE 1:
  L3SRAM                20000000   00100000  00000000  00100000  RWIX


SEGMENT ALLOCATION MAP

run origin  load origin   length   init length attrs members
----------  ----------- ---------- ----------- ----- -------
007e0000    007e0000    00020000   00020000    r-x
  007e0000    007e0000    00000200   00000200    r-x .vecs
  007e0200    007e0200    0001fe00   0001fe00    r-x .text.1
00800000    00800000    0000a400   00000000    rw-
  00800000    00800000    00008000   00000000    rw- systemHeap
  00808000    00808000    00002400   00000000    rw- .MCPILogBuffer
0080a400    0080a400    0000e0fe   0000e0fe    r-x
  0080a400    0080a400    000056a0   000056a0    r-x .text.2
  0080faa0    0080faa0    00008a5e   00008a5e    r-- .const
00818500    00818500    00003910   00001a94    rw-
  00818500    00818500    00001a94   00001a94    rw- .fardata
  00819f98    00819f98    00001000   00000000    rw- .stack
  0081af98    0081af98    00000e78   00000000    rw- .far
0081be10    0081be10    00000180   00000180    r--
  0081be10    0081be10    00000180   00000180    r-- .switch
0081bf90    0081bf90    00000120   00000000    rw-
  0081bf90    0081bf90    00000120   00000000    rw- .cio
0081c0b0    0081c0b0    00000089   00000070    rw-
  0081c0b0    0081c0b0    00000070   00000070    rw- .neardata
  0081c120    0081c120    00000019   00000000    rw- .bss


SECTION ALLOCATION MAP

 output                                  attributes/
section   page    origin      length       input sections
--------  ----  ----------  ----------   ----------------
xdc.meta   0    00000000    00000110     COPY SECTION
                  00000000    00000110     dss_pe674.oe674 (xdc.meta)

.vecs      0    007e0000    00000200     
                  007e0000    00000200     dss_pe674.oe674 (.vecs)

systemHeap 
*          0    00800000    00008000     UNINITIALIZED
                  00800000    00008000     dss_pe674.oe674 (systemHeap)

.MCPILogBuffer 
*          0    00808000    00002400     UNINITIALIZED
                  00808000    00002400     main_dss.oe674 (.MCPILogBuffer)

.stack     0    00819f98    00001000     UNINITIALIZED
                  00819f98    00000008     boot.ae674 : boot.oe674 (.stack)
                  00819fa0    00000ff8     --HOLE--

.neardata 
*          0    0081c0b0    00000070     
                  0081c0b0    00000024     mmwavelink_test_common.oe674 (.neardata)
                  0081c0d4    00000020     link_test.oe674 (.neardata)
                  0081c0f4    0000000d     main_dss.oe674 (.neardata)
                  0081c101    00000002     link_testcase_config.oe674 (.neardata)
                  0081c103    00000001     --HOLE-- [fill = 0]
                  0081c104    0000000c     libtestlogger_xwr18xx.ae674 : logger.oe674 (.neardata)
                  0081c110    00000004     libadcbuf_xwr18xx.ae674 : ADCBuf.oe674 (.neardata)
                  0081c114    00000004     libcrc_xwr18xx.ae674 : crc_xwr18xx.oe674 (.neardata)
                  0081c118    00000004     libedma_xwr18xx.ae674 : edma_low_level.oe674 (.neardata)
                  0081c11c    00000004     link_test_monitoring.oe674 (.neardata)

.bss       0    0081c120    00000019     UNINITIALIZED
                  0081c120    00000004     (.common:EdmaHandle)
                  0081c124    00000004     (.common:adcbufHandle)
                  0081c128    00000004     (.common:gLinkFrameSem)
                  0081c12c    00000004     (.common:g_MailboxInterruptFunc)
                  0081c130    00000004     (.common:lastChirpIntTimeStamp)
                  0081c134    00000004     (.common:monTestCase)
                  0081c138    00000001     (.common:monTestPassFlag)

.cinit     0    00800000    00000000     UNINITIALIZED

.far       0    0081af98    00000e78     UNINITIALIZED
                  0081af98    00000800     dss_pe674.oe674 (.far:taskStackSection)
                  0081b798    000004d8     libedma_xwr18xx.ae674 : edma.oe674 (.far:EDMA_object)
                  0081bc70    00000140     (.common:__TI_tmpnams)
                  0081bdb0    00000024     (.common:gLinkSemParams)
                  0081bdd4    00000018     (.common:gMmwaveLinkMCB)
                  0081bdec    00000010     (.common:edmaDbg)
                  0081bdfc    00000004     --HOLE--
                  0081be00    00000008     (.common:avgChirpTimeInterval)
                  0081be08    00000008     (.common:parmbuf)

.text.1    0    007e0200    0001fe00     
                  007e0200    00001fe0     rts6740_elf.lib : _printfi.c.obj (.text:__TI_printfi)
                  007e21e0    00001180     mmwavelink_test_common.oe674 (.text:MmwaveLink_startTest)
                  007e3360    00000940     link_test.oe674 (.text:MmwaveLink_asyncEventHandler)
                  007e3ca0    00000920     link_test_monitoring.oe674 (.text:MmwaveLink_CheckMonitoringReport)
                  007e45c0    000008a0     ti.targets.rts6000.ae674 : System.oe674 (.text:xdc_runtime_System_doPrint__I)
                  007e4e60    000007c0     sysbios.ae674 : BIOS.obj (.text:ti_sysbios_knl_Semaphore_pend__E)
                  007e5620    00000780                   : BIOS.obj (.text:ti_sysbios_family_c64p_Exception_handler__I)
                  007e5da0    00000680     libadcbuf_xwr18xx.ae674 : adcbuf_mmwave.oe674 (.text:ADCBUF_MMWave_control)
                  007e6420    00000660     rts6740_elf.lib : _printfi.c.obj (.text:_pconv_a)
                  007e6a80    00000620     sysbios.ae674 : BIOS.obj (.text:ti_sysbios_heaps_HeapMem_allocUnprotected__E)
                  007e70a0    00000600     rts6740_elf.lib : divd.c.obj (.text:__c6xabi_divd)
                  007e76a0    000005c0     sysbios.ae674 : BIOS.obj (.text:ti_sysbios_heaps_HeapMem_freeUnprotected__E)
                  007e7c60    00000520                   : BIOS.obj (.text:ti_sysbios_knl_Task_Instance_finalize__E)
                  007e8180    000004e0                   : BIOS.obj (.text:ti_sysbios_knl_Task_sleep__E)
                  007e8660    00000440                   : BIOS.obj (.text:ti_sysbios_timers_rti_Timer_Module_startup__E)
                  007e8aa0    00000420     libmailbox_xwr18xx.ae674 : mailbox.oe674 (.text:Mailbox_open)
                  007e8ec0    00000420     link_test.oe674 (.text:MmwaveLink_getDynChirpConfig)
                  007e92e0    00000400     rts6740_elf.lib : _printfi.c.obj (.text:_pconv_g)
                  007e96e0    00000400     libmmwavelink_xwr18xx.ae674 : rl_driver.oe674 (.text:rlDriverRxHdrRead)
                  007e9ae0    000003e0     sysbios.ae674 : BIOS.obj (.text:ti_sysbios_knl_Task_Module_startup__E)
                  007e9ec0    000003c0     link_test_monitoring.oe674 (.text:MmwaveLink_monitoring)
                  007ea280    000003c0     sysbios.ae674 : BIOS.obj (.text:ti_sysbios_knl_Task_Instance_init__E)
                  007ea640    000003a0     link_test_monitoring.oe674 (.text:MmwaveLink_printMonitoringResult)
                  007ea9e0    00000360     libcrc_xwr18xx.ae674 : crc.oe674 (.text:CRC_open)
                  007ead40    00000360     libmmwavelink_xwr18xx.ae674 : rl_driver.oe674 (.text:rlDriverMsgRead)
                  007eb0a0    00000360     sysbios.ae674 : BIOS.obj (.text:ti_sysbios_knl_Semaphore_post__E)
                  007eb400    00000320     rts6740_elf.lib : fputs.c.obj (.text:fputs)
                  007eb720    000002e0     libmmwavelink_xwr18xx.ae674 : rl_driver.oe674 (.text:rlDriverCmdSendRetry)
                  007eba00    000002e0     sysbios.ae674 : BIOS.obj (.text:ti_sysbios_heaps_HeapMem_Instance_init__E)
                  007ebce0    000002c0     libedma_xwr18xx.ae674 : edma.oe674 (.text:EDMA_configChannel)
                  007ebfa0    000002c0     libmmwavelink_xwr18xx.ae674 : rl_driver.oe674 (.text:rlDriverCmdInvoke)
                  007ec260    000002c0     sysbios.ae674 : BIOS.obj (.text:ti_sysbios_knl_Clock_workFunc__E)
                  007ec520    000002a0     libcrc_xwr18xx.ae674 : crc.oe674 (.text:CRC_computeSignature)
                  007ec7c0    000002a0     libedma_xwr18xx.ae674 : edma.oe674 (.text:EDMA_open)
                  007eca60    000002a0     link_test.oe674 (.text:MmwaveLink_getProfileConfig)
                  007ecd00    000002a0     link_test.oe674 (.text:MmwaveLink_initLink)
                  007ecfa0    000002a0     rts6740_elf.lib : _printfi.c.obj (.text:_pconv_e)
                  007ed240    000002a0                     : _printfi.c.obj (.text:fcvt)
                  007ed4e0    00000280     sysbios.ae674 : BIOS.obj (.text:ti_sysbios_family_c64p_Cache_Module_startup__E)
                  007ed760    00000260     libtestlogger_xwr18xx.ae674 : logger.oe674 (.text:MCPI_setFeatureTestResult)
                  007ed9c0    00000260     rts6740_elf.lib : imath64.c.obj (.text:__c6xabi_divull)
                  007edc20    00000260     libmmwavelink_xwr18xx.ae674 : rl_driver.oe674 (.text:rlDriverInit)
                  007ede80    00000260     sysbios.ae674 : BIOS.obj (.text:ti_sysbios_family_c64p_Cache_block__I)
                  007ee0e0    00000260                   : BIOS.obj (.text:ti_sysbios_family_c64p_Hwi_dispatchCore__I)
                  007ee340    00000260     ti.targets.rts6000.ae674 : Startup.oe674 (.text:xdc_runtime_Startup_startMods__I)
                  007ee5a0    00000240     link_test.oe674 (.text:MmwaveLink_computeCRC)
                  007ee7e0    00000240     main_dss.oe674 (.text:main)
                  007eea20    00000240     libmmwavelink_xwr18xx.ae674 : rl_sensor.oe674 (.text:rlGetChirpConfig)
                  007eec60    00000240     sysbios.ae674 : BIOS.obj (.text:ti_sysbios_family_c64p_EventCombiner_dispatch__E)
                  007eeea0    00000240                   : BIOS.obj (.text:ti_sysbios_family_c64p_Exception_internalHandler__I)
                  007ef0e0    00000240                   : BIOS.obj (.text:ti_sysbios_timers_rti_Timer_getFreq__E)
                  007ef320    00000240     ti.targets.rts6000.ae674 : Core-mem.oe674 (.text:xdc_runtime_Core_createObject__I)
                  007ef560    00000240     dss_pe674.oe674 (.text:xdc_runtime_System_printfExtend__I)
                  007ef7a0    00000220     libedma_xwr18xx.ae674 : edma.oe674 (.text:EDMA_transferComplete_isr)
                  007ef9c0    00000220     libmailbox_xwr18xx.ae674 : mailbox.oe674 (.text:Mailbox_write)
                  007efbe0    00000220     link_test_monitoring.oe674 (.text:MmwaveLink_monTest1)
                  007efe00    00000220     mmwavelink_test_common.oe674 (.text:MmwaveLink_subframeStart)
                  007f0020    00000220     sysbios.ae674 : BIOS.obj (.text:ti_sysbios_family_c64p_Hwi_reconfig__E)
                  007f0240    00000220                   : BIOS.obj (.text:ti_sysbios_knl_Swi_run__I)
                  007f0460    00000200     rts6740_elf.lib : _printfi.c.obj (.text:_ltostr)
                  007f0660    00000200     sysbios.ae674 : c64p_Hwi_disp_always.obj (.text:_ti_sysbios_family_c64p_Hwi_dispatchAlways)
                  007f0860    00000200     libmmwavelink_xwr18xx.ae674 : rl_sensor.oe674 (.text:rlRfPhShiftCalibDataStore)
                  007f0a60    00000200     ti.targets.rts6000.ae674 : Error.oe674 (.text:xdc_runtime_Error_policyDefault__E)
                  007f0c60    000001e0     libedma_xwr18xx.ae674 : edma.oe674 (.text:EDMA_init)
                  007f0e40    000001e0     libmmwavelink_xwr18xx.ae674 : rl_driver.oe674 (.text:rlDriverRdVerifyMsg)
                  007f1020    000001e0     sysbios.ae674 : BIOS.obj (.text:ti_sysbios_family_c64p_EventCombiner_dispatchPlug__E)
                  007f1200    000001e0                   : BIOS.obj (.text:ti_sysbios_gates_GateMutex_enter__E)
                  007f13e0    000001e0                   : BIOS.obj (.text:ti_sysbios_knl_Task_exit__E)
                  007f15c0    000001e0     ti.targets.rts6000.ae674 : Text.oe674 (.text:xdc_runtime_Text_putSite__E)
                  007f17a0    000001c0     libmailbox_xwr18xx.ae674 : mailbox.oe674 (.text:Mailbox_read)
                  007f1960    000001c0     link_test.oe674 (.text:MmwaveLink_VerifyCQData)
                  007f1b20    000001c0     link_test.oe674 (.text:MmwaveLink_negativeTest)
                  007f1ce0    000001c0     rts6740_elf.lib : imath40.c.obj (.text:__c6xabi_divul)
                  007f1ea0    000001c0                     : fputc.c.obj (.text:fputc)
                  007f2060    000001c0                     : frexp.c.obj (.text:frexp)
                  007f2220    000001c0                     : ldexp.c.obj (.text:ldexp)
                  007f23e0    000001c0     libmmwavelink_xwr18xx.ae674 : rl_driver.oe674 (.text:rlDriverMsgCmdReply)
                  007f25a0    000001c0     rts6740_elf.lib : setvbuf.c.obj (.text:setvbuf)
                  007f2760    000001c0     sysbios.ae674 : BIOS.obj (.text:ti_sysbios_knl_Task_checkStacks__E)
                  007f2920    000001a0     libadcbuf_xwr18xx.ae674 : adcbuf_mmwave.oe674 (.text:ADCBUF_MMWave_open)
                  007f2ac0    000001a0     libedma_xwr18xx.ae674 : edma.oe674 (.text:EDMA_paramConfig_assist)
                  007f2c60    000001a0     rts6740_elf.lib : hostrename.c.obj (.text:HOSTrename)
                  007f2e00    000001a0     link_test.oe674 (.text:MmwaveLink_VerifyCPData)
                  007f2fa0    000001a0     libmmwavelink_xwr18xx.ae674 : rl_driver.oe674 (.text:rlDriverDeInit)
                  007f3140    000001a0                                 : rl_driver.oe674 (.text:rlDriverMsgWrite)
                  007f32e0    000001a0                                 : rl_sensor.oe674 (.text:rlGetFrameConfig)
                  007f3480    000001a0                                 : rl_sensor.oe674 (.text:rlRfCalibDataStore)
                  007f3620    000001a0                                 : rl_sensor.oe674 (.text:rlRfPhShiftCalibDataRestore)
                  007f37c0    000001a0                                 : rl_sensor.oe674 (.text:rlRfSetPhaseShiftConfig)
                  007f3960    000001a0                                 : rl_sensor.oe674 (.text:rlSetChirpConfig)
                  007f3b00    000001a0                                 : rl_sensor.oe674 (.text:rlSetDynPerChirpPhShifterCfg)
                  007f3ca0    000001a0                                 : rl_sensor.oe674 (.text:rlSetMultiBpmChirpConfig)
                  007f3e40    000001a0                                 : rl_sensor.oe674 (.text:rlSetMultiChirpCfg)
                  007f3fe0    000001a0     sysbios.ae674 : BIOS.obj (.text:ti_sysbios_family_c64p_Cache_getL2InitSize__I)
                  007f4180    000001a0                   : BIOS.obj (.text:ti_sysbios_family_c64p_EventCombiner_disableEvent__E)
                  007f4320    000001a0                   : BIOS.obj (.text:ti_sysbios_family_c64p_EventCombiner_enableEvent__E)
                  007f44c0    000001a0                   : BIOS.obj (.text:ti_sysbios_heaps_HeapBuf_Module_startup__E)
                  007f4660    000001a0                   : BIOS.obj (.text:ti_sysbios_knl_Task_schedule__I)
                  007f4800    000001a0                   : BIOS.obj (.text:ti_sysbios_timers_rti_Timer_startup__E)
                  007f49a0    000001a0     ti.targets.rts6000.ae674 : Core-smem.oe674 (.text:xdc_runtime_Core_constructObject__I)
                  007f4b40    00000180     libadcbuf_xwr18xx.ae674 : adcbuf_mmwave.oe674 (.text:ADCBUFCmdParamCheck)
                  007f4cc0    00000180     link_test.oe674 (.text:MmwaveLink_adcBufConfig)
                  007f4e40    00000180     libmmwavelink_xwr18xx.ae674 : rl_sensor.oe674 (.text:rlSetProfileConfig)
                  007f4fc0    00000180     sysbios.ae674 : c64p_Exception_asm.obj (.text)
                  007f5140    00000180                   : BIOS.obj (.text:ti_sysbios_knl_Task_postInit__I)
                  007f52c0    00000180                   : BIOS.obj (.text:ti_sysbios_knl_Task_startCore__E)
                  007f5440    00000160     libedma_xwr18xx.ae674 : edma.oe674 (.text:EDMA_getErrorStatusInfo)
                  007f55a0    00000160     libmailbox_xwr18xx.ae674 : mailbox.oe674 (.text:Mailbox_close)
                  007f5700    00000160     link_test.oe674 (.text:MmwaveLink_getFrameConfig)
                  007f5860    00000160     link_test.oe674 (.text:MmwaveLink_getVersion)
                  007f59c0    00000160     link_test_monitoring.oe674 (.text:MmwaveLink_verifyRxGainPhRep)
                  007f5b20    00000160     libsoc_xwr18xx.ae674 : soc.oe674 (.text:SOC_registerSysIntListener)
                  007f5c80    00000160     link_test.oe674 (.text:mmwaveLink_getTemperatureReport)
                  007f5de0    00000160     libmmwavelink_xwr18xx.ae674 : rl_driver.oe674 (.text:rlDriverMsgReadCmdCtx)
                  007f5f40    00000160                                 : rl_driver.oe674 (.text:rlDriverWaitForResponse)
                  007f60a0    00000160                                 : rl_sensor.oe674 (.text:rlGetAdvFrameConfig)
                  007f6200    00000160                                 : rl_sensor.oe674 (.text:rlRfCalibDataRestore)
                  007f6360    00000160                                 : rl_monitoring.oe674 (.text:rlRfTxBallbreakMonConfig)
                  007f64c0    00000160                                 : rl_monitoring.oe674 (.text:rlRfTxBpmMonConfig)
                  007f6620    00000160                                 : rl_monitoring.oe674 (.text:rlRfTxIntAnaSignalsMonConfig)
                  007f6780    00000160                                 : rl_monitoring.oe674 (.text:rlRfTxPowrMonConfig)
                  007f68e0    00000160                                 : rl_sensor.oe674 (.text:rlSetFrameConfig)
                  007f6a40    00000160     sysbios.ae674 : BIOS.obj (.text:ti_sysbios_family_c64p_Hwi_Module_startup__E)
                  007f6ba0    00000160                   : BIOS.obj (.text:ti_sysbios_knl_Swi_post__E)
                  007f6d00    00000160     ti.targets.rts6000.ae674 : Text.oe674 (.text:xdc_runtime_Text_putMod__E)
                  007f6e60    00000140     libedma_xwr18xx.ae674 : edma_low_level.oe674 (.text:EDMA3Init)
                  007f6fa0    00000140                           : edma.oe674 (.text:EDMA_clearErrors)
                  007f70e0    00000140     mmwavelink_test_common.oe674 (.text:Mmwavelink_frameInterrupCallBackFunc)
                  007f7220    00000140     libsoc_xwr18xx.ae674 : soc.oe674 (.text:SOC_init)
                  007f7360    00000140     libmmwavelink_xwr18xx.ae674 : rl_device.oe674 (.text:rlDevicePowerOn)
                  007f74a0    00000140                                 : rl_driver.oe674 (.text:rlDriverMsgReadSpawnCtx)
                  007f75e0    00000140                                 : rl_sensor.oe674 (.text:rlGetProfileConfig)
                  007f7720    00000140                                 : rl_sensor.oe674 (.text:rlSetAdvFrameConfig)
                  007f7860    00000140     sysbios.ae674 : BIOS.obj (.text:ti_sysbios_family_c64p_Cache_getL1DInitSize__I)
                  007f79a0    00000140                   : BIOS.obj (.text:ti_sysbios_family_c64p_Cache_getL1PInitSize__I)
                  007f7ae0    00000140                   : BIOS.obj (.text:ti_sysbios_knl_Semaphore_Instance_init__E)
                  007f7c20    00000140                   : BIOS.obj (.text:ti_sysbios_knl_Task_blockI__E)
                  007f7d60    00000140                   : BIOS.obj (.text:ti_sysbios_timers_rti_Timer_initDevice__I)
                  007f7ea0    00000140     ti.targets.rts6000.ae674 : Core-mem.oe674 (.text:xdc_runtime_Core_deleteObject__I)
                  007f7fe0    00000140                              : Text.oe674 (.text:xdc_runtime_Text_putLab__E)
                  007f8120    00000120     libadcbuf_xwr18xx.ae674 : adcbuf_mmwave.oe674 (.text:ADCBUF_MMWave_getChanBufAddr)
                  007f8240    00000120     link_test.oe674 (.text:MmwaveLink_getAdvFrameConfig)
                  007f8360    00000120     boot.ae674 : autoinit.oe674 (.text:_auto_init_elf)
                  007f8480    00000120     rts6740_elf.lib : _printfi.c.obj (.text:_pconv_f)
                  007f85a0    00000120                     : getdevice.c.obj (.text:getdevice)
                  007f86c0    00000120     libmmwavelink_xwr18xx.ae674 : rl_driver.oe674 (.text:rlDriverAsyncEventHandler)
                  007f87e0    00000120                                 : rl_driver.oe674 (.text:rlDriverProcRdMsg)
                  007f8900    00000120                                 : rl_sensor.oe674 (.text:rlRxGainTempLutGet)
                  007f8a20    00000120                                 : rl_sensor.oe674 (.text:rlSetDynChirpCfg)
                  007f8b40    00000120                                 : rl_sensor.oe674 (.text:rlTxGainTempLutGet)
                  007f8c60    00000120     sysbios.ae674 : BIOS.obj (.text:ti_sysbios_family_c64p_Hwi_Instance_init__E)
                  007f8d80    00000120                   : BIOS.obj (.text:ti_sysbios_knl_Swi_restoreHwi__E)
                  007f8ea0    00000120                   : BIOS.obj (.text:ti_sysbios_knl_Task_unblockI__E)
                  007f8fc0    00000100     libmailbox_xwr18xx.ae674 : mailbox.oe674 (.text:Mailbox_readFlush)
                  007f90c0    00000100     link_test.oe674 (.text:MmwaveLink_mboxRead)
                  007f91c0    00000100     link_test.oe674 (.text:MmwaveLink_rlSetLoopBackBurstCfg)
                  007f92c0    00000100     libsoc_xwr18xx.ae674 : soc_xwr18xx_dss.oe674 (.text:SOC_deviceInit)
                  007f93c0    00000100     rts6740_elf.lib : fclose.c.obj (.text:__TI_closefile)
                  007f94c0    00000100                     : _printfi.c.obj (.text:_mcpy)
                  007f95c0    00000100                     : atoi.c.obj (.text:atoi)
                  007f96c0    00000100                     : fflush.c.obj (.text:fflush)
                  007f97c0    00000100                     : fseek.c.obj (.text:fseek)
                  007f98c0    00000100     libmmwavelink_xwr18xx.ae674 : rl_device.oe674 (.text:rlDeviceGetVersion)
                  007f99c0    00000100                                 : rl_device.oe674 (.text:rlDevicePowerOff)
                  007f9ac0    00000100                                 : rl_driver.oe674 (.text:rlDriverClientCbCheck)
                  007f9bc0    00000100                                 : rl_driver.oe674 (.text:rlDriverOsiCbCheck)
                  007f9cc0    00000100     sysbios.ae674 : BIOS.obj (.text:ti_sysbios_family_c64p_Hwi_Instance_finalize__E)
                  007f9dc0    00000100                   : BIOS.obj (.text:ti_sysbios_knl_Swi_schedule__I)
                  007f9ec0    00000100     ti.targets.rts6000.ae674 : Error.oe674 (.text:xdc_runtime_Error_print__E)
                  007f9fc0    00000100                              : Memory.oe674 (.text:xdc_runtime_Memory_alloc__E)
                  007fa0c0    00000100                              : Startup.oe674 (.text:xdc_runtime_Startup_exec__E)
                  007fa1c0    000000e0     libcrc_xwr18xx.ae674 : crc.oe674 (.text:CRC_getTransactionId)
                  007fa2a0    000000e0     libedma_xwr18xx.ae674 : edma.oe674 (.text:EDMA_transferController_error_isr)
                  007fa380    000000e0     rts6740_elf.lib : hostlseek.c.obj (.text:HOSTlseek)
                  007fa460    000000e0                     : hostopen.c.obj (.text:HOSTopen)
                  007fa540    000000e0                     : hostwrite.c.obj (.text:HOSTwrite)
                  007fa620    000000e0     libmailbox_xwr18xx.ae674 : mailbox.oe674 (.text:Mailbox_boxFullISRMssDss)
                  007fa700    000000e0                              : mailbox.oe674 (.text:Mailbox_init)
                  007fa7e0    000000e0     link_test.oe674 (.text:MmwaveLink_ConfigEdma)
                  007fa8c0    000000e0     link_test.oe674 (.text:MmwaveLink_mboxOpen)
                  007fa9a0    000000e0     link_test.oe674 (.text:MmwaveLink_mboxWrite)
                  007faa80    000000e0     link_test.oe674 (.text:MmwaveLink_sensorStop)
                  007fab60    000000e0     rts6740_elf.lib : _ltoa.c.obj (.text:__TI_ltoa)
                  007fac40    000000e0                     : _io_perm.c.obj (.text:__TI_wrt_ok)
                  007fad20    000000e0                     : close.c.obj (.text:close)
                  007fae00    000000e0                     : exit.c.obj (.text:exit)
                  007faee0    000000e0                     : memset.c.obj (.text:memset)
                  007fafc0    000000e0                     : printf.c.obj (.text:printf)
                  007fb0a0    000000e0     libmmwavelink_xwr18xx.ae674 : rl_driver.oe674 (.text:rlDriverHostIrqHandler)
                  007fb180    000000e0                                 : rl_driver.oe674 (.text:rlDriverValidateHdr)
                  007fb260    000000e0     sysbios.ae674 : BIOS.obj (.text:ti_sysbios_heaps_HeapMem_alloc__E)
                  007fb340    000000e0                   : BIOS.obj (.text:ti_sysbios_knl_Swi_runLoop__I)
                  007fb420    000000e0                   : BIOS.obj (.text:ti_sysbios_knl_Swi_startup__E)
                  007fb500    000000e0     ti.targets.rts6000.ae674 : Text.oe674 (.text:xdc_runtime_Text_visitRope2__I)
                  007fb5e0    000000c0     libcrc_xwr18xx.ae674 : crc.oe674 (.text:CRC_getSignature)
                  007fb6a0    000000c0     libedma_xwr18xx.ae674 : edma.oe674 (.text:EDMA_error_isr)
                  007fb760    000000c0                           : edma.oe674 (.text:EDMA_startDmaTransfer)
                  007fb820    000000c0     rts6740_elf.lib : hostread.c.obj (.text:HOSTread)
                  007fb8e0    000000c0                     : hostunlink.c.obj (.text:HOSTunlink)
                  007fb9a0    000000c0     libmailbox_xwr18xx.ae674 : mailbox.oe674 (.text:Mailbox_boxFullISRProcessing)
                  007fba60    000000c0     link_test.oe674 (.text:MmwaveLink_CQedmaSetup)
                  007fbb20    000000c0     link_test.oe674 (.text:MmwaveLink_progFilterConfig)
                  007fbbe0    000000c0     link_test_monitoring.oe674 (.text:MmwaveLink_setInitTimeCalibConfig)
                  007fbca0    000000c0     link_test_monitoring.oe674 (.text:MmwaveLink_setRfAnaMonConfig)
                  007fbd60    000000c0     main_dss.oe674 (.text:MmwaveLink_setupEventCombiner)
                  007fbe20    000000c0     mmwavelink_test_common.oe674 (.text:Mmwavelink_chirpAvailInterrupCallBackFunc)
                  007fbee0    000000c0     rts6740_elf.lib : divu.asm.obj (.text:__divu)
                  007fbfa0    000000c0                     : remi.asm.obj (.text:__remi)
                  007fc060    000000c0     link_test.oe674 (.text:mmwaveLink_PSLoopBackConfig)
                  007fc120    000000c0     link_test_monitoring.oe674 (.text:mmwaveLink_digMonEnableConfig)
                  007fc1e0    000000c0     link_test.oe674 (.text:mmwaveLink_getDieIdStaus)
                  007fc2a0    000000c0     link_test.oe674 (.text:mmwaveLink_testSourceConfig)
                  007fc360    000000c0     libmmwavelink_xwr18xx.ae674 : rl_driver.oe674 (.text:rlDriverCalChkSum)
                  007fc420    000000c0                                 : rl_driver.oe674 (.text:rlDriverExecuteGetApi)
                  007fc4e0    000000c0                                 : rl_driver.oe674 (.text:rlDriverExecuteSetApi)
                  007fc5a0    000000c0                                 : rl_controller.oe674 (.text:rlGetSubBlock)
                  007fc660    000000c0     dss_pe674.oe674 (.text:ti_sysbios_family_c64p_Hwi_create)
                  007fc720    000000c0     sysbios.ae674 : BIOS.obj (.text:ti_sysbios_heaps_HeapMem_getStats__E)
                  007fc7e0    000000c0                   : BIOS.obj (.text:ti_sysbios_knl_Clock_logTick__E)
                  007fc8a0    000000c0                   : BIOS.obj (.text:ti_sysbios_knl_Task_allBlockedFunction__I)
                  007fc960    000000c0     dss_pe674.oe674 (.text:ti_sysbios_knl_Task_create)
                  007fca20    000000c0     rts6740_elf.lib : tls.c.obj (.text:tls:init:__TI_tls_init)
                  007fcae0    000000c0     ti.targets.rts6000.ae674 : Assert.oe674 (.text:xdc_runtime_Assert_raise__I)
                  007fcba0    000000c0                              : Error.oe674 (.text:xdc_runtime_Error_setX__E)
                  007fcc60    000000a0     libedma_xwr18xx.ae674 : edma_low_level.oe674 (.text:EDMA3EnableChInShadowReg)
                  007fcd00    000000a0                           : edma_low_level.oe674 (.text:EDMA3EnableTransfer)
                  007fcda0    000000a0                           : edma.oe674 (.text:EDMA_disableChannel)
                  007fce40    000000a0                           : edma.oe674 (.text:EDMA_enableChannel)
                  007fcee0    000000a0     rts6740_elf.lib : hostclose.c.obj (.text:HOSTclose)
                  007fcf80    000000a0     libmailbox_xwr18xx.ae674 : mailbox.oe674 (.text:Mailbox_boxEmptyISRProcessing)
                  007fd020    000000a0     link_test.oe674 (.text:MmwaveLink_getRfBootupStatus)
                  007fd0c0    000000a0     link_test.oe674 (.text:MmwaveLink_mmwaveLinkMgmtTask)
                  007fd160    000000a0     link_test.oe674 (.text:MmwaveLink_rfCalibration)
                  007fd200    000000a0     link_test_monitoring.oe674 (.text:MmwaveLink_rlRfDigMonPeriodicConfig)
                  007fd2a0    000000a0     link_test.oe674 (.text:MmwaveLink_rlSetDynChirpCfg)
                  007fd340    000000a0     link_test.oe674 (.text:MmwaveLink_sensorStart)
                  007fd3e0    000000a0     link_test.oe674 (.text:MmwaveLink_setBpmChirpConfig)
                  007fd480    000000a0     link_test_monitoring.oe674 (.text:MmwaveLink_setCalMonConfig)
                  007fd520    000000a0     link_test.oe674 (.text:MmwaveLink_setChannelConfig)
                  007fd5c0    000000a0     link_test.oe674 (.text:MmwaveLink_setFrameConfig)
                  007fd660    000000a0     link_test.oe674 (.text:MmwaveLink_setGpAdcConfig)
                  007fd700    000000a0     link_test.oe674 (.text:MmwaveLink_setMultiChirpConfig)
                  007fd7a0    000000a0     link_test_monitoring.oe674 (.text:MmwaveLink_setRfRxIntAnaSignalMonConfig)
                  007fd840    000000a0     link_test_monitoring.oe674 (.text:MmwaveLink_setRfSynthFreqNonLiveMonConfig)
                  007fd8e0    000000a0     link_test_monitoring.oe674 (.text:MmwaveLink_setRunTimeCalibConfig)
                  007fd980    000000a0     libsoc_xwr18xx.ae674 : soc.oe674 (.text:SOC_SystemISR)
                  007fda20    000000a0     rts6740_elf.lib : fopen.c.obj (.text:__TI_cleanup)
                  007fdac0    000000a0                     : fflush.c.obj (.text:__TI_doflush)
                  007fdb60    000000a0                     : remu.asm.obj (.text:__remu)
                  007fdc00    000000a0     boot.ae674 : boot.oe674 (.text:_c_int00)
                  007fdca0    000000a0     rts6740_elf.lib : _printfi.c.obj (.text:_ecpy)
                  007fdd40    000000a0     sysbios.ae674 : c64p_Hwi_asm.obj (.text:_ti_sysbios_family_c64p_Hwi_plug__E)
                  007fdde0    000000a0     rts6740_elf.lib : getdevice.c.obj (.text:finddevice)
                  007fde80    000000a0                     : memcpy64.asm.obj (.text:memcpy)
                  007fdf20    000000a0     link_test.oe674 (.text:mmwaveLink_IFLoopBackConfig)
                  007fdfc0    000000a0     link_test.oe674 (.text:mmwaveLink_PALoopBackConfig)
                  007fe060    000000a0     link_test.oe674 (.text:mmwaveLink_calibDataRestore)
                  007fe100    000000a0     link_test.oe674 (.text:mmwaveLink_dynPerChirpPhaseShifterConfig)
                  007fe1a0    000000a0     link_test.oe674 (.text:mmwaveLink_getDfeRxStatisticsReport)
                  007fe240    000000a0     link_test.oe674 (.text:mmwaveLink_phShiftCalibDataStore)
                  007fe2e0    000000a0     libmmwavelink_xwr18xx.ae674 : rl_controller.oe674 (.text:rlAppendSubBlock)
                  007fe380    000000a0                                 : rl_driver.oe674 (.text:rlDriverVerifyCRC)
                  007fe420    000000a0     sysbios.ae674 : BIOS.obj (.text:ti_sysbios_family_c64p_Exception_Module_startup__E)
                  007fe4c0    000000a0                   : BIOS.obj (.text:ti_sysbios_family_c64p_Hwi_dispatchC__I)
                  007fe560    000000a0                   : BIOS.obj (.text:ti_sysbios_family_c64p_Hwi_eventMap__E)
                  007fe600    000000a0                   : BIOS.obj (.text:ti_sysbios_family_c64p_Hwi_getStackInfo__E)
                  007fe6a0    000000a0     ti.targets.rts6000.ae674 : Core-params.oe674 (.text:xdc_runtime_Core_assignParams__I)
                  007fe740    000000a0                              : System.oe674 (.text:xdc_runtime_System_formatNum__I)
                  007fe7e0    000000a0                              : System.oe674 (.text:xdc_runtime_System_putchar__I)
                  007fe880    000000a0                              : Text.oe674 (.text:xdc_runtime_Text_printVisFxn__I)
                  007fe920    000000a0                              : Text.oe674 (.text:xdc_runtime_Text_xprintf__I)
                  007fe9c0    00000080     libadcbuf_xwr18xx.ae674 : adcbuf_mmwave.oe674 (.text:ADCBUF_MMWave_close)
                  007fea40    00000080                             : ADCBuf.oe674 (.text:ADCBuf_init)
                  007feac0    00000080     libedma_xwr18xx.ae674 : edma_low_level.oe674 (.text:EDMA3MapChToEvtQ)
                  007feb40    00000080                           : edma.oe674 (.text:EDMA_getTransferControllerErrorStatusInfo)
                  007febc0    00000080     libmailbox_xwr18xx.ae674 : mailbox.oe674 (.text:Mailbox_writeReset)
                  007fec40    00000080     link_test_monitoring.oe674 (.text:MmwaveLink_RxMixerInPwrConfig)
                  007fecc0    00000080     link_test.oe674 (.text:MmwaveLink_enableContMode)
                  007fed40    00000080     main_dss.oe674 (.text:MmwaveLink_initTask)
                  007fedc0    00000080     link_test.oe674 (.text:MmwaveLink_openEDMA)
                  007fee40    00000080     link_test.oe674 (.text:MmwaveLink_rfSetLdoBypassConfig)
                  007feec0    00000080     link_test.oe674 (.text:MmwaveLink_rlSetDynChirpEn)
                  007fef40    00000080     link_test.oe674 (.text:MmwaveLink_setAdcOutConfig)
                  007fefc0    00000080     link_test.oe674 (.text:MmwaveLink_setAdvFrameConfig)
                  007ff040    00000080     link_test.oe674 (.text:MmwaveLink_setBpmCommonConfig)
                  007ff0c0    00000080     link_test.oe674 (.text:MmwaveLink_setChirpConfig)
                  007ff140    00000080     link_test.oe674 (.text:MmwaveLink_setContModeConfig)
                  007ff1c0    00000080     link_test.oe674 (.text:MmwaveLink_setHsiClk)
                  007ff240    00000080     link_test.oe674 (.text:MmwaveLink_setLowPowerModeConfig)
                  007ff2c0    00000080     link_test.oe674 (.text:MmwaveLink_setProfileConfig)
                  007ff340    00000080     link_test_monitoring.oe674 (.text:MmwaveLink_setRfAnaMonConfigCq)
                  007ff3c0    00000080     link_test.oe674 (.text:MmwaveLink_setRfDevCfg)
                  007ff440    00000080     link_test_monitoring.oe674 (.text:MmwaveLink_setRfDualClkCompMonConfig)
                  007ff4c0    00000080     link_test_monitoring.oe674 (.text:MmwaveLink_setRfExtAnaSignalsMonConfig)
                  007ff540    00000080     link_test_monitoring.oe674 (.text:MmwaveLink_setRfGpadcIntAnaSignalsMonConfig)
                  007ff5c0    00000080     link_test_monitoring.oe674 (.text:MmwaveLink_setRfPllContrlVoltMonConfig)
                  007ff640    00000080     link_test_monitoring.oe674 (.text:MmwaveLink_setRfPmClkLoIntAnaSignalsMonConfig)
                  007ff6c0    00000080     link_test_monitoring.oe674 (.text:MmwaveLink_setRfRxGainPhaMonConfig)
                  007ff740    00000080     link_test_monitoring.oe674 (.text:MmwaveLink_setRfRxIfSatMonConfig)
                  007ff7c0    00000080     link_test_monitoring.oe674 (.text:MmwaveLink_setRfRxIfStageMonConfig)
                  007ff840    00000080     link_test_monitoring.oe674 (.text:MmwaveLink_setRfRxNoiseMonConfig)
                  007ff8c0    00000080     link_test_monitoring.oe674 (.text:MmwaveLink_setRfRxSigImgMonConfig)
                  007ff940    00000080     link_test_monitoring.oe674 (.text:MmwaveLink_setRfSynthFreqMonConfig)
                  007ff9c0    00000080     link_test_monitoring.oe674 (.text:MmwaveLink_setRfTempMonConfig)
                  007ffa40    00000080     link_test_monitoring.oe674 (.text:MmwaveLink_setRfTxBallbreakMonConfig)
                  007ffac0    00000080     link_test_monitoring.oe674 (.text:MmwaveLink_setRfTxBpmMonConfig)
                  007ffb40    00000080     link_test_monitoring.oe674 (.text:MmwaveLink_setRfTxGainPhaseMismatchMonConfig)
                  007ffbc0    00000080     link_test_monitoring.oe674 (.text:MmwaveLink_setRfTxIntAnaSignalMonConfig)
                  007ffc40    00000080     link_test_monitoring.oe674 (.text:MmwaveLink_setRfTxPowMonConfig)
                  007ffcc0    00000080     libosal_xwr18xx.ae674 : SemaphoreP_tirtos.oe674 (.text:SemaphoreP_create)
                  007ffd40    00000080     rts6740_elf.lib : trgmsg.c.obj (.text:__TI_readmsg)
                  007ffdc0    00000080                     : llshift.c.obj (.text:__c6xabi_llshl)
                  007ffe40    00000080                     : snprintf.c.obj (.text:_outs)
                  007ffec0    00000080     sysbios.ae674 : c62_TaskSupport_asm.obj (.text:_ti_sysbios_family_c62_TaskSupport_swap__E)
                  007fff40    00000080     link_test.oe674 (.text:mmwaveLink_RxGainTempLutConfig)
                  007fffc0    00000040     libadcbuf_xwr18xx.ae674 : adcbuf_mmwave.oe674 (.text:ADCBUFContinuousModeCtrl)

.text.2    0    0080a400    000056a0     
                  0080a400    00000080     link_test.oe674 (.text:mmwaveLink_RxGainTempLutRead)
                  0080a480    00000080     link_test.oe674 (.text:mmwaveLink_TxGainTempLutConfig)
                  0080a500    00000080     link_test.oe674 (.text:mmwaveLink_TxGainTempLutRead)
                  0080a580    00000080     link_test.oe674 (.text:mmwaveLink_calibDataStore)
                  0080a600    00000080     link_test.oe674 (.text:mmwaveLink_configAckTimeout)
                  0080a680    00000080     link_test.oe674 (.text:mmwaveLink_interRxGainConfig)
                  0080a700    00000080     link_test.oe674 (.text:mmwaveLink_miscConfig)
                  0080a780    00000080     link_test.oe674 (.text:mmwaveLink_perChirpPhaseShifterConfig)
                  0080a800    00000080     link_test.oe674 (.text:mmwaveLink_phShiftCalibDataRestore)
                  0080a880    00000080     link_test.oe674 (.text:mmwaveLink_triggerSubframe)
                  0080a900    00000080     libmmwavelink_xwr18xx.ae674 : rl_driver.oe674 (.text:rlDeviceIdentifyCmdDir)
                  0080a980    00000080                                 : rl_driver.oe674 (.text:rlDriverOsiInit)
                  0080aa00    00000080     rts6740_elf.lib : snprintf.c.obj (.text:snprintf)
                  0080aa80    00000080     dss_pe674.oe674 (.text:ti_sysbios_BIOS_atExitFunc__I)
                  0080ab00    00000080     dss_pe674.oe674 (.text:ti_sysbios_BIOS_registerRTSLock__I)
                  0080ab80    00000080     sysbios.ae674 : BIOS.obj (.text:ti_sysbios_family_c64p_Cache_invL1pAll__E)
                  0080ac00    00000080     dss_pe674.oe674 (.text:ti_sysbios_gates_GateHwi_Object__create__S)
                  0080ac80    00000080     dss_pe674.oe674 (.text:ti_sysbios_gates_GateMutex_Object__create__S)
                  0080ad00    00000080     sysbios.ae674 : BIOS.obj (.text:ti_sysbios_hal_Hwi_checkStack)
                  0080ad80    00000080     dss_pe674.oe674 (.text:ti_sysbios_heaps_HeapMem_Object__create__S)
                  0080ae00    00000080     sysbios.ae674 : BIOS.obj (.text:ti_sysbios_heaps_HeapMem_init__I)
                  0080ae80    00000080     dss_pe674.oe674 (.text:ti_sysbios_knl_Clock_doTick__I)
                  0080af00    00000080     sysbios.ae674 : BIOS.obj (.text:ti_sysbios_knl_Idle_run__E)
                  0080af80    00000080     dss_pe674.oe674 (.text:ti_sysbios_knl_Semaphore_create)
                  0080b000    00000080     sysbios.ae674 : BIOS.obj (.text:ti_sysbios_knl_Semaphore_pendTimeout__I)
                  0080b080    00000080                   : BIOS.obj (.text:ti_sysbios_knl_Task_processVitalTaskFlag__I)
                  0080b100    00000080     dss_pe674.oe674 (.text:ti_sysbios_rts_MemAlloc_alloc)
                  0080b180    00000080     sysbios.ae674 : BIOS.obj (.text:ti_sysbios_timers_rti_Timer_stop__E)
                  0080b200    00000080     rts6740_elf.lib : unlink.c.obj (.text:unlink)
                  0080b280    00000080     ti.targets.rts6000.ae674 : Core-label.oe674 (.text:xdc_runtime_Core_assignLabel__I)
                  0080b300    00000080                              : SysStd.oe674 (.text:xdc_runtime_SysStd_abort__E)
                  0080b380    00000080                              : System.oe674 (.text:xdc_runtime_System_atexit__E)
                  0080b400    00000080                              : System.oe674 (.text:xdc_runtime_System_avprintf__E)
                  0080b480    00000080                              : System.oe674 (.text:xdc_runtime_System_processAtExit__E)
                  0080b500    00000080                              : System.oe674 (.text:xdc_runtime_System_vprintf__E)
                  0080b580    00000060     libadcbuf_xwr18xx.ae674 : ADCBuf.oe674 (.text:ADCBuf_open)
                  0080b5e0    00000060     libcrc_xwr18xx.ae674 : crc.oe674 (.text:CRC_getCRCDataSelectBitValue)
                  0080b640    00000060                          : crc.oe674 (.text:CRC_getCRCTypeBitValue)
                  0080b6a0    00000060                          : crc.oe674 (.text:CRC_isTransactionIdValid)
                  0080b700    00000060                          : crc.oe674 (.text:CRC_resetSignature)
                  0080b760    00000060     libedma_xwr18xx.ae674 : edma_low_level.oe674 (.text:EDMA3ClrEvt)
                  0080b7c0    00000060                           : edma_low_level.oe674 (.text:EDMA3ClrIntr)
                  0080b820    00000060                           : edma_low_level.oe674 (.text:EDMA3ClrMissEvt)
                  0080b880    00000060                           : edma_low_level.oe674 (.text:EDMA3DisableDmaEvt)
                  0080b8e0    00000060                           : edma_low_level.oe674 (.text:EDMA3DisableEvtIntr)
                  0080b940    00000060                           : edma_low_level.oe674 (.text:EDMA3EnableDmaEvt)
                  0080b9a0    00000060                           : edma_low_level.oe674 (.text:EDMA3EnableEvtIntr)
                  0080ba00    00000060                           : edma_low_level.oe674 (.text:EDMA3SetEvt)
                  0080ba60    00000060                           : edma.oe674 (.text:EDMA_isError)
                  0080bac0    00000060                           : edma.oe674 (.text:EDMA_validate_channelIdchannelType)
                  0080bb20    00000060     libmailbox_xwr18xx.ae674 : mailbox.oe674 (.text:Mailbox_Config_init)
                  0080bb80    00000060     link_test.oe674 (.text:MmwaveLink_mboxClose)
                  0080bbe0    00000060     osi_tirtos.oe674 (.text:Osal_mutexCreate)
                  0080bc40    00000060     osi_tirtos.oe674 (.text:Osal_semCreate)
                  0080bca0    00000060     libsoc_xwr18xx.ae674 : soc.oe674 (.text:SOC_unhaltBSS)
                  0080bd00    00000060     rts6740_elf.lib : trgmsg.c.obj (.text:__TI_writemsg)
                  0080bd60    00000060                     : llshift.c.obj (.text:__c6xabi_llshru)
                  0080bdc0    00000060                     : imath64.c.obj (.text:_subcull)
                  0080be20    00000060     sysbios.ae674 : c64p_Hwi_asm_switch.obj (.text:_ti_sysbios_family_c64p_Hwi_switchAndDispatch__I)
                  0080be80    00000060                   : c64p_Hwi_asm_switch.obj (.text:_ti_sysbios_family_xxx_Hwi_switchAndRunFunc)
                  0080bee0    00000060     rts6740_elf.lib : lseek.c.obj (.text:lseek)
                  0080bf40    00000060                     : memccpy.c.obj (.text:memccpy)
                  0080bfa0    00000060     libmmwavelink_xwr18xx.ae674 : rl_device.oe674 (.text:rlDeviceGetMssVersion)
                  0080c000    00000060                                 : rl_device.oe674 (.text:rlDeviceSetHsiClk)
                  0080c060    00000060                                 : rl_driver.oe674 (.text:rlDriverConstructInMsg)
                  0080c0c0    00000060                                 : rl_sensor.oe674 (.text:rlEnableContMode)
                  0080c120    00000060                                 : rl_monitoring.oe674 (.text:rlRfAnaMonConfig)
                  0080c180    00000060                                 : rl_sensor.oe674 (.text:rlRfDfeRxStatisticsReport)
                  0080c1e0    00000060                                 : rl_monitoring.oe674 (.text:rlRfDigMonEnableConfig)
                  0080c240    00000060                                 : rl_monitoring.oe674 (.text:rlRfDigMonPeriodicConfig)
                  0080c2a0    00000060                                 : rl_monitoring.oe674 (.text:rlRfDualClkCompMonConfig)
                  0080c300    00000060                                 : rl_monitoring.oe674 (.text:rlRfExtAnaSignalsMonConfig)
                  0080c360    00000060                                 : rl_sensor.oe674 (.text:rlRfGetTemperatureReport)
                  0080c3c0    00000060                                 : rl_monitoring.oe674 (.text:rlRfGpadcIntAnaSignalsMonConfig)
                  0080c420    00000060                                 : rl_sensor.oe674 (.text:rlRfInitCalibConfig)
                  0080c480    00000060                                 : rl_sensor.oe674 (.text:rlRfInterRxGainPhaseConfig)
                  0080c4e0    00000060                                 : rl_monitoring.oe674 (.text:rlRfPllContrlVoltMonConfig)
                  0080c540    00000060                                 : rl_monitoring.oe674 (.text:rlRfPmClkLoIntAnaSignalsMonConfig)
                  0080c5a0    00000060                                 : rl_sensor.oe674 (.text:rlRfRunTimeCalibConfig)
                  0080c600    00000060                                 : rl_monitoring.oe674 (.text:rlRfRxGainPhMonConfig)
                  0080c660    00000060                                 : rl_monitoring.oe674 (.text:rlRfRxIfSatMonConfig)
                  0080c6c0    00000060                                 : rl_monitoring.oe674 (.text:rlRfRxIfStageMonConfig)
                  0080c720    00000060                                 : rl_monitoring.oe674 (.text:rlRfRxIntAnaSignalsMonConfig)
                  0080c780    00000060                                 : rl_monitoring.oe674 (.text:rlRfRxMixerInPwrConfig)
                  0080c7e0    00000060                                 : rl_monitoring.oe674 (.text:rlRfRxNoiseMonConfig)
                  0080c840    00000060                                 : rl_monitoring.oe674 (.text:rlRfRxSigImgMonConfig)
                  0080c8a0    00000060                                 : rl_sensor.oe674 (.text:rlRfSetCalMonFreqLimitConfig)
                  0080c900    00000060                                 : rl_sensor.oe674 (.text:rlRfSetCalMonTimeUnitConfig)
                  0080c960    00000060                                 : rl_sensor.oe674 (.text:rlRfSetDeviceCfg)
                  0080c9c0    00000060                                 : rl_sensor.oe674 (.text:rlRfSetIFLoopbackConfig)
                  0080ca20    00000060                                 : rl_sensor.oe674 (.text:rlRfSetLdoBypassConfig)
                  0080ca80    00000060                                 : rl_sensor.oe674 (.text:rlRfSetMiscConfig)
                  0080cae0    00000060                                 : rl_sensor.oe674 (.text:rlRfSetPALoopbackConfig)
                  0080cb40    00000060                                 : rl_sensor.oe674 (.text:rlRfSetPSLoopbackConfig)
                  0080cba0    00000060                                 : rl_sensor.oe674 (.text:rlRfSetProgFiltCoeffRam)
                  0080cc00    00000060                                 : rl_sensor.oe674 (.text:rlRfSetProgFiltConfig)
                  0080cc60    00000060                                 : rl_monitoring.oe674 (.text:rlRfSynthFreqMonConfig)
                  0080ccc0    00000060                                 : rl_monitoring.oe674 (.text:rlRfTempMonConfig)
                  0080cd20    00000060                                 : rl_monitoring.oe674 (.text:rlRfTxGainPhaseMismatchMonConfig)
                  0080cd80    00000060                                 : rl_sensor.oe674 (.text:rlRxGainTempLutSet)
                  0080cde0    00000060                                 : rl_sensor.oe674 (.text:rlSensorStart)
                  0080ce40    00000060                                 : rl_sensor.oe674 (.text:rlSensorStop)
                  0080cea0    00000060                                 : rl_sensor.oe674 (.text:rlSetAdcOutConfig)
                  0080cf00    00000060                                 : rl_sensor.oe674 (.text:rlSetBpmChirpConfig)
                  0080cf60    00000060                                 : rl_sensor.oe674 (.text:rlSetBpmCommonConfig)
                  0080cfc0    00000060                                 : rl_sensor.oe674 (.text:rlSetChannelConfig)
                  0080d020    00000060                                 : rl_sensor.oe674 (.text:rlSetContModeConfig)
                  0080d080    00000060                                 : rl_sensor.oe674 (.text:rlSetDynChirpEn)
                  0080d0e0    00000060                                 : rl_sensor.oe674 (.text:rlSetGpAdcConfig)
                  0080d140    00000060                                 : rl_sensor.oe674 (.text:rlSetLoopBckBurstCfg)
                  0080d1a0    00000060                                 : rl_sensor.oe674 (.text:rlSetLowPowerModeConfig)
                  0080d200    00000060                                 : rl_sensor.oe674 (.text:rlSetSubFrameStart)
                  0080d260    00000060                                 : rl_sensor.oe674 (.text:rlSetTestSourceConfig)
                  0080d2c0    00000060                                 : rl_sensor.oe674 (.text:rlTestSourceEnable)
                  0080d320    00000060                                 : rl_sensor.oe674 (.text:rlTxGainTempLutSet)
                  0080d380    00000060     dss_pe674.oe674 (.text:ti_sysbios_BIOS_errorRaiseHook__I)
                  0080d3e0    00000060     dss_pe674.oe674 (.text:ti_sysbios_BIOS_removeRTSLock__I)
                  0080d440    00000060     dss_pe674.oe674 (.text:ti_sysbios_BIOS_startFunc__I)
                  0080d4a0    00000060     sysbios.ae674 : BIOS.obj (.text:ti_sysbios_family_c62_TaskSupport_start__E)
                  0080d500    00000060                   : BIOS.obj (.text:ti_sysbios_family_c64p_Cache_setMar__E)
                  0080d560    00000060                   : BIOS.obj (.text:ti_sysbios_family_c64p_EventCombiner_Module_startup__E)
                  0080d5c0    00000060                   : BIOS.obj (.text:ti_sysbios_family_c64p_EventCombiner_unused__E)
                  0080d620    00000060     dss_pe674.oe674 (.text:ti_sysbios_gates_GateMutex_Object__delete__S)
                  0080d680    00000060     sysbios.ae674 : BIOS.obj (.text:ti_sysbios_hal_Hwi_initStack)
                  0080d6e0    00000060                   : BIOS.obj (.text:ti_sysbios_heaps_HeapMem_free__E)
                  0080d740    00000060                   : BIOS.obj (.text:ti_sysbios_knl_Clock_Module_startup__E)
                  0080d7a0    00000060     dss_pe674.oe674 (.text:ti_sysbios_knl_Queue_construct)
                  0080d800    00000060     dss_pe674.oe674 (.text:ti_sysbios_knl_Semaphore_Object__delete__S)
                  0080d860    00000060     dss_pe674.oe674 (.text:ti_sysbios_knl_Semaphore_construct)
                  0080d8c0    00000060     sysbios.ae674 : BIOS.obj (.text:ti_sysbios_knl_Swi_Module_startup__E)
                  0080d920    00000060                   : BIOS.obj (.text:ti_sysbios_knl_Task_enter__I)
                  0080d980    00000060     rts6740_elf.lib : write.c.obj (.text:write)
                  0080d9e0    00000060     ti.targets.rts6000.ae674 : Memory.oe674 (.text:xdc_runtime_Memory_valloc__E)
                  0080da40    00000060                              : Text.oe674 (.text:xdc_runtime_Text_cordText__E)
                  0080daa0    00000040     libadcbuf_xwr18xx.ae674 : adcbuf_mmwave.oe674 (.text:ADCBUFSetPingNumChirpThreshhold)
                  0080dae0    00000040                             : adcbuf_mmwave.oe674 (.text:ADCBUFSetPongNumChirpThreshhold)
                  0080db20    00000040                             : adcbuf_mmwave.oe674 (.text:ADCBUFSrcSelect)
                  0080db60    00000040     libcrc_xwr18xx.ae674 : crc.oe674 (.text:CRC_getSignatureRegister)
                  0080dba0    00000040                          : crc.oe674 (.text:CRC_releaseTransactionId)
                  0080dbe0    00000040     libadcbuf_xwr18xx.ae674 : adcbuf_mmwave.oe674 (.text:CSL_FEXTR)
                  0080dc20    00000040     libsoc_xwr18xx.ae674 : soc.oe674 (.text:CSL_FEXTR)
                  0080dc60    00000040     libadcbuf_xwr18xx.ae674 : adcbuf_mmwave.oe674 (.text:CSL_FINSR)
                  0080dca0    00000040     libcrc_xwr18xx.ae674 : crc.oe674 (.text:CSL_FINSR)
                  0080dce0    00000040     libmailbox_xwr18xx.ae674 : mailbox.oe674 (.text:CSL_FINSR)
                  0080dd20    00000040     libsoc_xwr18xx.ae674 : soc.oe674 (.text:CSL_FINSR)
                  0080dd60    00000040                          : soc_xwr18xx_dss.oe674 (.text:CSL_FINSR)
                  0080dda0    00000040     libedma_xwr18xx.ae674 : edma_low_level.oe674 (.text:EDMA3MapQdmaChToPaRAM)
                  0080dde0    00000040                           : edma_low_level.oe674 (.text:EDMA3SetPaRAM)
                  0080de20    00000040                           : edma_low_level.oe674 (.text:EDMA3SetQdmaTrigWord)
                  0080de60    00000040     libosal_xwr18xx.ae674 : HwiP_tirtos.oe674 (.text:HwiP_create)
                  0080dea0    00000040                           : HwiP_tirtos.oe674 (.text:HwiP_delete)
                  0080dee0    00000040     libtestlogger_xwr18xx.ae674 : logger.oe674 (.text:MCPI_Initialize)
                  0080df20    00000040     libmailbox_xwr18xx.ae674 : mailbox.oe674 (.text:Mailbox_boxEmptyISRBss)
                  0080df60    00000040                              : mailbox.oe674 (.text:Mailbox_boxEmptyISRMssDss)
                  0080dfa0    00000040                              : mailbox.oe674 (.text:Mailbox_boxFullISRBss)
                  0080dfe0    00000040     link_test.oe674 (.text:MmwaveLink_disableDevice)
                  0080e020    00000040     link_test_monitoring.oe674 (.text:MmwaveLink_monAdvancedTest)
                  0080e060    00000040     link_test.oe674 (.text:MmwaveLink_spawn)
                  0080e0a0    00000040     rts6740_elf.lib : frcmpyd_div.c.obj (.text:__TI_frcmpyd_div)
                  0080e0e0    00000040                     : isinf.c.obj (.text:__c6xabi_isinf)
                  0080e120    00000040                     : _printfi.c.obj (.text:__c6xabi_isnan)
                  0080e160    00000040                     : strasg.asm.obj (.text:__strasgi_64plus)
                  0080e1a0    00000040                     : args_main.c.obj (.text:_args_main)
                  0080e1e0    00000040                     : snprintf.c.obj (.text:_outc)
                  0080e220    00000040     sysbios.ae674 : c62_TaskSupport_asm.obj (.text:_ti_sysbios_family_c62_TaskSupport_buildTaskStack)
                  0080e260    00000040     dss_pe674.oe674 (.text:free)
                  0080e2a0    00000040     libmmwavelink_xwr18xx.ae674 : rl_controller.oe674 (.text:rlAppendDummy)
                  0080e2e0    00000040                                 : rl_device.oe674 (.text:rlDeviceGetRfVersion)
                  0080e320    00000040                                 : rl_driver.oe674 (.text:rlDriverConfigureAckTimeout)
                  0080e360    00000040                                 : rl_driver.oe674 (.text:rlDriverFillPayload)
                  0080e3a0    00000040                                 : rl_sensor.oe674 (.text:rlGetRfBootupStatus)
                  0080e3e0    00000040                                 : rl_sensor.oe674 (.text:rlGetRfDieId)
                  0080e420    00000040                                 : rl_sensor.oe674 (.text:rlRfInit)
                  0080e460    00000040     dss_pe674.oe674 (.text:ti_sysbios_BIOS_exitFunc__I)
                  0080e4a0    00000040     dss_pe674.oe674 (.text:ti_sysbios_BIOS_rtsLock__I)
                  0080e4e0    00000040     dss_pe674.oe674 (.text:ti_sysbios_BIOS_rtsUnlock__I)
                  0080e520    00000040     sysbios.ae674 : BIOS.obj (.text:ti_sysbios_family_c64p_Hwi_disableInterrupt__E)
                  0080e560    00000040                   : BIOS.obj (.text:ti_sysbios_family_c64p_Hwi_enableInterrupt__E)
                  0080e5a0    00000040     dss_pe674.oe674 (.text:ti_sysbios_gates_GateHwi_Handle__label__S)
                  0080e5e0    00000040     dss_pe674.oe674 (.text:ti_sysbios_gates_GateHwi_Object__delete__S)
                  0080e620    00000040     dss_pe674.oe674 (.text:ti_sysbios_gates_GateMutex_Handle__label__S)
                  0080e660    00000040     sysbios.ae674 : BIOS.obj (.text:ti_sysbios_gates_GateMutex_Instance_init__E)
                  0080e6a0    00000040                   : BIOS.obj (.text:ti_sysbios_gates_GateMutex_leave__E)
                  0080e6e0    00000040     dss_pe674.oe674 (.text:ti_sysbios_heaps_HeapMem_Handle__label__S)
                  0080e720    00000040     dss_pe674.oe674 (.text:ti_sysbios_heaps_HeapMem_Object__delete__S)
                  0080e760    00000040     dss_pe674.oe674 (.text:ti_sysbios_heaps_HeapMem_Object__get__S)
                  0080e7a0    00000040     dss_pe674.oe674 (.text:ti_sysbios_knl_Semaphore_destruct)
                  0080e7e0    00000040     dss_pe674.oe674 (.text:ti_sysbios_knl_Swi_Object__get__S)
                  0080e820    00000040     dss_pe674.oe674 (.text:ti_sysbios_knl_Task_Object__get__S)
                  0080e860    00000040     sysbios.ae674 : BIOS.obj (.text:ti_sysbios_knl_Task_sleepTimeout__I)
                  0080e8a0    00000040                   : BIOS.obj (.text:ti_sysbios_timers_rti_Timer_periodicStub__E)
                  0080e8e0    00000040     rts6740_elf.lib : wcslen.c.obj (.text:wcslen)
                  0080e920    00000040     ti.targets.rts6000.ae674 : Error.oe674 (.text:xdc_runtime_Error_check__E)
                  0080e960    00000040                              : Error.oe674 (.text:xdc_runtime_Error_init__E)
                  0080e9a0    00000040                              : Registry.oe674 (.text:xdc_runtime_Registry_findById__E)
                  0080e9e0    00000040                              : System.oe674 (.text:xdc_runtime_System_abort__E)
                  0080ea20    00000040     dss_pe674.oe674 (.text:xdc_runtime_System_aprintf__E)
                  0080ea60    00000040     ti.targets.rts6000.ae674 : System.oe674 (.text:xdc_runtime_System_exit__E)
                  0080eaa0    00000040     dss_pe674.oe674 (.text:xdc_runtime_System_printf__E)
                  0080eae0    00000020     libadcbuf_xwr18xx.ae674 : adcbuf_mmwave.oe674 (.text:ADCBUF_MMWave_init)
                  0080eb00    00000020                             : ADCBuf.oe674 (.text:ADCBuf_Params_init)
                  0080eb20    00000020                             : ADCBuf.oe674 (.text:ADCBuf_control)
                  0080eb40    00000020     libcrc_xwr18xx.ae674 : crc.oe674 (.text:CRC_initConfigParams)
                  0080eb60    00000020     libedma_xwr18xx.ae674 : edma_low_level.oe674 (.text:EDMA3ChannelToParamMap)
                  0080eb80    00000020                           : edma_low_level.oe674 (.text:EDMA3ClrCCErr)
                  0080eba0    00000020                           : edma_low_level.oe674 (.text:EDMA3DisableQdmaEvt)
                  0080ebc0    00000020                           : edma_low_level.oe674 (.text:EDMA3EnableQdmaEvt)
                  0080ebe0    00000020                           : edma_low_level.oe674 (.text:EDMA3ErrIntrHighStatusGet)
                  0080ec00    00000020                           : edma_low_level.oe674 (.text:EDMA3GetCCErrStatus)
                  0080ec20    00000020                           : edma_low_level.oe674 (.text:EDMA3GetErrIntrStatus)
                  0080ec40    00000020                           : edma_low_level.oe674 (.text:EDMA3GetIntrStatus)
                  0080ec60    00000020                           : edma_low_level.oe674 (.text:EDMA3IntrStatusHighGet)
                  0080ec80    00000020                           : edma_low_level.oe674 (.text:EDMA3QdmaClrMissEvt)
                  0080eca0    00000020                           : edma_low_level.oe674 (.text:EDMA3QdmaGetErrIntrStatus)
                  0080ecc0    00000020                           : edma_low_level.oe674 (.text:EDMAsetRegion)
                  0080ece0    00000020     libosal_xwr18xx.ae674 : HwiP_tirtos.oe674 (.text:HwiP_Params_init)
                  0080ed00    00000020                           : HwiP_tirtos.oe674 (.text:HwiP_disable)
                  0080ed20    00000020                           : HwiP_tirtos.oe674 (.text:HwiP_disableInterrupt)
                  0080ed40    00000020                           : HwiP_tirtos.oe674 (.text:HwiP_enableInterrupt)
                  0080ed60    00000020                           : HwiP_tirtos.oe674 (.text:HwiP_restore)
                  0080ed80    00000020     libtestlogger_xwr18xx.ae674 : logger.oe674 (.text:MCPI_setTestResult)
                  0080eda0    00000020     libosal_xwr18xx.ae674 : MemoryP_tirtos.oe674 (.text:MemoryP_ctrlAlloc)
                  0080edc0    00000020                           : MemoryP_tirtos.oe674 (.text:MemoryP_ctrlFree)
                  0080ede0    00000020     link_test.oe674 (.text:MmwaveLink_enableDevice)
                  0080ee00    00000020     link_test.oe674 (.text:MmwaveLink_maskHostIRQ)
                  0080ee20    00000020     link_test.oe674 (.text:MmwaveLink_mboxCallbackFxn)
                  0080ee40    00000020     link_test.oe674 (.text:MmwaveLink_registerInterruptHandler)
                  0080ee60    00000020     link_test.oe674 (.text:MmwaveLink_transferCompletionCallbackFxn)
                  0080ee80    00000020     link_test.oe674 (.text:MmwaveLink_triggerEdmaTransfer)
                  0080eea0    00000020     link_test.oe674 (.text:MmwaveLink_unmaskHostIRQ)
                  0080eec0    00000020     osi_tirtos.oe674 (.text:Osal_mutexDelete)
                  0080eee0    00000020     osi_tirtos.oe674 (.text:Osal_mutexLock)
                  0080ef00    00000020     osi_tirtos.oe674 (.text:Osal_mutexUnlock)
                  0080ef20    00000020     osi_tirtos.oe674 (.text:Osal_semDelete)
                  0080ef40    00000020     osi_tirtos.oe674 (.text:Osal_semSignal)
                  0080ef60    00000020     osi_tirtos.oe674 (.text:Osal_semWait)
                  0080ef80    00000020     libsoc_xwr18xx.ae674 : soc_xwr18xx.oe674 (.text:SOC_gateClock)
                  0080efa0    00000020                          : soc_xwr18xx.oe674 (.text:SOC_ungateClock)
                  0080efc0    00000020     libosal_xwr18xx.ae674 : SemaphoreP_tirtos.oe674 (.text:SemaphoreP_Params_init)
                  0080efe0    00000020                           : SemaphoreP_tirtos.oe674 (.text:SemaphoreP_delete)
                  0080f000    00000020                           : SemaphoreP_tirtos.oe674 (.text:SemaphoreP_pend)
                  0080f020    00000020                           : SemaphoreP_tirtos.oe674 (.text:SemaphoreP_post)
                  0080f040    00000020                           : DebugP_tirtos.oe674 (.text:_DebugP_assert)
                  0080f060    00000020     rts6740_elf.lib : errno.c.obj (.text:__c6xabi_errno_addr)
                  0080f080    00000020                     : push.asm.obj (.text:__pop_rts)
                  0080f0a0    00000020                     : push.asm.obj (.text:__push_rts)
                  0080f0c0    00000020                     : _lock.c.obj (.text:_nop)
                  0080f0e0    00000020                     : printf.c.obj (.text:_outc)
                  0080f100    00000020                     : printf.c.obj (.text:_outs)
                  0080f120    00000020                     : _lock.c.obj (.text:_register_lock)
                  0080f140    00000020                     : _lock.c.obj (.text:_register_unlock)
                  0080f160    00000020                     : signbit.c.obj (.text:_signbit)
                  0080f180    00000020     sysbios.ae674 : c62_TaskSupport_asm.obj (.text:_ti_sysbios_family_c62_TaskSupport_glue)
                  0080f1a0    00000020     rts6740_elf.lib : exit.c.obj (.text:abort)
                  0080f1c0    00000020                     : fputc.c.obj (.text:putchar)
                  0080f1e0    00000020     libmmwavelink_xwr18xx.ae674 : rl_driver.oe674 (.text:rlDriverConstructOutMsg)
                  0080f200    00000020                                 : rl_driver.oe674 (.text:rlDriverGetHandle)
                  0080f220    00000020                                 : rl_driver.oe674 (.text:rlDriverGetPlatformId)
                  0080f240    00000020                                 : rl_driver.oe674 (.text:rlDriverIsDeviceMapValid)
                  0080f260    00000020                                 : rl_controller.oe674 (.text:rlGetSubBlockId)
                  0080f280    00000020                                 : rl_controller.oe674 (.text:rlGetSubBlockLen)
                  0080f2a0    00000020     dss_pe674.oe674 (.text:ti_sysbios_BIOS_RtsGateProxy_enter__E)
                  0080f2c0    00000020     dss_pe674.oe674 (.text:ti_sysbios_BIOS_RtsGateProxy_leave__E)
                  0080f2e0    00000020     sysbios.ae674 : BIOS.obj (.text:ti_sysbios_BIOS_exit__E)
                  0080f300    00000020                   : BIOS.obj (.text:ti_sysbios_BIOS_linkedWithIncorrectBootLibrary__E)
                  0080f320    00000020     dss_pe674.oe674 (.text:ti_sysbios_BIOS_nullFunc__I)
                  0080f340    00000020     sysbios.ae674 : BIOS.obj (.text:ti_sysbios_BIOS_setThreadType__E)
                  0080f360    00000020                   : BIOS.obj (.text:ti_sysbios_BIOS_start__E)
                  0080f380    00000020     dss_pe674.oe674 (.text:ti_sysbios_family_c62_TaskSupport_Module__startupDone__S)
                  0080f3a0    00000020     sysbios.ae674 : BIOS.obj (.text:ti_sysbios_family_c62_TaskSupport_checkStack__E)
                  0080f3c0    00000020                   : BIOS.obj (.text:ti_sysbios_family_c62_TaskSupport_getStackAlignment__E)
                  0080f3e0    00000020                   : BIOS.obj (.text:ti_sysbios_family_c64p_Cache_wbInv__E)
                  0080f400    00000020     dss_pe674.oe674 (.text:ti_sysbios_family_c64p_Hwi_Module__startupDone__F)
                  0080f420    00000020     dss_pe674.oe674 (.text:ti_sysbios_family_c64p_Hwi_Params__init__S)
                  0080f440    00000020     sysbios.ae674 : BIOS.obj (.text:ti_sysbios_family_c64p_Hwi_clearInterrupt__E)
                  0080f460    00000020                   : BIOS.obj (.text:ti_sysbios_family_c64p_Hwi_startup__E)
                  0080f480    00000020                   : BIOS.obj (.text:ti_sysbios_family_c64p_Hwi_switchFromBootStack__E)
                  0080f4a0    00000020                   : BIOS.obj (.text:ti_sysbios_family_c64p_Hwi_unPluggedInterrupt__I)
                  0080f4c0    00000020                   : BIOS.obj (.text:ti_sysbios_gates_GateHwi_Instance_init__E)
                  0080f4e0    00000020                   : BIOS.obj (.text:ti_sysbios_gates_GateHwi_enter__E)
                  0080f500    00000020                   : BIOS.obj (.text:ti_sysbios_gates_GateHwi_leave__E)
                  0080f520    00000020                   : BIOS.obj (.text:ti_sysbios_gates_GateHwi_query__E)
                  0080f540    00000020                   : BIOS.obj (.text:ti_sysbios_gates_GateMutex_Instance_finalize__E)
                  0080f560    00000020                   : BIOS.obj (.text:ti_sysbios_gates_GateMutex_query__E)
                  0080f580    00000020                   : BIOS.obj (.text:ti_sysbios_hal_Hwi_Module_startup__E)
                  0080f5a0    00000020     dss_pe674.oe674 (.text:ti_sysbios_heaps_HeapBuf_Object__get__S)
                  0080f5c0    00000020     dss_pe674.oe674 (.text:ti_sysbios_heaps_HeapMem_Module_GateProxy_enter__E)
                  0080f5e0    00000020     dss_pe674.oe674 (.text:ti_sysbios_heaps_HeapMem_Module_GateProxy_leave__E)
                  0080f600    00000020     sysbios.ae674 : BIOS.obj (.text:ti_sysbios_heaps_HeapMem_isBlocking__E)
                  0080f620    00000020     dss_pe674.oe674 (.text:ti_sysbios_knl_Clock_TimerProxy_getMaxTicks__E)
                  0080f640    00000020     sysbios.ae674 : BIOS.obj (.text:ti_sysbios_knl_Idle_loop__E)
                  0080f660    00000020                   : BIOS.obj (.text:ti_sysbios_knl_Queue_Instance_init__E)
                  0080f680    00000020     dss_pe674.oe674 (.text:ti_sysbios_knl_Queue_Object__get__S)
                  0080f6a0    00000020     dss_pe674.oe674 (.text:ti_sysbios_knl_Queue_destruct)
                  0080f6c0    00000020     sysbios.ae674 : BIOS.obj (.text:ti_sysbios_knl_Queue_empty__E)
                  0080f6e0    00000020                   : BIOS.obj (.text:ti_sysbios_knl_Semaphore_Instance_finalize__E)
                  0080f700    00000020     dss_pe674.oe674 (.text:ti_sysbios_knl_Semaphore_Params__init__S)
                  0080f720    00000020     dss_pe674.oe674 (.text:ti_sysbios_knl_Semaphore_delete)
                  0080f740    00000020     sysbios.ae674 : BIOS.obj (.text:ti_sysbios_knl_Swi_disable__E)
                  0080f760    00000020     dss_pe674.oe674 (.text:ti_sysbios_knl_Task_Params__init__S)
                  0080f780    00000020     sysbios.ae674 : BIOS.obj (.text:ti_sysbios_knl_Task_disable__E)
                  0080f7a0    00000020                   : BIOS.obj (.text:ti_sysbios_knl_Task_startup__E)
                  0080f7c0    00000020     dss_pe674.oe674 (.text:ti_sysbios_timers_rti_Timer_Module__startupDone__F)
                  0080f7e0    00000020     sysbios.ae674 : BIOS.obj (.text:ti_sysbios_timers_rti_Timer_getMaxTicks__E)
                  0080f800    00000020     ti.targets.rts6000.ae674 : Error.oe674 (.text:xdc_runtime_Error_getSite__E)
                  0080f820    00000020                              : Error.oe674 (.text:xdc_runtime_Error_raiseX__E)
                  0080f840    00000020                              : Gate.oe674 (.text:xdc_runtime_Gate_enterSystem__E)
                  0080f860    00000020                              : Gate.oe674 (.text:xdc_runtime_Gate_leaveSystem__E)
                  0080f880    00000020     dss_pe674.oe674 (.text:xdc_runtime_IHeap_alloc)
                  0080f8a0    00000020     dss_pe674.oe674 (.text:xdc_runtime_IHeap_free)
                  0080f8c0    00000020     ti.targets.rts6000.ae674 : Memory.oe674 (.text:xdc_runtime_Memory_calloc__E)
                  0080f8e0    00000020                              : Memory.oe674 (.text:xdc_runtime_Memory_free__E)
                  0080f900    00000020                              : Memory.oe674 (.text:xdc_runtime_Memory_getMaxDefaultTypeAlign__E)
                  0080f920    00000020     dss_pe674.oe674 (.text:xdc_runtime_Startup_exec__I)
                  0080f940    00000020     dss_pe674.oe674 (.text:xdc_runtime_Startup_reset__I)
                  0080f960    00000020     ti.targets.rts6000.ae674 : Startup.oe674 (.text:xdc_runtime_Startup_rtsDone__E)
                  0080f980    00000020                              : SysStd.oe674 (.text:xdc_runtime_SysStd_exit__E)
                  0080f9a0    00000020                              : SysStd.oe674 (.text:xdc_runtime_SysStd_putch__E)
                  0080f9c0    00000020                              : SysStd.oe674 (.text:xdc_runtime_SysStd_ready__E)
                  0080f9e0    00000020     dss_pe674.oe674 (.text:xdc_runtime_System_Module_GateProxy_enter__E)
                  0080fa00    00000020     dss_pe674.oe674 (.text:xdc_runtime_System_Module_GateProxy_leave__E)
                  0080fa20    00000020     ti.targets.rts6000.ae674 : System.oe674 (.text:xdc_runtime_System_Module_startup__E)
                  0080fa40    00000020                              : System.oe674 (.text:xdc_runtime_System_vsnprintf__E)
                  0080fa60    00000020                              : Text.oe674 (.text:xdc_runtime_Text_ropeText__E)
                  0080fa80    00000020     dss_pe674.oe674 (.text:xdc_runtime_Text_visitRope__I)

.const     0    0080faa0    00008a5e     
                  0080faa0    000022c8     link_test_monitoring.oe674 (.const:.string)
                  00811d68    00001b68     link_test.oe674 (.const:.string)
                  008138d0    000019be     dss_pe674.oe674 (.const:xdc_runtime_Text_charTab__A)
                  0081528e    00000002     dss_pe674.oe674 (.const:ti_sysbios_family_c64p_Cache_Module__id__C)
                  00815290    000009fc     mmwavelink_test_common.oe674 (.const:.string)
                  00815c8c    00000004     link_test.oe674 (.const:$P$T11$12)
                  00815c90    000007a8     link_testcase_config.oe674 (.const:dynChirpCfg)
                  00816438    00000518     sysbios.ae674 : BIOS.obj (.const:.string)
                  00816950    00000200     main_dss.oe674 (.const:.string)
                  00816b50    00000101     rts6740_elf.lib : ctype.c.obj (.const:.string:_ctypes_)
                  00816c51    00000001     --HOLE-- [fill = 0]
                  00816c52    00000004     libmmwavelink_xwr18xx.ae674 : rl_sensor.oe674 (.const:$P$T46$47)
                  00816c56    00000002     dss_pe674.oe674 (.const:ti_sysbios_family_c64p_EventCombiner_Module__id__C)
                  00816c58    00000100     libmmwavelink_xwr18xx.ae674 : rl_monitoring.oe674 (.const:$P$T1$2)
                  00816d58    00000100                                 : rl_monitoring.oe674 (.const:$P$T3$4)
                  00816e58    00000100                                 : rl_monitoring.oe674 (.const:$P$T5$6)
                  00816f58    00000100                                 : rl_monitoring.oe674 (.const:$P$T7$8)
                  00817058    000000d0     link_testcase_config.oe674 (.const:progFiltCoef)
                  00817128    000000c8     dss_pe674.oe674 (.const:xdc_runtime_Text_nodeTab__A)
                  008171f0    000000c0     link_test.oe674 (.const:$P$T12$13)
                  008172b0    000000b8     link_test.oe674 (.const:$P$T6$7)
                  00817368    000000b0     link_testcase_config.oe674 (.const:profileCfg)
                  00817418    00000094     libtestlogger_xwr18xx.ae674 : logger.oe674 (.const:.string)
                  008174ac    00000074     dss_pe674.oe674 (.const:.string)
                  00817520    0000006c     libmmwavelink_xwr18xx.ae674 : rl_driver.oe674 (.const:.string)
                  0081758c    00000058     libedma_xwr18xx.ae674 : edma.oe674 (.const:.string)
                  008175e4    00000058     ti.targets.rts6000.ae674 : Error.oe674 (.const:.string)
                  0081763c    0000004c     libmailbox_xwr18xx.ae674 : mailbox.oe674 (.const:.string)
                  00817688    00000044     link_testcase_config.oe674 (.const:rxGainPhaseMonCfg)
                  008176cc    00000044     link_testcase_config.oe674 (.const:testSourceCfg)
                  00817710    00000044     dss_pe674.oe674 (.const:ti_sysbios_knl_Task_Object__PARAMS__C)
                  00817754    00000040     ti.targets.rts6000.ae674 : Text.oe674 (.const:.string)
                  00817794    0000003c     libsoc_xwr18xx.ae674 : soc_xwr18xx_dss.oe674 (.const:.string)
                  008177d0    00000038     libedma_xwr18xx.ae674 : edma_xwr1xxx.oe674 (.const:gEdmaHwAttrs)
                  00817808    00000034     link_testcase_config.oe674 (.const:txGainPhMisMatchMonCfg)
                  0081783c    00000030     dss_pe674.oe674 (.const:ti_sysbios_family_c64p_Hwi_Object__PARAMS__C)
                  0081786c    0000002c     link_test.oe674 (.const:$P$T1$2)
                  00817898    0000002c     link_test.oe674 (.const:$P$T4$5)
                  008178c4    0000002c     ti.targets.rts6000.ae674 : Startup.oe674 (.const:.string)
                  008178f0    0000002c     dss_pe674.oe674 (.const:xdc_runtime_Startup_sfxnTab__A)
                  0081791c    00000004     libmmwavelink_xwr18xx.ae674 : rl_sensor.oe674 (.const:$P$T55$56)
                  00817920    00000028     link_testcase_config.oe674 (.const:chirpCfg)
                  00817948    00000028     dss_pe674.oe674 (.const:ti_sysbios_heaps_HeapMem_Module__FXNS__C)
                  00817970    00000024     rts6740_elf.lib : _printfi.c.obj (.const:.string)
                  00817994    00000024     libmailbox_xwr18xx.ae674 : mailbox.oe674 (.const:Mailbox_defaultCfg)
                  008179b8    00000024     dss_pe674.oe674 (.const:ti_sysbios_gates_GateHwi_Module__FXNS__C)
                  008179dc    00000024     dss_pe674.oe674 (.const:ti_sysbios_gates_GateMutex_Module__FXNS__C)
                  00817a00    00000024     dss_pe674.oe674 (.const:ti_sysbios_heaps_HeapMem_Object__PARAMS__C)
                  00817a24    00000024     dss_pe674.oe674 (.const:ti_sysbios_knl_Semaphore_Object__PARAMS__C)
                  00817a48    00000020     link_test.oe674 (.const:$P$T8$9)
                  00817a68    00000020     libosal_xwr18xx.ae674 : SemaphoreP_tirtos.oe674 (.const:.string)
                  00817a88    00000020     link_testcase_config.oe674 (.const:extAnaSigMonCfg)
                  00817aa8    00000020     dss_pe674.oe674 (.const:ti_sysbios_family_c64p_Hwi_Object__DESC__C)
                  00817ac8    00000020     dss_pe674.oe674 (.const:ti_sysbios_gates_GateHwi_Object__DESC__C)
                  00817ae8    00000020     dss_pe674.oe674 (.const:ti_sysbios_gates_GateMutex_Object__DESC__C)
                  00817b08    00000020     dss_pe674.oe674 (.const:ti_sysbios_heaps_HeapMem_Object__DESC__C)
                  00817b28    00000020     dss_pe674.oe674 (.const:ti_sysbios_knl_Queue_Object__DESC__C)
                  00817b48    00000020     dss_pe674.oe674 (.const:ti_sysbios_knl_Semaphore_Object__DESC__C)
                  00817b68    00000020     dss_pe674.oe674 (.const:ti_sysbios_knl_Task_Object__DESC__C)
                  00817b88    0000001c     libosal_xwr18xx.ae674 : HwiP_tirtos.oe674 (.const:.string)
                  00817ba4    0000001c     link_testcase_config.oe674 (.const:gpAdcCfg)
                  00817bc0    00000018     link_test.oe674 (.const:$P$T5$6)
                  00817bd8    00000018     link_test.oe674 (.const:$P$T7$8)
                  00817bf0    00000018     ti.targets.rts6000.ae674 : System.oe674 (.const:.string)
                  00817c08    00000018     link_testcase_config.oe674 (.const:bpmChirpCfg)
                  00817c20    00000018     link_testcase_config.oe674 (.const:interRxGainPhCfg)
                  00817c38    00000018     link_testcase_config.oe674 (.const:synthFreqNonLiveMonCfg)
                  00817c50    00000018     dss_pe674.oe674 (.const:ti_sysbios_gates_GateHwi_Object__PARAMS__C)
                  00817c68    00000018     dss_pe674.oe674 (.const:ti_sysbios_gates_GateMutex_Object__PARAMS__C)
                  00817c80    00000018     dss_pe674.oe674 (.const:ti_sysbios_knl_Queue_Object__PARAMS__C)
                  00817c98    00000016     dss_pe674.oe674 (.const:xdc_runtime_Startup_sfxnRts__A)
                  00817cae    00000002     dss_pe674.oe674 (.const:ti_sysbios_family_c64p_Exception_Module__id__C)
                  00817cb0    00000014     libadcbuf_xwr18xx.ae674 : adcbuf_mmwave.oe674 (.const:.string)
                  00817cc4    00000014     link_testcase_config.oe674 (.const:contModeCfg)
                  00817cd8    00000014     libadcbuf_xwr18xx.ae674 : adcbuf_mmwave.oe674 (.const:gADCBufFxnTable)
                  00817cec    00000014     link_testcase_config.oe674 (.const:runTimeCalib)
                  00817d00    00000014     link_testcase_config.oe674 (.const:rxSatMonCfg)
                  00817d14    00000014     link_testcase_config.oe674 (.const:tempMonCfg)
                  00817d28    00000010     libmmwavelink_xwr18xx.ae674 : rl_driver.oe674 (.const:$P$T0$1)
                  00817d38    00000010                                 : rl_monitoring.oe674 (.const:$P$T0$1)
                  00817d48    00000010                                 : rl_sensor.oe674 (.const:$P$T0$1)
                  00817d58    00000010     link_test.oe674 (.const:$P$T0$1)
                  00817d68    00000010     libmmwavelink_xwr18xx.ae674 : rl_driver.oe674 (.const:$P$T1$2)
                  00817d78    00000010                                 : rl_sensor.oe674 (.const:$P$T1$2)
                  00817d88    00000010                                 : rl_driver.oe674 (.const:$P$T10$11)
                  00817d98    00000010                                 : rl_sensor.oe674 (.const:$P$T11$12)
                  00817da8    00000010                                 : rl_sensor.oe674 (.const:$P$T12$13)
                  00817db8    00000010                                 : rl_sensor.oe674 (.const:$P$T13$14)
                  00817dc8    00000010     link_test.oe674 (.const:$P$T13$14)
                  00817dd8    00000010     libmmwavelink_xwr18xx.ae674 : rl_sensor.oe674 (.const:$P$T15$16)
                  00817de8    00000010                                 : rl_sensor.oe674 (.const:$P$T16$17)
                  00817df8    00000010                                 : rl_monitoring.oe674 (.const:$P$T2$3)
                  00817e08    00000010                                 : rl_sensor.oe674 (.const:$P$T2$3)
                  00817e18    00000010                                 : rl_sensor.oe674 (.const:$P$T20$21)
                  00817e28    00000010                                 : rl_sensor.oe674 (.const:$P$T21$22)
                  00817e38    00000010                                 : rl_sensor.oe674 (.const:$P$T23$24)
                  00817e48    00000010                                 : rl_sensor.oe674 (.const:$P$T24$25)
                  00817e58    00000010                                 : rl_sensor.oe674 (.const:$P$T27$28)
                  00817e68    00000010                                 : rl_sensor.oe674 (.const:$P$T28$29)
                  00817e78    00000010                                 : rl_sensor.oe674 (.const:$P$T29$30)
                  00817e88    00000010                                 : rl_driver.oe674 (.const:$P$T3$4)
                  00817e98    00000010                                 : rl_sensor.oe674 (.const:$P$T3$4)
                  00817ea8    00000010                                 : rl_sensor.oe674 (.const:$P$T32$33)
                  00817eb8    00000010                                 : rl_sensor.oe674 (.const:$P$T33$34)
                  00817ec8    00000010                                 : rl_sensor.oe674 (.const:$P$T36$37)
                  00817ed8    00000010                                 : rl_sensor.oe674 (.const:$P$T37$38)
                  00817ee8    00000010                                 : rl_sensor.oe674 (.const:$P$T38$39)
                  00817ef8    00000010                                 : rl_sensor.oe674 (.const:$P$T39$40)
                  00817f08    00000010                                 : rl_monitoring.oe674 (.const:$P$T4$5)
                  00817f18    00000010                                 : rl_sensor.oe674 (.const:$P$T4$5)
                  00817f28    00000010                                 : rl_sensor.oe674 (.const:$P$T42$43)
                  00817f38    00000010                                 : rl_sensor.oe674 (.const:$P$T43$44)
                  00817f48    00000010                                 : rl_sensor.oe674 (.const:$P$T47$48)
                  00817f58    00000010                                 : rl_sensor.oe674 (.const:$P$T48$49)
                  00817f68    00000010                                 : rl_driver.oe674 (.const:$P$T5$6)
                  00817f78    00000010                                 : rl_sensor.oe674 (.const:$P$T51$52)
                  00817f88    00000010                                 : rl_sensor.oe674 (.const:$P$T52$53)
                  00817f98    00000010                                 : rl_driver.oe674 (.const:$P$T6$7)
                  00817fa8    00000010                                 : rl_monitoring.oe674 (.const:$P$T6$7)
                  00817fb8    00000010                                 : rl_sensor.oe674 (.const:$P$T7$8)
                  00817fc8    00000010                                 : rl_sensor.oe674 (.const:$P$T8$9)
                  00817fd8    00000010                                 : rl_driver.oe674 (.const:$P$T9$10)
                  00817fe8    00000010                                 : rl_sensor.oe674 (.const:$P$T9$10)
                  00817ff8    00000010     libadcbuf_xwr18xx.ae674 : ADCBuf.oe674 (.const:ADCBuf_defaultParams)
                  00818008    00000010     libedma_xwr18xx.ae674 : edma.oe674 (.const:EDMA_config$1)
                  00818018    00000010     link_testcase_config.oe674 (.const:bpmCommonCfg)
                  00818028    00000010     libadcbuf_xwr18xx.ae674 : adcbuf_xwr1xxx.oe674 (.const:gADCBufHwCfg)
                  00818038    00000010     link_testcase_config.oe674 (.const:monRxIfStageCfg)
                  00818048    00000010     link_testcase_config.oe674 (.const:phaseShiftCfg)
                  00818058    00000010     dss_pe674.oe674 (.const:ti_sysbios_family_c64p_EventCombiner_EVTMASK__C)
                  00818068    0000000c     link_test_monitoring.oe674 (.const:$P$T1$2)
                  00818074    0000000c     link_test_monitoring.oe674 (.const:$P$T2$3)
                  00818080    0000000c     link_test_monitoring.oe674 (.const:$P$T4$5)
                  0081808c    0000000c     libcrc_xwr18xx.ae674 : crc.oe674 (.const:.string)
                  00818098    0000000c     link_testcase_config.oe674 (.const:allTxBallbreakMonCfg)
                  008180a4    0000000c     link_testcase_config.oe674 (.const:allTxBpmMonCfg)
                  008180b0    0000000c     link_testcase_config.oe674 (.const:allTxPowMonCfg)
                  008180bc    0000000c     link_testcase_config.oe674 (.const:allTxanaSigMonCfg)
                  008180c8    0000000c     link_testcase_config.oe674 (.const:freqLimit)
                  008180d4    0000000c     link_testcase_config.oe674 (.const:rxMixInpwrMonCfg)
                  008180e0    0000000c     link_testcase_config.oe674 (.const:rxNoiseMonCfg)
                  008180ec    0000000c     link_testcase_config.oe674 (.const:sigImgMonCfg)
                  008180f8    0000000c     link_testcase_config.oe674 (.const:synthFreqMonCfg)
                  00818104    00000008     libmmwavelink_xwr18xx.ae674 : rl_sensor.oe674 (.const:$P$T10$11)
                  0081810c    00000008     link_test.oe674 (.const:$P$T10$11)
                  00818114    00000008     libmmwavelink_xwr18xx.ae674 : rl_sensor.oe674 (.const:$P$T14$15)
                  0081811c    00000008                                 : rl_sensor.oe674 (.const:$P$T17$18)
                  00818124    00000008                                 : rl_sensor.oe674 (.const:$P$T18$19)
                  0081812c    00000008                                 : rl_sensor.oe674 (.const:$P$T19$20)
                  00818134    00000008                                 : rl_sensor.oe674 (.const:$P$T22$23)
                  0081813c    00000008                                 : rl_sensor.oe674 (.const:$P$T25$26)
                  00818144    00000008                                 : rl_sensor.oe674 (.const:$P$T26$27)
                  0081814c    00000008                                 : rl_sensor.oe674 (.const:$P$T30$31)
                  00818154    00000008                                 : rl_sensor.oe674 (.const:$P$T31$32)
                  0081815c    00000008                                 : rl_sensor.oe674 (.const:$P$T34$35)
                  00818164    00000008                                 : rl_sensor.oe674 (.const:$P$T35$36)
                  0081816c    00000008                                 : rl_sensor.oe674 (.const:$P$T40$41)
                  00818174    00000008                                 : rl_sensor.oe674 (.const:$P$T41$42)
                  0081817c    00000008                                 : rl_sensor.oe674 (.const:$P$T44$45)
                  00818184    00000008                                 : rl_sensor.oe674 (.const:$P$T45$46)
                  0081818c    00000008                                 : rl_sensor.oe674 (.const:$P$T49$50)
                  00818194    00000008                                 : rl_sensor.oe674 (.const:$P$T5$6)
                  0081819c    00000008                                 : rl_sensor.oe674 (.const:$P$T50$51)
                  008181a4    00000008                                 : rl_sensor.oe674 (.const:$P$T53$54)
                  008181ac    00000008                                 : rl_sensor.oe674 (.const:$P$T54$55)
                  008181b4    00000008                                 : rl_sensor.oe674 (.const:$P$T6$7)
                  008181bc    00000008     link_testcase_config.oe674 (.const:adcOutCfgArgs)
                  008181c4    00000008     link_testcase_config.oe674 (.const:calMonTimeUnitConf)
                  008181cc    00000008     link_testcase_config.oe674 (.const:chCfg)
                  008181d4    00000008     link_testcase_config.oe674 (.const:dualClkCompMonCfg)
                  008181dc    00000008     link_testcase_config.oe674 (.const:gpadcIntAnaSigMonCfg)
                  008181e4    00000008     link_testcase_config.oe674 (.const:miscCfg)
                  008181ec    00000008     link_testcase_config.oe674 (.const:pllConVoltMonCfg)
                  008181f4    00000008     link_testcase_config.oe674 (.const:pmClkLoIntAnaSigMonCfg)
                  008181fc    00000008     dss_pe674.oe674 (.const:ti_sysbios_knl_Idle_funcList__C)
                  00818204    00000004     link_test.oe674 (.const:$P$T9$10)
                  00818208    00000008     dss_pe674.oe674 (.const:xdc_runtime_Startup_firstFxns__A)
                  00818210    00000008     dss_pe674.oe674 (.const:xdc_runtime_Startup_firstFxns__C)
                  00818218    00000008     dss_pe674.oe674 (.const:xdc_runtime_Startup_lastFxns__C)
                  00818220    00000004     ti.targets.rts6000.ae674 : Assert.oe674 (.const:.string)
                  00818224    00000004     link_testcase_config.oe674 (.const:deviceHsiClk)
                  00818228    00000004     link_testcase_config.oe674 (.const:lowPowerModeCfg)
                  0081822c    00000004     link_testcase_config.oe674 (.const:progFiltCfg)
                  00818230    00000004     link_testcase_config.oe674 (.const:rfLdoBypassCfg)
                  00818234    00000004     link_testcase_config.oe674 (.const:rxGainTempLutReadCfg)
                  00818238    00000004     link_testcase_config.oe674 (.const:subFrameTrigCfg)
                  0081823c    00000004     link_testcase_config.oe674 (.const:testSourceEn)
                  00818240    00000004     dss_pe674.oe674 (.const:ti_sysbios_family_c62_TaskSupport_stackAlignment__C)
                  00818244    00000004     dss_pe674.oe674 (.const:ti_sysbios_family_c64p_Cache_EMIFA_BASE__C)
                  00818248    00000004     dss_pe674.oe674 (.const:ti_sysbios_family_c64p_Cache_EMIFA_CFG__C)
                  0081824c    00000004     dss_pe674.oe674 (.const:ti_sysbios_family_c64p_Cache_EMIFA_LENGTH__C)
                  00818250    00000004     dss_pe674.oe674 (.const:ti_sysbios_family_c64p_Cache_EMIFB_BASE__C)
                  00818254    00000004     dss_pe674.oe674 (.const:ti_sysbios_family_c64p_Cache_EMIFB_CFG__C)
                  00818258    00000004     dss_pe674.oe674 (.const:ti_sysbios_family_c64p_Cache_EMIFB_LENGTH__C)
                  0081825c    00000004     dss_pe674.oe674 (.const:ti_sysbios_family_c64p_Cache_EMIFC_BASE__C)
                  00818260    00000004     dss_pe674.oe674 (.const:ti_sysbios_family_c64p_Cache_EMIFC_CFG__C)
                  00818264    00000004     dss_pe674.oe674 (.const:ti_sysbios_family_c64p_Cache_EMIFC_LENGTH__C)
                  00818268    00000004     dss_pe674.oe674 (.const:ti_sysbios_family_c64p_Cache_E_invalidL1CacheSize__C)
                  0081826c    00000004     dss_pe674.oe674 (.const:ti_sysbios_family_c64p_Cache_E_invalidL2CacheSize__C)
                  00818270    00000004     dss_pe674.oe674 (.const:ti_sysbios_family_c64p_Cache_MAR0_31__C)
                  00818274    00000004     dss_pe674.oe674 (.const:ti_sysbios_family_c64p_Cache_MAR128_159__C)
                  00818278    00000004     dss_pe674.oe674 (.const:ti_sysbios_family_c64p_Cache_MAR160_191__C)
                  0081827c    00000004     dss_pe674.oe674 (.const:ti_sysbios_family_c64p_Cache_MAR192_223__C)
                  00818280    00000004     dss_pe674.oe674 (.const:ti_sysbios_family_c64p_Cache_MAR224_255__C)
                  00818284    00000004     dss_pe674.oe674 (.const:ti_sysbios_family_c64p_Cache_MAR32_63__C)
                  00818288    00000004     dss_pe674.oe674 (.const:ti_sysbios_family_c64p_Cache_MAR64_95__C)
                  0081828c    00000004     dss_pe674.oe674 (.const:ti_sysbios_family_c64p_Cache_MAR96_127__C)
                  00818290    00000004     dss_pe674.oe674 (.const:ti_sysbios_family_c64p_EventCombiner_A_invalidEventId__C)
                  00818294    00000004     dss_pe674.oe674 (.const:ti_sysbios_family_c64p_EventCombiner_EVTRegs__C)
                  00818298    00000004     dss_pe674.oe674 (.const:ti_sysbios_family_c64p_EventCombiner_E_unpluggedEvent__C)
                  0081829c    00000004     dss_pe674.oe674 (.const:ti_sysbios_family_c64p_EventCombiner_Module__diagsEnabled__C)
                  008182a0    00000004     dss_pe674.oe674 (.const:ti_sysbios_family_c64p_EventCombiner_Module__diagsIncluded__C)
                  008182a4    00000004     dss_pe674.oe674 (.const:ti_sysbios_family_c64p_EventCombiner_Module__diagsMask__C)
                  008182a8    00000004     dss_pe674.oe674 (.const:ti_sysbios_family_c64p_Exception_E_exceptionMax__C)
                  008182ac    00000004     dss_pe674.oe674 (.const:ti_sysbios_family_c64p_Exception_exceptionHook__C)
                  008182b0    00000004     dss_pe674.oe674 (.const:ti_sysbios_family_c64p_Exception_externalHook__C)
                  008182b4    00000004     dss_pe674.oe674 (.const:ti_sysbios_family_c64p_Exception_internalHook__C)
                  008182b8    00000004     dss_pe674.oe674 (.const:ti_sysbios_family_c64p_Exception_nmiHook__C)
                  008182bc    00000004     dss_pe674.oe674 (.const:ti_sysbios_family_c64p_Hwi_E_alreadyDefined__C)
                  008182c0    00000004     dss_pe674.oe674 (.const:ti_sysbios_family_c64p_Hwi_E_handleNotFound__C)
                  008182c4    00000004     dss_pe674.oe674 (.const:ti_sysbios_family_c64p_Hwi_E_invalidIntNum__C)
                  008182c8    00000004     dss_pe674.oe674 (.const:ti_sysbios_family_c64p_Hwi_INTRMUX1Address__C)
                  008182cc    00000004     dss_pe674.oe674 (.const:ti_sysbios_family_c64p_Hwi_LD_end__C)
                  008182d0    00000004     dss_pe674.oe674 (.const:ti_sysbios_family_c64p_Hwi_LM_begin__C)
                  008182d4    00000004     dss_pe674.oe674 (.const:ti_sysbios_family_c64p_Hwi_Module__diagsEnabled__C)
                  008182d8    00000004     dss_pe674.oe674 (.const:ti_sysbios_family_c64p_Hwi_Module__diagsIncluded__C)
                  008182dc    00000004     dss_pe674.oe674 (.const:ti_sysbios_family_c64p_Hwi_Module__diagsMask__C)
                  008182e0    00000004     dss_pe674.oe674 (.const:ti_sysbios_family_c64p_Hwi_Module__loggerFxn1__C)
                  008182e4    00000004     dss_pe674.oe674 (.const:ti_sysbios_family_c64p_Hwi_Module__loggerFxn8__C)
                  008182e8    00000004     dss_pe674.oe674 (.const:ti_sysbios_family_c64p_Hwi_Module__loggerObj__C)
                  008182ec    00000004     dss_pe674.oe674 (.const:ti_sysbios_gates_GateMutex_A_badContext__C)
                  008182f0    00000004     dss_pe674.oe674 (.const:ti_sysbios_gates_GateMutex_Instance_State_sem__O)
                  008182f4    00000004     dss_pe674.oe674 (.const:ti_sysbios_gates_GateMutex_Module__diagsEnabled__C)
                  008182f8    00000004     dss_pe674.oe674 (.const:ti_sysbios_gates_GateMutex_Module__diagsIncluded__C)
                  008182fc    00000004     dss_pe674.oe674 (.const:ti_sysbios_gates_GateMutex_Module__diagsMask__C)
                  00818300    00000004     dss_pe674.oe674 (.const:ti_sysbios_hal_Hwi_E_stackOverflow__C)
                  00818304    00000004     dss_pe674.oe674 (.const:ti_sysbios_heaps_HeapBuf_Instance_State_freeList__O)
                  00818308    00000004     dss_pe674.oe674 (.const:ti_sysbios_heaps_HeapBuf_Object__count__C)
                  0081830c    00000004     dss_pe674.oe674 (.const:ti_sysbios_heaps_HeapBuf_numConstructedHeaps__C)
                  00818310    00000004     dss_pe674.oe674 (.const:ti_sysbios_heaps_HeapMem_A_align__C)
                  00818314    00000004     dss_pe674.oe674 (.const:ti_sysbios_heaps_HeapMem_A_heapSize__C)
                  00818318    00000004     dss_pe674.oe674 (.const:ti_sysbios_heaps_HeapMem_A_invalidFree__C)
                  0081831c    00000004     dss_pe674.oe674 (.const:ti_sysbios_heaps_HeapMem_A_zeroBlock__C)
                  00818320    00000004     dss_pe674.oe674 (.const:ti_sysbios_heaps_HeapMem_E_memory__C)
                  00818324    00000004     dss_pe674.oe674 (.const:ti_sysbios_heaps_HeapMem_Module__diagsEnabled__C)
                  00818328    00000004     dss_pe674.oe674 (.const:ti_sysbios_heaps_HeapMem_Module__diagsIncluded__C)
                  0081832c    00000004     dss_pe674.oe674 (.const:ti_sysbios_heaps_HeapMem_Module__diagsMask__C)
                  00818330    00000004     dss_pe674.oe674 (.const:ti_sysbios_heaps_HeapMem_Module__gateObj__C)
                  00818334    00000004     dss_pe674.oe674 (.const:ti_sysbios_heaps_HeapMem_Object__count__C)
                  00818338    00000004     dss_pe674.oe674 (.const:ti_sysbios_heaps_HeapMem_reqAlign__C)
                  0081833c    00000004     dss_pe674.oe674 (.const:ti_sysbios_knl_Clock_LM_begin__C)
                  00818340    00000004     dss_pe674.oe674 (.const:ti_sysbios_knl_Clock_LM_tick__C)
                  00818344    00000004     dss_pe674.oe674 (.const:ti_sysbios_knl_Clock_LW_delayed__C)
                  00818348    00000004     dss_pe674.oe674 (.const:ti_sysbios_knl_Clock_Module_State_clockQ__O)
                  0081834c    00000004     dss_pe674.oe674 (.const:ti_sysbios_knl_Clock_Module__diagsEnabled__C)
                  00818350    00000004     dss_pe674.oe674 (.const:ti_sysbios_knl_Clock_Module__diagsIncluded__C)
                  00818354    00000004     dss_pe674.oe674 (.const:ti_sysbios_knl_Clock_Module__diagsMask__C)
                  00818358    00000004     dss_pe674.oe674 (.const:ti_sysbios_knl_Clock_Module__loggerFxn1__C)
                  0081835c    00000004     dss_pe674.oe674 (.const:ti_sysbios_knl_Clock_Module__loggerFxn2__C)
                  00818360    00000004     dss_pe674.oe674 (.const:ti_sysbios_knl_Clock_Module__loggerObj__C)
                  00818364    00000004     dss_pe674.oe674 (.const:ti_sysbios_knl_Semaphore_A_badContext__C)
                  00818368    00000004     dss_pe674.oe674 (.const:ti_sysbios_knl_Idle_funcList__A)
                  0081836c    00000004     dss_pe674.oe674 (.const:ti_sysbios_knl_Semaphore_A_noEvents__C)
                  00818370    00000004     dss_pe674.oe674 (.const:ti_sysbios_knl_Semaphore_A_overflow__C)
                  00818374    00000004     dss_pe674.oe674 (.const:ti_sysbios_knl_Semaphore_A_pendTaskDisabled__C)
                  00818378    00000004     dss_pe674.oe674 (.const:ti_sysbios_knl_Semaphore_Instance_State_pendQ__O)
                  0081837c    00000004     dss_pe674.oe674 (.const:ti_sysbios_knl_Semaphore_LM_pend__C)
                  00818380    00000004     dss_pe674.oe674 (.const:ti_sysbios_knl_Semaphore_LM_post__C)
                  00818384    00000004     dss_pe674.oe674 (.const:ti_sysbios_knl_Semaphore_Module__diagsEnabled__C)
                  00818388    00000004     dss_pe674.oe674 (.const:ti_sysbios_knl_Semaphore_Module__diagsIncluded__C)
                  0081838c    00000004     dss_pe674.oe674 (.const:ti_sysbios_knl_Semaphore_Module__diagsMask__C)
                  00818390    00000004     dss_pe674.oe674 (.const:ti_sysbios_knl_Semaphore_Module__loggerFxn2__C)
                  00818394    00000004     dss_pe674.oe674 (.const:ti_sysbios_knl_Semaphore_Module__loggerFxn4__C)
                  00818398    00000004     dss_pe674.oe674 (.const:ti_sysbios_knl_Semaphore_Module__loggerObj__C)
                  0081839c    00000004     dss_pe674.oe674 (.const:ti_sysbios_knl_Swi_LD_end__C)
                  008183a0    00000004     dss_pe674.oe674 (.const:ti_sysbios_knl_Swi_LM_begin__C)
                  008183a4    00000004     dss_pe674.oe674 (.const:ti_sysbios_knl_Swi_LM_post__C)
                  008183a8    00000004     dss_pe674.oe674 (.const:ti_sysbios_knl_Swi_Module__diagsEnabled__C)
                  008183ac    00000004     dss_pe674.oe674 (.const:ti_sysbios_knl_Swi_Module__diagsIncluded__C)
                  008183b0    00000004     dss_pe674.oe674 (.const:ti_sysbios_knl_Swi_Module__diagsMask__C)
                  008183b4    00000004     dss_pe674.oe674 (.const:ti_sysbios_knl_Swi_Module__loggerFxn1__C)
                  008183b8    00000004     dss_pe674.oe674 (.const:ti_sysbios_knl_Swi_Module__loggerFxn4__C)
                  008183bc    00000004     dss_pe674.oe674 (.const:ti_sysbios_knl_Swi_Module__loggerObj__C)
                  008183c0    00000004     dss_pe674.oe674 (.const:ti_sysbios_knl_Swi_Object__count__C)
                  008183c4    00000004     dss_pe674.oe674 (.const:ti_sysbios_knl_Task_A_badPriority__C)
                  008183c8    00000004     dss_pe674.oe674 (.const:ti_sysbios_knl_Task_A_badTaskState__C)
                  008183cc    00000004     dss_pe674.oe674 (.const:ti_sysbios_knl_Task_A_badThreadType__C)
                  008183d0    00000004     dss_pe674.oe674 (.const:ti_sysbios_knl_Task_A_badTimeout__C)
                  008183d4    00000004     dss_pe674.oe674 (.const:ti_sysbios_knl_Task_A_noPendElem__C)
                  008183d8    00000004     dss_pe674.oe674 (.const:ti_sysbios_knl_Task_A_sleepTaskDisabled__C)
                  008183dc    00000004     dss_pe674.oe674 (.const:ti_sysbios_knl_Task_E_spOutOfBounds__C)
                  008183e0    00000004     dss_pe674.oe674 (.const:ti_sysbios_knl_Task_E_stackOverflow__C)
                  008183e4    00000004     dss_pe674.oe674 (.const:ti_sysbios_knl_Task_LD_block__C)
                  008183e8    00000004     dss_pe674.oe674 (.const:ti_sysbios_knl_Task_LD_exit__C)
                  008183ec    00000004     dss_pe674.oe674 (.const:ti_sysbios_knl_Task_LD_ready__C)
                  008183f0    00000004     dss_pe674.oe674 (.const:ti_sysbios_knl_Task_LM_sleep__C)
                  008183f4    00000004     dss_pe674.oe674 (.const:ti_sysbios_knl_Task_LM_switch__C)
                  008183f8    00000004     dss_pe674.oe674 (.const:ti_sysbios_knl_Task_Module_State_inactiveQ__O)
                  008183fc    00000004     dss_pe674.oe674 (.const:ti_sysbios_knl_Task_Module__diagsEnabled__C)
                  00818400    00000004     dss_pe674.oe674 (.const:ti_sysbios_knl_Task_Module__diagsIncluded__C)
                  00818404    00000004     dss_pe674.oe674 (.const:ti_sysbios_knl_Task_Module__diagsMask__C)
                  00818408    00000004     dss_pe674.oe674 (.const:ti_sysbios_knl_Task_Module__loggerFxn2__C)
                  0081840c    00000004     dss_pe674.oe674 (.const:ti_sysbios_knl_Task_Module__loggerFxn4__C)
                  00818410    00000004     dss_pe674.oe674 (.const:ti_sysbios_knl_Task_Module__loggerObj__C)
                  00818414    00000004     dss_pe674.oe674 (.const:ti_sysbios_knl_Task_Object__count__C)
                  00818418    00000004     dss_pe674.oe674 (.const:ti_sysbios_knl_Task_allBlockedFunc__C)
                  0081841c    00000004     dss_pe674.oe674 (.const:ti_sysbios_knl_Task_defaultStackHeap__C)
                  00818420    00000004     dss_pe674.oe674 (.const:ti_sysbios_knl_Task_defaultStackSize__C)
                  00818424    00000004     dss_pe674.oe674 (.const:ti_sysbios_knl_Task_numConstructedTasks__C)
                  00818428    00000004     dss_pe674.oe674 (.const:ti_sysbios_timers_rti_Timer_E_cannotSupport__C)
                  0081842c    00000004     dss_pe674.oe674 (.const:ti_sysbios_timers_rti_Timer_Module__diagsEnabled__C)
                  00818430    00000004     dss_pe674.oe674 (.const:ti_sysbios_timers_rti_Timer_Module__diagsIncluded__C)
                  00818434    00000004     dss_pe674.oe674 (.const:ti_sysbios_timers_rti_Timer_Module__diagsMask__C)
                  00818438    00000004     dss_pe674.oe674 (.const:ti_sysbios_timers_rti_Timer_numTimerDevices__C)
                  0081843c    00000004     dss_pe674.oe674 (.const:ti_sysbios_timers_rti_Timer_startupNeeded__C)
                  00818440    00000004     link_testcase_config.oe674 (.const:txGainTempLutReadCfg)
                  00818444    00000004     dss_pe674.oe674 (.const:xdc_runtime_Assert_E_assertFailed__C)
                  00818448    00000004     dss_pe674.oe674 (.const:xdc_runtime_Core_A_initializedParams__C)
                  0081844c    00000004     dss_pe674.oe674 (.const:xdc_runtime_Core_Module__diagsEnabled__C)
                  00818450    00000004     dss_pe674.oe674 (.const:xdc_runtime_Core_Module__diagsIncluded__C)
                  00818454    00000004     dss_pe674.oe674 (.const:xdc_runtime_Core_Module__diagsMask__C)
                  00818458    00000004     dss_pe674.oe674 (.const:xdc_runtime_Error_E_memory__C)
                  0081845c    00000004     dss_pe674.oe674 (.const:xdc_runtime_Error_Module__diagsEnabled__C)
                  00818460    00000004     dss_pe674.oe674 (.const:xdc_runtime_Error_Module__diagsIncluded__C)
                  00818464    00000004     dss_pe674.oe674 (.const:xdc_runtime_Error_Module__diagsMask__C)
                  00818468    00000004     dss_pe674.oe674 (.const:xdc_runtime_Error_Module__loggerFxn8__C)
                  0081846c    00000004     dss_pe674.oe674 (.const:xdc_runtime_Error_Module__loggerObj__C)
                  00818470    00000004     dss_pe674.oe674 (.const:xdc_runtime_Error_policyFxn__C)
                  00818474    00000004     dss_pe674.oe674 (.const:xdc_runtime_Error_policy__C)
                  00818478    00000004     dss_pe674.oe674 (.const:xdc_runtime_Error_raiseHook__C)
                  0081847c    00000004     dss_pe674.oe674 (.const:xdc_runtime_IGateProvider_Interface__BASE__C)
                  00818480    00000004     dss_pe674.oe674 (.const:xdc_runtime_IHeap_Interface__BASE__C)
                  00818484    00000004     dss_pe674.oe674 (.const:xdc_runtime_IModule_Interface__BASE__C)
                  00818488    00000004     dss_pe674.oe674 (.const:xdc_runtime_Log_L_error__C)
                  0081848c    00000004     dss_pe674.oe674 (.const:xdc_runtime_Memory_defaultHeapInstance__C)
                  00818490    00000004     dss_pe674.oe674 (.const:xdc_runtime_Startup_execImpl__C)
                  00818494    00000004     dss_pe674.oe674 (.const:xdc_runtime_Startup_maxPasses__C)
                  00818498    00000004     dss_pe674.oe674 (.const:xdc_runtime_Startup_sfxnRts__C)
                  0081849c    00000004     dss_pe674.oe674 (.const:xdc_runtime_Startup_sfxnTab__C)
                  008184a0    00000004     dss_pe674.oe674 (.const:xdc_runtime_System_Module__gateObj__C)
                  008184a4    00000004     dss_pe674.oe674 (.const:xdc_runtime_System_abortFxn__C)
                  008184a8    00000004     dss_pe674.oe674 (.const:xdc_runtime_System_exitFxn__C)
                  008184ac    00000004     dss_pe674.oe674 (.const:xdc_runtime_System_extendFxn__C)
                  008184b0    00000004     dss_pe674.oe674 (.const:xdc_runtime_System_maxAtexitHandlers__C)
                  008184b4    00000004     dss_pe674.oe674 (.const:xdc_runtime_Text_charTab__C)
                  008184b8    00000004     dss_pe674.oe674 (.const:xdc_runtime_Text_nameEmpty__C)
                  008184bc    00000004     dss_pe674.oe674 (.const:xdc_runtime_Text_nameStatic__C)
                  008184c0    00000004     dss_pe674.oe674 (.const:xdc_runtime_Text_nameUnknown__C)
                  008184c4    00000004     dss_pe674.oe674 (.const:xdc_runtime_Text_nodeTab__C)
                  008184c8    00000004     dss_pe674.oe674 (.const:xdc_runtime_Text_visitRopeFxn__C)
                  008184cc    00000002     dss_pe674.oe674 (.const:ti_sysbios_family_c64p_Exception_useInternalBuffer__C)
                  008184ce    00000002     dss_pe674.oe674 (.const:ti_sysbios_family_c64p_Hwi_Module__id__C)
                  008184d0    00000002     dss_pe674.oe674 (.const:ti_sysbios_family_c64p_Hwi_Module__loggerDefined__C)
                  008184d2    00000002     dss_pe674.oe674 (.const:ti_sysbios_gates_GateMutex_Module__id__C)
                  008184d4    00000002     dss_pe674.oe674 (.const:ti_sysbios_hal_Hwi_Module__id__C)
                  008184d6    00000002     dss_pe674.oe674 (.const:ti_sysbios_heaps_HeapMem_Module__id__C)
                  008184d8    00000002     dss_pe674.oe674 (.const:ti_sysbios_knl_Clock_Module__id__C)
                  008184da    00000002     dss_pe674.oe674 (.const:ti_sysbios_knl_Clock_Module__loggerDefined__C)
                  008184dc    00000002     dss_pe674.oe674 (.const:ti_sysbios_knl_Semaphore_Module__id__C)
                  008184de    00000002     dss_pe674.oe674 (.const:ti_sysbios_knl_Semaphore_Module__loggerDefined__C)
                  008184e0    00000002     dss_pe674.oe674 (.const:ti_sysbios_knl_Swi_Module__id__C)
                  008184e2    00000002     dss_pe674.oe674 (.const:ti_sysbios_knl_Swi_Module__loggerDefined__C)
                  008184e4    00000002     dss_pe674.oe674 (.const:ti_sysbios_knl_Task_Module__id__C)
                  008184e6    00000002     dss_pe674.oe674 (.const:ti_sysbios_knl_Task_Module__loggerDefined__C)
                  008184e8    00000002     dss_pe674.oe674 (.const:ti_sysbios_timers_rti_Timer_Module__id__C)
                  008184ea    00000002     dss_pe674.oe674 (.const:ti_sysbios_timers_rti_Timer_continueOnSuspend__C)
                  008184ec    00000002     dss_pe674.oe674 (.const:xdc_runtime_Core_Module__id__C)
                  008184ee    00000002     dss_pe674.oe674 (.const:xdc_runtime_Error_Module__loggerDefined__C)
                  008184f0    00000002     dss_pe674.oe674 (.const:xdc_runtime_Error_maxDepth__C)
                  008184f2    00000002     dss_pe674.oe674 (.const:xdc_runtime_Main_Module__id__C)
                  008184f4    00000002     dss_pe674.oe674 (.const:xdc_runtime_Memory_Module__id__C)
                  008184f6    00000002     dss_pe674.oe674 (.const:xdc_runtime_Text_charCnt__C)
                  008184f8    00000002     dss_pe674.oe674 (.const:xdc_runtime_Text_isLoaded__C)
                  008184fa    00000002     dss_pe674.oe674 (.const:xdc_runtime_Text_registryModsLastId__C)
                  008184fc    00000002     dss_pe674.oe674 (.const:xdc_runtime_Text_unnamedModsLastId__C)

.fardata   0    00818500    00001a94     
                  00818500    00000400     dss_pe674.oe674 (.fardata:ti_sysbios_family_c64p_EventCombiner_Module__state__V)
                  00818900    000002ac     link_test.oe674 (.fardata:calibData)
                  00818bac    000002a4     link_test_monitoring.oe674 (.fardata:gMonDataAeStrct)
                  00818e50    000001e8     libmmwavelink_xwr18xx.ae674 : rl_driver.oe674 (.fardata:rl_driverData)
                  00819038    000001e0     rts6740_elf.lib : defs.c.obj (.fardata:_ftable)
                  00819218    0000018c     link_test.oe674 (.fardata:phShiftCalibData)
                  008193a4    00000100     libmmwavelink_xwr18xx.ae674 : rl_driver.oe674 (.fardata:rl_rxMsg)
                  008194a4    00000100                                 : rl_driver.oe674 (.fardata:rl_txMsg)
                  008195a4    00000004     rts6740_elf.lib : _lock.c.obj (.fardata:_lock)
                  008195a8    000000c8     link_test.oe674 (.fardata:getChirpCfg)
                  00819670    000000b8     link_testcase_config.oe674 (.fardata:advFrameCfg)
                  00819728    000000a0     rts6740_elf.lib : write.c.obj (.fardata:_stream)
                  008197c8    00000080     dss_pe674.oe674 (.fardata:ti_sysbios_knl_Swi_Module_State_0_readyQ__A)
                  00819848    00000080     dss_pe674.oe674 (.fardata:ti_sysbios_knl_Task_Module_State_0_readyQ__A)
                  008198c8    00000078     rts6740_elf.lib : write.c.obj (.fardata:_device)
                  00819940    0000006c     dss_pe674.oe674 (.fardata:ti_sysbios_family_c64p_Hwi_Module__state__V)
                  008199ac    00000004     rts6740_elf.lib : _lock.c.obj (.fardata:_unlock)
                  008199b0    0000005c     dss_pe674.oe674 (.fardata:ti_sysbios_knl_Task_Object__table__V)
                  00819a0c    00000050     libmailbox_xwr18xx.ae674 : mailbox.oe674 (.fardata:gMailboxMCB)
                  00819a5c    00000004     link_test.oe674 (.fardata:retryNegativeTestCfg)
                  00819a60    00000050     link_test_monitoring.oe674 (.fardata:monAeCnt)
                  00819ab0    00000050     link_test_monitoring.oe674 (.fardata:monFailRepCheck)
                  00819b00    00000048     link_test.oe674 (.fardata:rcvGpAdcData)
                  00819b48    00000048     dss_pe674.oe674 (.fardata:ti_sysbios_knl_Task_Module__state__V)
                  00819b90    00000040     dss_pe674.oe674 (.fardata:ti_sysbios_gates_GateMutex_Object__table__V)
                  00819bd0    00000040     link_test.oe674 (.fardata:txGainTempLutData)
                  00819c10    0000003c     dss_pe674.oe674 (.fardata:ti_sysbios_timers_rti_Timer_Object__table__V)
                  00819c4c    00000030     dss_pe674.oe674 (.fardata:ti_sysbios_family_c64p_Exception_Module__state__V)
                  00819c7c    00000004     rts6740_elf.lib : defs.c.obj (.fardata)
                  00819c80    00000030     dss_pe674.oe674 (.fardata:ti_sysbios_knl_Swi_Object__table__V)
                  00819cb0    0000002c     dss_pe674.oe674 (.fardata:ti_sysbios_knl_Clock_Module__state__V)
                  00819cdc    00000024     dss_pe674.oe674 (.fardata:ti_sysbios_BIOS_Module__state__V)
                  00819d00    00000020     libsoc_xwr18xx.ae674 : soc_xwr18xx_dss.oe674 (.fardata:gSOCHwAttrib)
                  00819d20    00000020     dss_pe674.oe674 (.fardata:xdc_runtime_Error_IgnoreBlock)
                  00819d40    00000020     dss_pe674.oe674 (.fardata:xdc_runtime_System_Module_State_0_atexitHandlers__A)
                  00819d60    0000001c     dss_pe674.oe674 (.fardata:ti_sysbios_knl_Swi_Module__state__V)
                  00819d7c    00000004     rts6740_elf.lib : errno.c.obj (.fardata)
                  00819d80    00000018     libadcbuf_xwr18xx.ae674 : adcbuf_xwr1xxx.oe674 (.fardata:ADCBuf_config)
                  00819d98    00000018     link_testcase_config.oe674 (.fardata:frameCfg)
                  00819db0    00000018     libmailbox_xwr18xx.ae674 : mailbox_xwr18xx.oe674 (.fardata:gMailboxDssBssHwCfg)
                  00819dc8    00000018                              : mailbox_xwr18xx.oe674 (.fardata:gMailboxDssMssHwCfg)
                  00819de0    00000018     link_test.oe674 (.fardata:rxGainTempLutData)
                  00819df8    00000018     dss_pe674.oe674 (.fardata:ti_sysbios_family_c64p_Hwi_Object__table__V)
                  00819e10    00000018     dss_pe674.oe674 (.fardata:ti_sysbios_heaps_HeapMem_Object__table__V)
                  00819e28    00000018     dss_pe674.oe674 (.fardata:ti_sysbios_timers_rti_Timer_Module_State_0_device__A)
                  00819e40    00000010     dss_pe674.oe674 (.fardata:ti_sysbios_timers_rti_Timer_Module_State_0_intFreqs__A)
                  00819e50    00000010     dss_pe674.oe674 (.fardata:ti_sysbios_timers_rti_Timer_Module__state__V)
                  00819e60    00000010     link_testcase_config.oe674 (.fardata:tx0BpmMonCfg)
                  00819e70    00000010     link_testcase_config.oe674 (.fardata:tx0PowMonCfg)
                  00819e80    00000010     link_testcase_config.oe674 (.fardata:tx1BpmMonCfg)
                  00819e90    00000010     link_testcase_config.oe674 (.fardata:tx1PowMonCfg)
                  00819ea0    00000010     link_testcase_config.oe674 (.fardata:tx2BpmMonCfg)
                  00819eb0    00000010     link_testcase_config.oe674 (.fardata:tx2PowMonCfg)
                  00819ec0    0000000c     link_test.oe674 (.fardata:rfDevCfg)
                  00819ecc    0000000c     rts6740_elf.lib : exit.c.obj (.fardata)
                  00819ed8    0000000c     link_testcase_config.oe674 (.fardata:tx0BallBreakMonCfg)
                  00819ee4    0000000c     link_testcase_config.oe674 (.fardata:tx1BallBreakMonCfg)
                  00819ef0    0000000c     link_testcase_config.oe674 (.fardata:tx2BallBreakMonCfg)
                  00819efc    00000004     dss_pe674.oe674 (.fardata:ti_sysbios_family_c64p_Cache_Module__state__V)
                  00819f00    0000000a     link_test.oe674 (.fardata:errorStatusCnt)
                  00819f0a    00000002     dss_pe674.oe674 (.fardata:xdc_runtime_Error_Module__state__V)
                  00819f0c    00000008     dss_pe674.oe674 (.fardata:ti_sysbios_family_c64p_Hwi_Module__root__V)
                  00819f14    00000008     dss_pe674.oe674 (.fardata:ti_sysbios_gates_GateHwi_Module__root__V)
                  00819f1c    00000008     dss_pe674.oe674 (.fardata:ti_sysbios_gates_GateMutex_Module__root__V)
                  00819f24    00000004     dss_pe674.oe674 (.fardata:ti_sysbios_heaps_HeapBuf_Module__state__V)
                  00819f28    00000008     dss_pe674.oe674 (.fardata:ti_sysbios_hal_Hwi_Object__table__V)
                  00819f30    00000008     dss_pe674.oe674 (.fardata:ti_sysbios_heaps_HeapMem_Module__root__V)
                  00819f38    00000008     dss_pe674.oe674 (.fardata:ti_sysbios_knl_Queue_Module__root__V)
                  00819f40    00000008     dss_pe674.oe674 (.fardata:ti_sysbios_knl_Semaphore_Module__root__V)
                  00819f48    00000008     dss_pe674.oe674 (.fardata:ti_sysbios_knl_Task_Module__root__V)
                  00819f50    00000008     dss_pe674.oe674 (.fardata:ti_sysbios_timers_rti_Timer_Module_State_0_handles__A)
                  00819f58    00000008     link_testcase_config.oe674 (.fardata:tx0IntAnaSigMonCfg)
                  00819f60    00000008     link_testcase_config.oe674 (.fardata:tx1IntAnaSigMonCfg)
                  00819f68    00000008     link_testcase_config.oe674 (.fardata:tx2IntAnaSigMonCfg)
                  00819f70    00000008     dss_pe674.oe674 (.fardata:xdc_runtime_Registry_Module__state__V)
                  00819f78    00000008     dss_pe674.oe674 (.fardata:xdc_runtime_Startup_Module__state__V)
                  00819f80    00000008     dss_pe674.oe674 (.fardata:xdc_runtime_System_Module__state__V)
                  00819f88    00000004     dss_pe674.oe674 (.fardata:ti_sysbios_gates_GateHwi_Object__table__V)
                  00819f8c    00000004     dss_pe674.oe674 (.fardata:xdc_runtime_Memory_Module__state__V)
                  00819f90    00000004     dss_pe674.oe674 (.fardata:ti_sysbios_knl_Task_Module_State_0_idleTask__A)

.switch    0    0081be10    00000180     
                  0081be10    000000c8     link_test.oe674 (.switch:MmwaveLink_asyncEventHandler)
                  0081bed8    00000048     libadcbuf_xwr18xx.ae674 : adcbuf_mmwave.oe674 (.switch:ADCBUF_MMWave_control)
                  0081bf20    00000038     rts6740_elf.lib : _printfi.c.obj (.switch:__TI_printfi)
                  0081bf58    00000028     libadcbuf_xwr18xx.ae674 : adcbuf_mmwave.oe674 (.switch:ADCBUFCmdParamCheck)
                  0081bf80    00000010                             : adcbuf_mmwave.oe674 (.switch:ADCBUF_MMWave_getChanBufAddr)

.cio       0    0081bf90    00000120     UNINITIALIZED
                  0081bf90    00000120     rts6740_elf.lib : trgmsg.c.obj (.cio)

MODULE SUMMARY

       Module                         code     ro data   rw data
       ------                         ----     -------   -------
    /home/gtbldadm/nightlybuilds/mmwave_sdk/ti/control/mmwavelink/test/xwr18xx/dss_configPkg_xwr18xx/package/cfg/
       dss_pe674.oe674                4864     8320      36982  
    +--+------------------------------+--------+---------+---------+
       Total:                         4864     8320      36982  
                                                                
    obj_xwr18xx/
       link_test.oe674                16832    7808      1530   
       link_test_monitoring.oe674     8992     8940      845    
       main_dss.oe674                 896      512       9273   
       mmwavelink_test_common.oe674   5536     2556      48     
       link_testcase_config.oe674     0        3036      366    
       osi_tirtos.oe674               384      0         0      
    +--+------------------------------+--------+---------+---------+
       Total:                         32640    22852     12062  
                                                                
    /home/gtbldadm/nightlybuilds/mmwave_sdk/scripts/jenkins/../../ti/control/mmwavelink/lib/libmmwavelink_xwr18xx.ae674
       rl_sensor.oe674                10624    696       0      
       rl_driver.oe674                9600     220       1000   
       rl_monitoring.oe674            3136     1088      0      
       rl_device.oe674                1088     0         0      
       rl_controller.oe674            480      0         0      
    +--+------------------------------+--------+---------+---------+
       Total:                         24928    2004      1000   
                                                                
    /home/gtbldadm/nightlybuilds/mmwave_sdk/scripts/jenkins/../../ti/drivers/adcbuf/lib/libadcbuf_xwr18xx.ae674
       adcbuf_mmwave.oe674            3296     168       0      
       ADCBuf.oe674                   288      16        4      
       adcbuf_xwr1xxx.oe674           0        16        24     
    +--+------------------------------+--------+---------+---------+
       Total:                         3584     200       28     
                                                                
    /home/gtbldadm/nightlybuilds/mmwave_sdk/scripts/jenkins/../../ti/drivers/crc/lib/libcrc_xwr18xx.ae674
       crc.oe674                      2560     12        0      
       crc_xwr18xx.oe674              0        0         4      
    +--+------------------------------+--------+---------+---------+
       Total:                         2560     12        4      
                                                                
    /home/gtbldadm/nightlybuilds/mmwave_sdk/scripts/jenkins/../../ti/drivers/edma/lib/libedma_xwr18xx.ae674
       edma.oe674                     4736     104       1256   
       edma_low_level.oe674           2112     0         4      
       edma_xwr1xxx.oe674             0        56        0      
    +--+------------------------------+--------+---------+---------+
       Total:                         6848     160       1260   
                                                                
    /home/gtbldadm/nightlybuilds/mmwave_sdk/scripts/jenkins/../../ti/drivers/mailbox/lib/libmailbox_xwr18xx.ae674
       mailbox.oe674                  3936     112       80     
       mailbox_xwr18xx.oe674          0        0         48     
    +--+------------------------------+--------+---------+---------+
       Total:                         3936     112       128    
                                                                
    /home/gtbldadm/nightlybuilds/mmwave_sdk/scripts/jenkins/../../ti/drivers/osal/lib/libosal_xwr18xx.ae674
       HwiP_tirtos.oe674              288      28        0      
       SemaphoreP_tirtos.oe674        256      32        0      
       MemoryP_tirtos.oe674           64       0         0      
       DebugP_tirtos.oe674            32       0         0      
    +--+------------------------------+--------+---------+---------+
       Total:                         640      60        0      
                                                                
    /home/gtbldadm/nightlybuilds/mmwave_sdk/scripts/jenkins/../../ti/drivers/soc/lib/libsoc_xwr18xx.ae674
       soc.oe674                      1056     0         0      
       soc_xwr18xx_dss.oe674          320      60        32     
       soc_xwr18xx.oe674              64       0         0      
    +--+------------------------------+--------+---------+---------+
       Total:                         1440     60        32     
                                                                
    /home/gtbldadm/nightlybuilds/mmwave_sdk/scripts/jenkins/../../ti/utils/testlogger/lib/libtestlogger_xwr18xx.ae674
       logger.oe674                   704      148       12     
    +--+------------------------------+--------+---------+---------+
       Total:                         704      148       12     
                                                                
    /home/gtbldadm/nightlybuilds/mmwave_sdk/ti/control/mmwavelink/test/xwr18xx/dss_configPkg_xwr18xx/package/cfg/dss_pe674.src/sysbios/sysbios.ae674
       BIOS.obj                       33248    1304      0      
       c64p_Hwi_disp_always.obj       512      0         0      
       c64p_Exception_asm.obj         384      0         0      
       c62_TaskSupport_asm.obj        224      0         0      
       c64p_Hwi_asm_switch.obj        192      0         0      
       c64p_Hwi_asm.obj               160      0         0      
    +--+------------------------------+--------+---------+---------+
       Total:                         34720    1304      0      
                                                                
    /opt/ti/bios_6_73_01_01/packages/ti/targets/rts6000/lib/boot.ae674
       autoinit.oe674                 288      0         0      
       boot.oe674                     160      0         0      
    +--+------------------------------+--------+---------+---------+
       Total:                         448      0         0      
                                                                
    /opt/ti/bios_6_73_01_01/packages/ti/targets/rts6000/lib/ti.targets.rts6000.ae674
       System.oe674                   3232     24        0      
       Text.oe674                     1824     64        0      
       Error.oe674                    1152     88        0      
       Startup.oe674                  896      44        0      
       Core-mem.oe674                 896      0         0      
       Memory.oe674                   448      0         0      
       Core-smem.oe674                416      0         0      
       SysStd.oe674                   224      0         0      
       Assert.oe674                   192      4         0      
       Core-params.oe674              160      0         0      
       Core-label.oe674               128      0         0      
       Gate.oe674                     64       0         0      
       Registry.oe674                 64       0         0      
    +--+------------------------------+--------+---------+---------+
       Total:                         9696     224       0      
                                                                
    /opt/ti/ti-cgt-c6000_8.3.3/lib/rts6740_elf.lib
       _printfi.c.obj                 13440    92        0      
       divd.c.obj                     1536     0         0      
       defs.c.obj                     0        0         804    
       fputs.c.obj                    800      0         0      
       imath64.c.obj                  704      0         0      
       trgmsg.c.obj                   224      0         288    
       fputc.c.obj                    480      0         0      
       frexp.c.obj                    448      0         0      
       getdevice.c.obj                448      0         0      
       imath40.c.obj                  448      0         0      
       ldexp.c.obj                    448      0         0      
       setvbuf.c.obj                  448      0         0      
       fflush.c.obj                   416      0         0      
       hostrename.c.obj               416      0         0      
       write.c.obj                    96       0         280    
       snprintf.c.obj                 320      0         0      
       printf.c.obj                   288      0         0      
       exit.c.obj                     256      0         12     
       ctype.c.obj                    0        257       0      
       atoi.c.obj                     256      0         0      
       fclose.c.obj                   256      0         0      
       fseek.c.obj                    256      0         0      
       hostopen.c.obj                 224      0         8      
       _io_perm.c.obj                 224      0         0      
       _ltoa.c.obj                    224      0         0      
       close.c.obj                    224      0         0      
       hostlseek.c.obj                224      0         0      
       hostwrite.c.obj                224      0         0      
       llshift.c.obj                  224      0         0      
       memset.c.obj                   224      0         0      
       divu.asm.obj                   192      0         0      
       hostread.c.obj                 192      0         0      
       hostunlink.c.obj               192      0         0      
       remi.asm.obj                   192      0         0      
       tls.c.obj                      192      0         0      
       fopen.c.obj                    160      0         0      
       hostclose.c.obj                160      0         0      
       memcpy64.asm.obj               160      0         0      
       remu.asm.obj                   160      0         0      
       unlink.c.obj                   128      0         0      
       _lock.c.obj                    96       0         8      
       lseek.c.obj                    96       0         0      
       memccpy.c.obj                  96       0         0      
       args_main.c.obj                64       0         0      
       frcmpyd_div.c.obj              64       0         0      
       isinf.c.obj                    64       0         0      
       push.asm.obj                   64       0         0      
       strasg.asm.obj                 64       0         0      
       wcslen.c.obj                   64       0         0      
       errno.c.obj                    32       0         4      
       signbit.c.obj                  32       0         0      
    +--+------------------------------+--------+---------+---------+
       Total:                         26240    349       1404   
                                                                
       Stack:                         0        0         4096   
    +--+------------------------------+--------+---------+---------+
       Grand Total:                   153248   35805     57008  


GLOBAL SYMBOLS: SORTED ALPHABETICALLY BY Name 

address   name                                                         
-------   ----                                                         
007fe9c0  ADCBUF_MMWave_close                                          
007e5da0  ADCBUF_MMWave_control                                        
007f8120  ADCBUF_MMWave_getChanBufAddr                                 
0080eae0  ADCBUF_MMWave_init                                           
007f2920  ADCBUF_MMWave_open                                           
0080eb00  ADCBuf_Params_init                                           
00819d80  ADCBuf_config                                                
0080eb20  ADCBuf_control                                               
00817ff8  ADCBuf_defaultParams                                         
007fea40  ADCBuf_init                                                  
0080b580  ADCBuf_open                                                  
0080f1a0  C$$EXIT                                                      
0080bd58  C$$IO$$                                                      
007ec520  CRC_computeSignature                                         
007fb5e0  CRC_getSignature                                             
007fa1c0  CRC_getTransactionId                                         
0080eb40  CRC_initConfigParams                                         
007ea9e0  CRC_open                                                     
0080eb60  EDMA3ChannelToParamMap                                       
0080eb80  EDMA3ClrCCErr                                                
0080b760  EDMA3ClrEvt                                                  
0080b7c0  EDMA3ClrIntr                                                 
0080b820  EDMA3ClrMissEvt                                              
0080b880  EDMA3DisableDmaEvt                                           
0080b8e0  EDMA3DisableEvtIntr                                          
0080eba0  EDMA3DisableQdmaEvt                                          
007fcc60  EDMA3EnableChInShadowReg                                     
0080b940  EDMA3EnableDmaEvt                                            
0080b9a0  EDMA3EnableEvtIntr                                           
0080ebc0  EDMA3EnableQdmaEvt                                           
007fcd00  EDMA3EnableTransfer                                          
0080ebe0  EDMA3ErrIntrHighStatusGet                                    
0080ec00  EDMA3GetCCErrStatus                                          
0080ec20  EDMA3GetErrIntrStatus                                        
0080ec40  EDMA3GetIntrStatus                                           
007f6e60  EDMA3Init                                                    
0080ec60  EDMA3IntrStatusHighGet                                       
007feac0  EDMA3MapChToEvtQ                                             
0080dda0  EDMA3MapQdmaChToPaRAM                                        
0080ec80  EDMA3QdmaClrMissEvt                                          
0080eca0  EDMA3QdmaGetErrIntrStatus                                    
0080ba00  EDMA3SetEvt                                                  
0080dde0  EDMA3SetPaRAM                                                
0080de20  EDMA3SetQdmaTrigWord                                         
007ebce0  EDMA_configChannel                                           
007fcda0  EDMA_disableChannel                                          
007fce40  EDMA_enableChannel                                           
007f0c60  EDMA_init                                                    
007ec7c0  EDMA_open                                                    
007fb760  EDMA_startDmaTransfer                                        
0080ecc0  EDMAsetRegion                                                
0081c120  EdmaHandle                                                   
007fcee0  HOSTclose                                                    
007fa380  HOSTlseek                                                    
007fa460  HOSTopen                                                     
007fb820  HOSTread                                                     
007f2c60  HOSTrename                                                   
007fb8e0  HOSTunlink                                                   
007fa540  HOSTwrite                                                    
0080ece0  HwiP_Params_init                                             
0080de60  HwiP_create                                                  
0080dea0  HwiP_delete                                                  
0080ed00  HwiP_disable                                                 
0080ed20  HwiP_disableInterrupt                                        
0080ed40  HwiP_enableInterrupt                                         
0080ed60  HwiP_restore                                                 
0081c108  MCPI_FailSignature                                           
0080dee0  MCPI_Initialize                                              
0081c104  MCPI_Result                                                  
00808000  MCPI_logMessage                                              
007ed760  MCPI_setFeatureTestResult                                    
0080ed80  MCPI_setTestResult                                           
0080bb20  Mailbox_Config_init                                          
007f55a0  Mailbox_close                                                
00817994  Mailbox_defaultCfg                                           
007fa700  Mailbox_init                                                 
007e8aa0  Mailbox_open                                                 
007f17a0  Mailbox_read                                                 
007f8fc0  Mailbox_readFlush                                            
007ef9c0  Mailbox_write                                                
007febc0  Mailbox_writeReset                                           
0080eda0  MemoryP_ctrlAlloc                                            
0080edc0  MemoryP_ctrlFree                                             
007fba60  MmwaveLink_CQedmaSetup                                       
007e3ca0  MmwaveLink_CheckMonitoringReport                             
007fa7e0  MmwaveLink_ConfigEdma                                        
007fec40  MmwaveLink_RxMixerInPwrConfig                                
007f2e00  MmwaveLink_VerifyCPData                                      
007f1960  MmwaveLink_VerifyCQData                                      
007f4cc0  MmwaveLink_adcBufConfig                                      
007fecc0  MmwaveLink_enableContMode                                    
007f8240  MmwaveLink_getAdvFrameConfig                                 
007e8ec0  MmwaveLink_getDynChirpConfig                                 
007f5700  MmwaveLink_getFrameConfig                                    
007eca60  MmwaveLink_getProfileConfig                                  
007fd020  MmwaveLink_getRfBootupStatus                                 
007f5860  MmwaveLink_getVersion                                        
007ecd00  MmwaveLink_initLink                                          
0080e020  MmwaveLink_monAdvancedTest                                   
007efbe0  MmwaveLink_monTest1                                          
007e9ec0  MmwaveLink_monitoring                                        
007f1b20  MmwaveLink_negativeTest                                      
007ea640  MmwaveLink_printMonitoringResult                             
007fbb20  MmwaveLink_progFilterConfig                                  
007fd160  MmwaveLink_rfCalibration                                     
007fee40  MmwaveLink_rfSetLdoBypassConfig                              
007fd200  MmwaveLink_rlRfDigMonPeriodicConfig                          
007fd2a0  MmwaveLink_rlSetDynChirpCfg                                  
007feec0  MmwaveLink_rlSetDynChirpEn                                   
007f91c0  MmwaveLink_rlSetLoopBackBurstCfg                             
007fd340  MmwaveLink_sensorStart                                       
007faa80  MmwaveLink_sensorStop                                        
007fef40  MmwaveLink_setAdcOutConfig                                   
007fefc0  MmwaveLink_setAdvFrameConfig                                 
007fd3e0  MmwaveLink_setBpmChirpConfig                                 
007ff040  MmwaveLink_setBpmCommonConfig                                
007fd480  MmwaveLink_setCalMonConfig                                   
007fd520  MmwaveLink_setChannelConfig                                  
007ff0c0  MmwaveLink_setChirpConfig                                    
007ff140  MmwaveLink_setContModeConfig                                 
007fd5c0  MmwaveLink_setFrameConfig                                    
007fd660  MmwaveLink_setGpAdcConfig                                    
007ff1c0  MmwaveLink_setHsiClk                                         
007fbbe0  MmwaveLink_setInitTimeCalibConfig                            
007ff240  MmwaveLink_setLowPowerModeConfig                             
007fd700  MmwaveLink_setMultiChirpConfig                               
007ff2c0  MmwaveLink_setProfileConfig                                  
007fbca0  MmwaveLink_setRfAnaMonConfig                                 
007ff340  MmwaveLink_setRfAnaMonConfigCq                               
007ff3c0  MmwaveLink_setRfDevCfg                                       
007ff440  MmwaveLink_setRfDualClkCompMonConfig                         
007ff4c0  MmwaveLink_setRfExtAnaSignalsMonConfig                       
007ff540  MmwaveLink_setRfGpadcIntAnaSignalsMonConfig                  
007ff5c0  MmwaveLink_setRfPllContrlVoltMonConfig                       
007ff640  MmwaveLink_setRfPmClkLoIntAnaSignalsMonConfig                
007ff6c0  MmwaveLink_setRfRxGainPhaMonConfig                           
007ff740  MmwaveLink_setRfRxIfSatMonConfig                             
007ff7c0  MmwaveLink_setRfRxIfStageMonConfig                           
007fd7a0  MmwaveLink_setRfRxIntAnaSignalMonConfig                      
007ff840  MmwaveLink_setRfRxNoiseMonConfig                             
007ff8c0  MmwaveLink_setRfRxSigImgMonConfig                            
007ff940  MmwaveLink_setRfSynthFreqMonConfig                           
007fd840  MmwaveLink_setRfSynthFreqNonLiveMonConfig                    
007ff9c0  MmwaveLink_setRfTempMonConfig                                
007ffa40  MmwaveLink_setRfTxBallbreakMonConfig                         
007ffac0  MmwaveLink_setRfTxBpmMonConfig                               
007ffb40  MmwaveLink_setRfTxGainPhaseMismatchMonConfig                 
007ffbc0  MmwaveLink_setRfTxIntAnaSignalMonConfig                      
007ffc40  MmwaveLink_setRfTxPowMonConfig                               
007fd8e0  MmwaveLink_setRunTimeCalibConfig                             
007e21e0  MmwaveLink_startTest                                         
007efe00  MmwaveLink_subframeStart                                     
0080ee80  MmwaveLink_triggerEdmaTransfer                               
0080eea0  MmwaveLink_unmaskHostIRQ                                     
007f59c0  MmwaveLink_verifyRxGainPhRep                                 
007fbe20  Mmwavelink_chirpAvailInterrupCallBackFunc                    
007f70e0  Mmwavelink_frameInterrupCallBackFunc                         
0080bbe0  Osal_mutexCreate                                             
0080eec0  Osal_mutexDelete                                             
0080eee0  Osal_mutexLock                                               
0080ef00  Osal_mutexUnlock                                             
0080bc40  Osal_semCreate                                               
0080ef20  Osal_semDelete                                               
0080ef40  Osal_semSignal                                               
0080ef60  Osal_semWait                                                 
007fd980  SOC_SystemISR                                                
007f92c0  SOC_deviceInit                                               
0080ef80  SOC_gateClock                                                
007f7220  SOC_init                                                     
007f5b20  SOC_registerSysIntListener                                   
0080efa0  SOC_ungateClock                                              
0080bca0  SOC_unhaltBSS                                                
0080efc0  SemaphoreP_Params_init                                       
007ffcc0  SemaphoreP_create                                            
0080efe0  SemaphoreP_delete                                            
0080f000  SemaphoreP_pend                                              
0080f020  SemaphoreP_post                                              
0080f020  SemaphoreP_postFromClock                                     
0080f020  SemaphoreP_postFromISR                                       
0080f040  _DebugP_assert                                               
00000000  __ASM__                                                      
0081bf90  __CIOBUF_                                                    
00000088  __ISA__                                                      
000000a0  __PLAT__                                                     
000000c0  __TARG__                                                     
UNDEFED   __TI_CINIT_Base                                              
UNDEFED   __TI_CINIT_Limit                                             
UNDEFED   __TI_Handler_Table_Base                                      
UNDEFED   __TI_Handler_Table_Limit                                     
UNDEFED   __TI_INITARRAY_Base                                          
UNDEFED   __TI_INITARRAY_Limit                                         
0081af98  __TI_STACK_END                                               
00001000  __TI_STACK_SIZE                                              
0081c0b0  __TI_STATIC_BASE                                             
UNDEFED   __TI_TLS_INIT_Base                                           
UNDEFED   __TI_TLS_INIT_Limit                                          
007fda20  __TI_cleanup                                                 
00819ecc  __TI_cleanup_ptr                                             
007f93c0  __TI_closefile                                               
007fdac0  __TI_doflush                                                 
00819ed0  __TI_dtors_ptr                                               
00819ed4  __TI_enable_exit_profile_output                              
0080e0a0  __TI_frcmpyd_div                                             
00819c7c  __TI_ft_end                                                  
007fab60  __TI_ltoa                                                    
ffffffff  __TI_pprof_out_hndl                                          
007e0200  __TI_printfi                                                 
ffffffff  __TI_prof_data_size                                          
ffffffff  __TI_prof_data_start                                         
007ffd40  __TI_readmsg                                                 
007fca20  __TI_tls_init                                                
0081bc70  __TI_tmpnams                                                 
0080bd00  __TI_writemsg                                                
007fac40  __TI_wrt_ok                                                  
000000e8  __TRDR__                                                     
ffffffff  __binit__                                                    
007e70a0  __c6xabi_divd                                                
007fbee0  __c6xabi_divu                                                
007f1ce0  __c6xabi_divul                                               
007ed9c0  __c6xabi_divull                                              
0080f060  __c6xabi_errno_addr                                          
0080e0e0  __c6xabi_isinf                                               
007ffdc0  __c6xabi_llshl                                               
0080bd60  __c6xabi_llshru                                              
0080f080  __c6xabi_pop_rts                                             
0080f0a0  __c6xabi_push_rts                                            
007fbfa0  __c6xabi_remi                                                
007fdb60  __c6xabi_remu                                                
0080e160  __c6xabi_strasgi_64plus                                      
ffffffff  __c_args__                                                   
007fbee0  __divu                                                       
00819d7c  __errno                                                      
0080f080  __pop_rts                                                    
0080f0a0  __push_rts                                                   
007fbfa0  __remi                                                       
007fdb60  __remu                                                       
0080e160  __strasgi_64plus                                             
0080e1a0  _args_main                                                   
007f8360  _auto_init_elf                                               
007fdc00  _c_int00                                                     
00816b50  _ctypes_                                                     
008198c8  _device                                                      
00819038  _ftable                                                      
008195a4  _lock                                                        
0080f0c0  _nop                                                         
0080f120  _register_lock                                               
0080f140  _register_unlock                                             
0080f160  _signbit                                                     
00819f98  _stack                                                       
00819728  _stream                                                      
0080bdc0  _subcull                                                     
008199ac  _unlock                                                      
0080f1a0  abort                                                        
008181bc  adcOutCfgArgs                                                
0081c124  adcbufHandle                                                 
00819670  advFrameCfg                                                  
00818098  allTxBallbreakMonCfg                                         
008180a4  allTxBpmMonCfg                                               
008180b0  allTxPowMonCfg                                               
008180bc  allTxanaSigMonCfg                                            
0081c11c  anaMonEn                                                     
007f95c0  atoi                                                         
0081be00  avgChirpTimeInterval                                         
ffffffff  binit                                                        
00817c08  bpmChirpCfg                                                  
00818018  bpmCommonCfg                                                 
008181c4  calMonTimeUnitConf                                           
00818900  calibData                                                    
008181cc  chCfg                                                        
00817920  chirpCfg                                                     
0081c0d0  chirpCount                                                   
0081c0c5  chirpMissedError                                             
007fad20  close                                                        
00817cc4  contModeCfg                                                  
0081c0f3  cpTestStatus                                                 
0081c0fb  cqDataVerifyTest                                             
0081c0f2  cqTestStatus                                                 
00818224  deviceHsiClk                                                 
008181d4  dualClkCompMonCfg                                            
00815c90  dynChirpCfg                                                  
0081c0b8  dynChirpTestStatus                                           
0081c0ef  eDMADataTransferDone                                         
0081bdec  edmaDbg                                                      
00819d7c  errno                                                        
00819f00  errorStatusCnt                                               
007fae00  exit                                                         
00817a88  extAnaSigMonCfg                                              
007f96c0  fflush                                                       
007fdde0  finddevice                                                   
007f1ea0  fputc                                                        
007eb400  fputs                                                        
00819d98  frameCfg                                                     
0081c0cc  frameCount                                                   
0081c0c8  framePeriodicity                                             
0080e260  free                                                         
008180c8  freqLimit                                                    
007f2060  frexp                                                        
007f2060  frexpl                                                       
007f97c0  fseek                                                        
00817cd8  gADCBufFxnTable                                              
00818028  gADCBufHwCfg                                                 
0081c114  gCRCRegister                                                 
0081c0c0  gCpTestResult                                                
0081c0bc  gCqTestResult                                                
0081c0c4  gDynChirpConfigNum                                           
0081c0fd  gDynamicChirpTest                                            
008177d0  gEdmaHwAttrs                                                 
0081c0e0  gFrameStartStatus                                            
0081c0d8  gInitTimeCalibStatus                                         
0081c0fa  gLinkAdvanceFrameTest                                        
0081c0fe  gLinkBpmEnableTest                                           
0081c0f9  gLinkCalibTest                                               
0081c0b0  gLinkChirpCnt                                                
0081c0fc  gLinkContModeTest                                            
0081c102  gLinkDig1TempSensor                                          
0081c101  gLinkEnableTx2                                               
0081c0b4  gLinkFrameCnt                                                
0081c128  gLinkFrameSem                                                
0081c0f8  gLinkMonitoringTest                                          
0081c0ff  gLinkProgFiltTest                                            
0081bdb0  gLinkSemParams                                               
0081c100  gLinkSubFrameTrigTest                                        
0081c0f4  gMCPILogMessageSize                                          
00819db0  gMailboxDssBssHwCfg                                          
00819dc8  gMailboxDssMssHwCfg                                          
00819a0c  gMailboxMCB                                                  
0081bdd4  gMmwaveLinkMCB                                               
0081c0e4  gMmwlChecksumFailAsyncEvent                                  
0081c0e8  gMmwlCrcFailAsyncEvent                                       
00818bac  gMonDataAeStrct                                              
0081c0d4  gMonitorHdrCnt                                               
0081c0ec  gMonitoringStatus                                            
0081c0dc  gRunTimeCalibStatus                                          
00819d00  gSOCHwAttrib                                                 
0081c12c  g_MailboxInterruptFunc                                       
008195a8  getChirpCfg                                                  
007f85a0  getdevice                                                    
00817ba4  gpAdcCfg                                                     
008181dc  gpadcIntAnaSigMonCfg                                         
0081c0f0  hit_count                                                    
00817c20  interRxGainPhCfg                                             
0081c0ee  isGetGpAdcMeasData                                           
0081c130  lastChirpIntTimeStamp                                        
007f2220  ldexp                                                        
007f2220  ldexpl                                                       
00818228  lowPowerModeCfg                                              
0080bee0  lseek                                                        
007ee7e0  main                                                         
0080b100  malloc                                                       
0080bf40  memccpy                                                      
007fde80  memcpy                                                       
007faee0  memset                                                       
008181e4  miscCfg                                                      
007fdf20  mmwaveLink_IFLoopBackConfig                                  
007fdfc0  mmwaveLink_PALoopBackConfig                                  
007fc060  mmwaveLink_PSLoopBackConfig                                  
007fff40  mmwaveLink_RxGainTempLutConfig                               
0080a400  mmwaveLink_RxGainTempLutRead                                 
0080a480  mmwaveLink_TxGainTempLutConfig                               
0080a500  mmwaveLink_TxGainTempLutRead                                 
007fe060  mmwaveLink_calibDataRestore                                  
0080a580  mmwaveLink_calibDataStore                                    
0080a600  mmwaveLink_configAckTimeout                                  
007fc120  mmwaveLink_digMonEnableConfig                                
007fe100  mmwaveLink_dynPerChirpPhaseShifterConfig                     
007fe1a0  mmwaveLink_getDfeRxStatisticsReport                          
007fc1e0  mmwaveLink_getDieIdStaus                                     
007f5c80  mmwaveLink_getTemperatureReport                              
0080a680  mmwaveLink_interRxGainConfig                                 
0080a700  mmwaveLink_miscConfig                                        
0080a780  mmwaveLink_perChirpPhaseShifterConfig                        
0080a800  mmwaveLink_phShiftCalibDataRestore                           
007fe240  mmwaveLink_phShiftCalibDataStore                             
007fc2a0  mmwaveLink_testSourceConfig                                  
0080a880  mmwaveLink_triggerSubframe                                   
00819a60  monAeCnt                                                     
00819ab0  monFailRepCheck                                              
00818038  monRxIfStageCfg                                              
0081c134  monTestCase                                                  
0081c138  monTestPassFlag                                              
0081be08  parmbuf                                                      
00819218  phShiftCalibData                                             
00818048  phaseShiftCfg                                                
008181ec  pllConVoltMonCfg                                             
008181f4  pmClkLoIntAnaSigMonCfg                                       
007fafc0  printf                                                       
00817368  profileCfg                                                   
0081822c  progFiltCfg                                                  
00817058  progFiltCoef                                                 
007f1ea0  putc                                                         
0080f1c0  putchar                                                      
00819b00  rcvGpAdcData                                                 
0081c118  regionId                                                     
0080b200  remove                                                       
00819a5c  retryNegativeTestCfg                                         
00819ec0  rfDevCfg                                                     
00818230  rfLdoBypassCfg                                               
0080e2a0  rlAppendDummy                                                
007fe2e0  rlAppendSubBlock                                             
0080e320  rlDeviceConfigureAckTimeout                                  
0080bfa0  rlDeviceGetMssVersion                                        
0080e2e0  rlDeviceGetRfVersion                                         
007f98c0  rlDeviceGetVersion                                           
0080a900  rlDeviceIdentifyCmdDir                                       
007f99c0  rlDevicePowerOff                                             
007f7360  rlDevicePowerOn                                              
0080c000  rlDeviceSetHsiClk                                            
007f86c0  rlDriverAsyncEventHandler                                    
007fc360  rlDriverCalChkSum                                            
007ebfa0  rlDriverCmdInvoke                                            
007eb720  rlDriverCmdSendRetry                                         
0080e320  rlDriverConfigureAckTimeout                                  
0080c060  rlDriverConstructInMsg                                       
0080f1e0  rlDriverConstructOutMsg                                      
007f2fa0  rlDriverDeInit                                               
007fc420  rlDriverExecuteGetApi                                        
007fc4e0  rlDriverExecuteSetApi                                        
0080e360  rlDriverFillPayload                                          
0080f200  rlDriverGetHandle                                            
0080f220  rlDriverGetPlatformId                                        
007fb0a0  rlDriverHostIrqHandler                                       
007edc20  rlDriverInit                                                 
0080f240  rlDriverIsDeviceMapValid                                     
007f23e0  rlDriverMsgCmdReply                                          
007ead40  rlDriverMsgRead                                              
007f5de0  rlDriverMsgReadCmdCtx                                        
007f74a0  rlDriverMsgReadSpawnCtx                                      
007f3140  rlDriverMsgWrite                                             
0080a980  rlDriverOsiInit                                              
007f87e0  rlDriverProcRdMsg                                            
007f0e40  rlDriverRdVerifyMsg                                          
007e96e0  rlDriverRxHdrRead                                            
007fb180  rlDriverValidateHdr                                          
007fe380  rlDriverVerifyCRC                                            
007f5f40  rlDriverWaitForResponse                                      
0080c0c0  rlEnableContMode                                             
007f60a0  rlGetAdvFrameConfig                                          
007eea20  rlGetChirpConfig                                             
007f32e0  rlGetFrameConfig                                             
007f75e0  rlGetProfileConfig                                           
0080e3a0  rlGetRfBootupStatus                                          
0080e3e0  rlGetRfDieId                                                 
007fc5a0  rlGetSubBlock                                                
0080f260  rlGetSubBlockId                                              
0080f280  rlGetSubBlockLen                                             
0080c120  rlRfAnaMonConfig                                             
007f6200  rlRfCalibDataRestore                                         
007f3480  rlRfCalibDataStore                                           
0080c180  rlRfDfeRxStatisticsReport                                    
0080c1e0  rlRfDigMonEnableConfig                                       
0080c240  rlRfDigMonPeriodicConfig                                     
0080c2a0  rlRfDualClkCompMonConfig                                     
0080c300  rlRfExtAnaSignalsMonConfig                                   
0080c360  rlRfGetTemperatureReport                                     
0080c3c0  rlRfGpadcIntAnaSignalsMonConfig                              
0080e420  rlRfInit                                                     
0080c420  rlRfInitCalibConfig                                          
0080c480  rlRfInterRxGainPhaseConfig                                   
007f3620  rlRfPhShiftCalibDataRestore                                  
007f0860  rlRfPhShiftCalibDataStore                                    
0080c4e0  rlRfPllContrlVoltMonConfig                                   
0080c540  rlRfPmClkLoIntAnaSignalsMonConfig                            
0080c5a0  rlRfRunTimeCalibConfig                                       
0080c600  rlRfRxGainPhMonConfig                                        
0080c660  rlRfRxIfSatMonConfig                                         
0080c6c0  rlRfRxIfStageMonConfig                                       
0080c720  rlRfRxIntAnaSignalsMonConfig                                 
0080c780  rlRfRxMixerInPwrConfig                                       
0080c7e0  rlRfRxNoiseMonConfig                                         
0080c840  rlRfRxSigImgMonConfig                                        
0080c8a0  rlRfSetCalMonFreqLimitConfig                                 
0080c900  rlRfSetCalMonTimeUnitConfig                                  
0080c960  rlRfSetDeviceCfg                                             
0080c9c0  rlRfSetIFLoopbackConfig                                      
0080ca20  rlRfSetLdoBypassConfig                                       
0080ca80  rlRfSetMiscConfig                                            
0080cae0  rlRfSetPALoopbackConfig                                      
0080cb40  rlRfSetPSLoopbackConfig                                      
007f37c0  rlRfSetPhaseShiftConfig                                      
0080cba0  rlRfSetProgFiltCoeffRam                                      
0080cc00  rlRfSetProgFiltConfig                                        
0080cc60  rlRfSynthFreqMonConfig                                       
0080ccc0  rlRfTempMonConfig                                            
007f6360  rlRfTxBallbreakMonConfig                                     
007f64c0  rlRfTxBpmMonConfig                                           
0080cd20  rlRfTxGainPhaseMismatchMonConfig                             
007f6620  rlRfTxIntAnaSignalsMonConfig                                 
007f6780  rlRfTxPowrMonConfig                                          
007f8900  rlRxGainTempLutGet                                           
0080cd80  rlRxGainTempLutSet                                           
0080cde0  rlSensorStart                                                
0080ce40  rlSensorStop                                                 
0080cea0  rlSetAdcOutConfig                                            
007f7720  rlSetAdvFrameConfig                                          
0080cf00  rlSetBpmChirpConfig                                          
0080cf60  rlSetBpmCommonConfig                                         
0080cfc0  rlSetChannelConfig                                           
007f3960  rlSetChirpConfig                                             
0080d020  rlSetContModeConfig                                          
007f8a20  rlSetDynChirpCfg                                             
0080d080  rlSetDynChirpEn                                              
007f3b00  rlSetDynPerChirpPhShifterCfg                                 
007f68e0  rlSetFrameConfig                                             
0080d0e0  rlSetGpAdcConfig                                             
0080d140  rlSetLoopBckBurstCfg                                         
0080d1a0  rlSetLowPowerModeConfig                                      
007f3ca0  rlSetMultiBpmChirpConfig                                     
007f3e40  rlSetMultiChirpCfg                                           
007f4e40  rlSetProfileConfig                                           
0080d200  rlSetSubFrameStart                                           
0080d260  rlSetTestSourceConfig                                        
0080d2c0  rlTestSourceEnable                                           
007f8b40  rlTxGainTempLutGet                                           
0080d320  rlTxGainTempLutSet                                           
008193a4  rl_rxMsg                                                     
008194a4  rl_txMsg                                                     
00817cec  runTimeCalib                                                 
00817688  rxGainPhaseMonCfg                                            
00819de0  rxGainTempLutData                                            
00818234  rxGainTempLutReadCfg                                         
008180d4  rxMixInpwrMonCfg                                             
008180e0  rxNoiseMonCfg                                                
00817d00  rxSatMonCfg                                                  
007f2220  scalbn                                                       
007f2220  scalbnl                                                      
007f25a0  setvbuf                                                      
008180ec  sigImgMonCfg                                                 
0080aa00  snprintf                                                     
00818238  subFrameTrigCfg                                              
008180f8  synthFreqMonCfg                                              
00817c38  synthFreqNonLiveMonCfg                                       
00817d14  tempMonCfg                                                   
008176cc  testSourceCfg                                                
0081823c  testSourceEn                                                 
00819cdc  ti_sysbios_BIOS_Module__state__V                             
0080e620  ti_sysbios_BIOS_RtsGateProxy_Handle__label__S                
0080f2a0  ti_sysbios_BIOS_RtsGateProxy_enter__E                        
0080f2c0  ti_sysbios_BIOS_RtsGateProxy_leave__E                        
0080f560  ti_sysbios_BIOS_RtsGateProxy_query__E                        
0080aa80  ti_sysbios_BIOS_atExitFunc__I                                
0080d380  ti_sysbios_BIOS_errorRaiseHook__I                            
0080e460  ti_sysbios_BIOS_exitFunc__I                                  
0080f2e0  ti_sysbios_BIOS_exit__E                                      
0080f300  ti_sysbios_BIOS_linkedWithIncorrectBootLibrary__E            
0080f320  ti_sysbios_BIOS_nullFunc__I                                  
0080ab00  ti_sysbios_BIOS_registerRTSLock__I                           
0080d3e0  ti_sysbios_BIOS_removeRTSLock__I                             
0080e4a0  ti_sysbios_BIOS_rtsLock__I                                   
0080e4e0  ti_sysbios_BIOS_rtsUnlock__I                                 
0080f340  ti_sysbios_BIOS_setThreadType__E                             
0080d440  ti_sysbios_BIOS_startFunc__I                                 
0080f360  ti_sysbios_BIOS_start__E                                     
0080f380  ti_sysbios_family_c62_TaskSupport_Module__startupDone__S     
0080e220  ti_sysbios_family_c62_TaskSupport_buildTaskStack             
0080f3a0  ti_sysbios_family_c62_TaskSupport_checkStack__E              
0080f3c0  ti_sysbios_family_c62_TaskSupport_getStackAlignment__E       
0080f180  ti_sysbios_family_c62_TaskSupport_glue                       
00818240  ti_sysbios_family_c62_TaskSupport_stackAlignment__C          
0080d4a0  ti_sysbios_family_c62_TaskSupport_start__E                   
007ffec0  ti_sysbios_family_c62_TaskSupport_swap__E                    
00818244  ti_sysbios_family_c64p_Cache_EMIFA_BASE__C                   
00818248  ti_sysbios_family_c64p_Cache_EMIFA_CFG__C                    
0081824c  ti_sysbios_family_c64p_Cache_EMIFA_LENGTH__C                 
00818250  ti_sysbios_family_c64p_Cache_EMIFB_BASE__C                   
00818254  ti_sysbios_family_c64p_Cache_EMIFB_CFG__C                    
00818258  ti_sysbios_family_c64p_Cache_EMIFB_LENGTH__C                 
0081825c  ti_sysbios_family_c64p_Cache_EMIFC_BASE__C                   
00818260  ti_sysbios_family_c64p_Cache_EMIFC_CFG__C                    
00818264  ti_sysbios_family_c64p_Cache_EMIFC_LENGTH__C                 
00818268  ti_sysbios_family_c64p_Cache_E_invalidL1CacheSize__C         
0081826c  ti_sysbios_family_c64p_Cache_E_invalidL2CacheSize__C         
00818270  ti_sysbios_family_c64p_Cache_MAR0_31__C                      
00818274  ti_sysbios_family_c64p_Cache_MAR128_159__C                   
00818278  ti_sysbios_family_c64p_Cache_MAR160_191__C                   
0081827c  ti_sysbios_family_c64p_Cache_MAR192_223__C                   
00818280  ti_sysbios_family_c64p_Cache_MAR224_255__C                   
00818284  ti_sysbios_family_c64p_Cache_MAR32_63__C                     
00818288  ti_sysbios_family_c64p_Cache_MAR64_95__C                     
0081828c  ti_sysbios_family_c64p_Cache_MAR96_127__C                    
0081528e  ti_sysbios_family_c64p_Cache_Module__id__C                   
00819efc  ti_sysbios_family_c64p_Cache_Module__state__V                
007ed4e0  ti_sysbios_family_c64p_Cache_Module_startup__E               
007ede80  ti_sysbios_family_c64p_Cache_block__I                        
007f7860  ti_sysbios_family_c64p_Cache_getL1DInitSize__I               
007f79a0  ti_sysbios_family_c64p_Cache_getL1PInitSize__I               
007f3fe0  ti_sysbios_family_c64p_Cache_getL2InitSize__I                
0080ab80  ti_sysbios_family_c64p_Cache_invL1pAll__E                    
00004000  ti_sysbios_family_c64p_Cache_l1dSize                         
00004000  ti_sysbios_family_c64p_Cache_l1pSize                         
00000000  ti_sysbios_family_c64p_Cache_l2Size                          
0080d500  ti_sysbios_family_c64p_Cache_setMar__E                       
0080f3e0  ti_sysbios_family_c64p_Cache_wbInv__E                        
00818290  ti_sysbios_family_c64p_EventCombiner_A_invalidEventId__C     
00818058  ti_sysbios_family_c64p_EventCombiner_EVTMASK__C              
00818294  ti_sysbios_family_c64p_EventCombiner_EVTRegs__C              
00818298  ti_sysbios_family_c64p_EventCombiner_E_unpluggedEvent__C     
0081829c  ti_sysbios_family_c64p_EventCombiner_Module__diagsEnabled__C 
008182a0  ti_sysbios_family_c64p_EventCombiner_Module__diagsIncluded__C
008182a4  ti_sysbios_family_c64p_EventCombiner_Module__diagsMask__C    
00816c56  ti_sysbios_family_c64p_EventCombiner_Module__id__C           
00818500  ti_sysbios_family_c64p_EventCombiner_Module__state__V        
0080d560  ti_sysbios_family_c64p_EventCombiner_Module_startup__E       
007f4180  ti_sysbios_family_c64p_EventCombiner_disableEvent__E         
007f1020  ti_sysbios_family_c64p_EventCombiner_dispatchPlug__E         
007eec60  ti_sysbios_family_c64p_EventCombiner_dispatch__E             
007f4320  ti_sysbios_family_c64p_EventCombiner_enableEvent__E          
0080d5c0  ti_sysbios_family_c64p_EventCombiner_unused__E               
008182a8  ti_sysbios_family_c64p_Exception_E_exceptionMax__C           
00817cae  ti_sysbios_family_c64p_Exception_Module__id__C               
00819c4c  ti_sysbios_family_c64p_Exception_Module__state__V            
007fe420  ti_sysbios_family_c64p_Exception_Module_startup__E           
007f4fc0  ti_sysbios_family_c64p_Exception_dispatch__E                 
008182ac  ti_sysbios_family_c64p_Exception_exceptionHook__C            
008182b0  ti_sysbios_family_c64p_Exception_externalHook__C             
007e5620  ti_sysbios_family_c64p_Exception_handler__I                  
007eeea0  ti_sysbios_family_c64p_Exception_internalHandler__I          
008182b4  ti_sysbios_family_c64p_Exception_internalHook__C             
008182b8  ti_sysbios_family_c64p_Exception_nmiHook__C                  
008184cc  ti_sysbios_family_c64p_Exception_useInternalBuffer__C        
007e0000  ti_sysbios_family_c64p_Hwi0                                  
008182bc  ti_sysbios_family_c64p_Hwi_E_alreadyDefined__C               
008182c0  ti_sysbios_family_c64p_Hwi_E_handleNotFound__C               
008182c4  ti_sysbios_family_c64p_Hwi_E_invalidIntNum__C                
008182c8  ti_sysbios_family_c64p_Hwi_INTRMUX1Address__C                
007f9cc0  ti_sysbios_family_c64p_Hwi_Instance_finalize__E              
007f8c60  ti_sysbios_family_c64p_Hwi_Instance_init__E                  
008182cc  ti_sysbios_family_c64p_Hwi_LD_end__C                         
008182d0  ti_sysbios_family_c64p_Hwi_LM_begin__C                       
008182d4  ti_sysbios_family_c64p_Hwi_Module__diagsEnabled__C           
008182d8  ti_sysbios_family_c64p_Hwi_Module__diagsIncluded__C          
008182dc  ti_sysbios_family_c64p_Hwi_Module__diagsMask__C              
008184ce  ti_sysbios_family_c64p_Hwi_Module__id__C                     
008184d0  ti_sysbios_family_c64p_Hwi_Module__loggerDefined__C          
008182e0  ti_sysbios_family_c64p_Hwi_Module__loggerFxn1__C             
008182e4  ti_sysbios_family_c64p_Hwi_Module__loggerFxn8__C             
008182e8  ti_sysbios_family_c64p_Hwi_Module__loggerObj__C              
00819f0c  ti_sysbios_family_c64p_Hwi_Module__root__V                   
0080f400  ti_sysbios_family_c64p_Hwi_Module__startupDone__F            
0080f400  ti_sysbios_family_c64p_Hwi_Module__startupDone__S            
00819940  ti_sysbios_family_c64p_Hwi_Module__state__V                  
007f6a40  ti_sysbios_family_c64p_Hwi_Module_startup__E                 
00817aa8  ti_sysbios_family_c64p_Hwi_Object__DESC__C                   
0081783c  ti_sysbios_family_c64p_Hwi_Object__PARAMS__C                 
00819df8  ti_sysbios_family_c64p_Hwi_Object__table__V                  
0080f420  ti_sysbios_family_c64p_Hwi_Params__init__S                   
0080f440  ti_sysbios_family_c64p_Hwi_clearInterrupt__E                 
007fc660  ti_sysbios_family_c64p_Hwi_create                            
0080e520  ti_sysbios_family_c64p_Hwi_disableInterrupt__E               
007f0660  ti_sysbios_family_c64p_Hwi_dispatchAlways                    
007fe4c0  ti_sysbios_family_c64p_Hwi_dispatchC__I                      
007ee0e0  ti_sysbios_family_c64p_Hwi_dispatchCore__I                   
0080e560  ti_sysbios_family_c64p_Hwi_enableInterrupt__E                
007fe560  ti_sysbios_family_c64p_Hwi_eventMap__E                       
007fe600  ti_sysbios_family_c64p_Hwi_getStackInfo__E                   
007e0000  ti_sysbios_family_c64p_Hwi_int0                              
007e0020  ti_sysbios_family_c64p_Hwi_int1                              
007e0140  ti_sysbios_family_c64p_Hwi_int10                             
007e0160  ti_sysbios_family_c64p_Hwi_int11                             
007e0180  ti_sysbios_family_c64p_Hwi_int12                             
007e01a0  ti_sysbios_family_c64p_Hwi_int13                             
007e01c0  ti_sysbios_family_c64p_Hwi_int14                             
007e01e0  ti_sysbios_family_c64p_Hwi_int15                             
007e0040  ti_sysbios_family_c64p_Hwi_int2                              
007e0060  ti_sysbios_family_c64p_Hwi_int3                              
007e0080  ti_sysbios_family_c64p_Hwi_int4                              
007e00a0  ti_sysbios_family_c64p_Hwi_int5                              
007e00c0  ti_sysbios_family_c64p_Hwi_int6                              
007e00e0  ti_sysbios_family_c64p_Hwi_int7                              
007e0100  ti_sysbios_family_c64p_Hwi_int8                              
007e0120  ti_sysbios_family_c64p_Hwi_int9                              
007fdd40  ti_sysbios_family_c64p_Hwi_plug__E                           
007f0020  ti_sysbios_family_c64p_Hwi_reconfig__E                       
0080f460  ti_sysbios_family_c64p_Hwi_startup__E                        
0080be20  ti_sysbios_family_c64p_Hwi_switchAndDispatch__I              
0080f480  ti_sysbios_family_c64p_Hwi_switchFromBootStack__E            
0080f4a0  ti_sysbios_family_c64p_Hwi_unPluggedInterrupt__I             
0080be80  ti_sysbios_family_xxx_Hwi_switchAndRunFunc                   
0080e5a0  ti_sysbios_gates_GateHwi_Handle__label__S                    
0080f4c0  ti_sysbios_gates_GateHwi_Instance_init__E                    
008179b8  ti_sysbios_gates_GateHwi_Module__FXNS__C                     
00819f14  ti_sysbios_gates_GateHwi_Module__root__V                     
00817ac8  ti_sysbios_gates_GateHwi_Object__DESC__C                     
00817c50  ti_sysbios_gates_GateHwi_Object__PARAMS__C                   
0080ac00  ti_sysbios_gates_GateHwi_Object__create__S                   
0080e5e0  ti_sysbios_gates_GateHwi_Object__delete__S                   
00819f88  ti_sysbios_gates_GateHwi_Object__table__V                    
0080f4e0  ti_sysbios_gates_GateHwi_enter__E                            
0080f500  ti_sysbios_gates_GateHwi_leave__E                            
0080f520  ti_sysbios_gates_GateHwi_query__E                            
008182ec  ti_sysbios_gates_GateMutex_A_badContext__C                   
0080e620  ti_sysbios_gates_GateMutex_Handle__label__S                  
008182f0  ti_sysbios_gates_GateMutex_Instance_State_sem__O             
0080f540  ti_sysbios_gates_GateMutex_Instance_finalize__E              
0080e660  ti_sysbios_gates_GateMutex_Instance_init__E                  
008179dc  ti_sysbios_gates_GateMutex_Module__FXNS__C                   
008182f4  ti_sysbios_gates_GateMutex_Module__diagsEnabled__C           
008182f8  ti_sysbios_gates_GateMutex_Module__diagsIncluded__C          
008182fc  ti_sysbios_gates_GateMutex_Module__diagsMask__C              
008184d2  ti_sysbios_gates_GateMutex_Module__id__C                     
00819f1c  ti_sysbios_gates_GateMutex_Module__root__V                   
00817ae8  ti_sysbios_gates_GateMutex_Object__DESC__C                   
00817c68  ti_sysbios_gates_GateMutex_Object__PARAMS__C                 
0080ac80  ti_sysbios_gates_GateMutex_Object__create__S                 
0080d620  ti_sysbios_gates_GateMutex_Object__delete__S                 
00819b90  ti_sysbios_gates_GateMutex_Object__table__V                  
007f1200  ti_sysbios_gates_GateMutex_enter__E                          
0080e6a0  ti_sysbios_gates_GateMutex_leave__E                          
0080f560  ti_sysbios_gates_GateMutex_query__E                          
00818300  ti_sysbios_hal_Hwi_E_stackOverflow__C                        
0080f400  ti_sysbios_hal_Hwi_HwiProxy_Module__startupDone__S           
0080f420  ti_sysbios_hal_Hwi_HwiProxy_Params__init__S                  
0080f440  ti_sysbios_hal_Hwi_HwiProxy_clearInterrupt__E                
0080e520  ti_sysbios_hal_Hwi_HwiProxy_disableInterrupt__E              
0080e560  ti_sysbios_hal_Hwi_HwiProxy_enableInterrupt__E               
007fe600  ti_sysbios_hal_Hwi_HwiProxy_getStackInfo__E                  
0080f460  ti_sysbios_hal_Hwi_HwiProxy_startup__E                       
0080f480  ti_sysbios_hal_Hwi_HwiProxy_switchFromBootStack__E           
008184d4  ti_sysbios_hal_Hwi_Module__id__C                             
0080f580  ti_sysbios_hal_Hwi_Module_startup__E                         
00819f28  ti_sysbios_hal_Hwi_Object__table__V                          
0080ad00  ti_sysbios_hal_Hwi_checkStack                                
0080f440  ti_sysbios_hal_Hwi_clearInterrupt__E                         
0080e520  ti_sysbios_hal_Hwi_disableInterrupt__E                       
0080e560  ti_sysbios_hal_Hwi_enableInterrupt__E                        
007fe600  ti_sysbios_hal_Hwi_getStackInfo__E                           
0080d680  ti_sysbios_hal_Hwi_initStack                                 
0080f460  ti_sysbios_hal_Hwi_startup__E                                
0080f480  ti_sysbios_hal_Hwi_switchFromBootStack__E                    
00818304  ti_sysbios_heaps_HeapBuf_Instance_State_freeList__O          
00819f24  ti_sysbios_heaps_HeapBuf_Module__state__V                    
007f44c0  ti_sysbios_heaps_HeapBuf_Module_startup__E                   
00818308  ti_sysbios_heaps_HeapBuf_Object__count__C                    
0080f5a0  ti_sysbios_heaps_HeapBuf_Object__get__S                      
0081830c  ti_sysbios_heaps_HeapBuf_numConstructedHeaps__C              
00818310  ti_sysbios_heaps_HeapMem_A_align__C                          
00818314  ti_sysbios_heaps_HeapMem_A_heapSize__C                       
00818318  ti_sysbios_heaps_HeapMem_A_invalidFree__C                    
0081831c  ti_sysbios_heaps_HeapMem_A_zeroBlock__C                      
00818320  ti_sysbios_heaps_HeapMem_E_memory__C                         
0080e6e0  ti_sysbios_heaps_HeapMem_Handle__label__S                    
00800000  ti_sysbios_heaps_HeapMem_Instance_State_0_buf__A             
007eba00  ti_sysbios_heaps_HeapMem_Instance_init__E                    
0080e620  ti_sysbios_heaps_HeapMem_Module_GateProxy_Handle__label__S   
0080f5c0  ti_sysbios_heaps_HeapMem_Module_GateProxy_enter__E           
0080f5e0  ti_sysbios_heaps_HeapMem_Module_GateProxy_leave__E           
0080f560  ti_sysbios_heaps_HeapMem_Module_GateProxy_query__E           
00817948  ti_sysbios_heaps_HeapMem_Module__FXNS__C                     
00818324  ti_sysbios_heaps_HeapMem_Module__diagsEnabled__C             
00818328  ti_sysbios_heaps_HeapMem_Module__diagsIncluded__C            
0081832c  ti_sysbios_heaps_HeapMem_Module__diagsMask__C                
00818330  ti_sysbios_heaps_HeapMem_Module__gateObj__C                  
008184d6  ti_sysbios_heaps_HeapMem_Module__id__C                       
00819f30  ti_sysbios_heaps_HeapMem_Module__root__V                     
00817b08  ti_sysbios_heaps_HeapMem_Object__DESC__C                     
00817a00  ti_sysbios_heaps_HeapMem_Object__PARAMS__C                   
00818334  ti_sysbios_heaps_HeapMem_Object__count__C                    
0080ad80  ti_sysbios_heaps_HeapMem_Object__create__S                   
0080e720  ti_sysbios_heaps_HeapMem_Object__delete__S                   
0080e760  ti_sysbios_heaps_HeapMem_Object__get__S                      
00819e10  ti_sysbios_heaps_HeapMem_Object__table__V                    
007e6a80  ti_sysbios_heaps_HeapMem_allocUnprotected__E                 
007fb260  ti_sysbios_heaps_HeapMem_alloc__E                            
007e76a0  ti_sysbios_heaps_HeapMem_freeUnprotected__E                  
0080d6e0  ti_sysbios_heaps_HeapMem_free__E                             
007fc720  ti_sysbios_heaps_HeapMem_getStats__E                         
0080ae00  ti_sysbios_heaps_HeapMem_init__I                             
0080f600  ti_sysbios_heaps_HeapMem_isBlocking__E                       
00818338  ti_sysbios_heaps_HeapMem_reqAlign__C                         
0081833c  ti_sysbios_knl_Clock_LM_begin__C                             
00818340  ti_sysbios_knl_Clock_LM_tick__C                              
00818344  ti_sysbios_knl_Clock_LW_delayed__C                           
00818348  ti_sysbios_knl_Clock_Module_State_clockQ__O                  
0081834c  ti_sysbios_knl_Clock_Module__diagsEnabled__C                 
00818350  ti_sysbios_knl_Clock_Module__diagsIncluded__C                
00818354  ti_sysbios_knl_Clock_Module__diagsMask__C                    
008184d8  ti_sysbios_knl_Clock_Module__id__C                           
008184da  ti_sysbios_knl_Clock_Module__loggerDefined__C                
00818358  ti_sysbios_knl_Clock_Module__loggerFxn1__C                   
0081835c  ti_sysbios_knl_Clock_Module__loggerFxn2__C                   
00818360  ti_sysbios_knl_Clock_Module__loggerObj__C                    
00819cb0  ti_sysbios_knl_Clock_Module__state__V                        
0080d740  ti_sysbios_knl_Clock_Module_startup__E                       
0080f7c0  ti_sysbios_knl_Clock_TimerProxy_Module__startupDone__S       
0080f620  ti_sysbios_knl_Clock_TimerProxy_getMaxTicks__E               
007f4800  ti_sysbios_knl_Clock_TimerProxy_startup__E                   
0080ae80  ti_sysbios_knl_Clock_doTick__I                               
007fc7e0  ti_sysbios_knl_Clock_logTick__E                              
007ec260  ti_sysbios_knl_Clock_workFunc__E                             
00818368  ti_sysbios_knl_Idle_funcList__A                              
008181fc  ti_sysbios_knl_Idle_funcList__C                              
0080f640  ti_sysbios_knl_Idle_loop__E                                  
0080af00  ti_sysbios_knl_Idle_run__E                                   
0080f660  ti_sysbios_knl_Queue_Instance_init__E                        
00819f38  ti_sysbios_knl_Queue_Module__root__V                         
00817b28  ti_sysbios_knl_Queue_Object__DESC__C                         
00817c80  ti_sysbios_knl_Queue_Object__PARAMS__C                       
0080f680  ti_sysbios_knl_Queue_Object__get__S                          
0080d7a0  ti_sysbios_knl_Queue_construct                               
0080f6a0  ti_sysbios_knl_Queue_destruct                                
0080f6c0  ti_sysbios_knl_Queue_empty__E                                
00818364  ti_sysbios_knl_Semaphore_A_badContext__C                     
0081836c  ti_sysbios_knl_Semaphore_A_noEvents__C                       
00818370  ti_sysbios_knl_Semaphore_A_overflow__C                       
00818374  ti_sysbios_knl_Semaphore_A_pendTaskDisabled__C               
00818378  ti_sysbios_knl_Semaphore_Instance_State_pendQ__O             
0080f6e0  ti_sysbios_knl_Semaphore_Instance_finalize__E                
007f7ae0  ti_sysbios_knl_Semaphore_Instance_init__E                    
0081837c  ti_sysbios_knl_Semaphore_LM_pend__C                          
00818380  ti_sysbios_knl_Semaphore_LM_post__C                          
00818384  ti_sysbios_knl_Semaphore_Module__diagsEnabled__C             
00818388  ti_sysbios_knl_Semaphore_Module__diagsIncluded__C            
0081838c  ti_sysbios_knl_Semaphore_Module__diagsMask__C                
008184dc  ti_sysbios_knl_Semaphore_Module__id__C                       
008184de  ti_sysbios_knl_Semaphore_Module__loggerDefined__C            
00818390  ti_sysbios_knl_Semaphore_Module__loggerFxn2__C               
00818394  ti_sysbios_knl_Semaphore_Module__loggerFxn4__C               
00818398  ti_sysbios_knl_Semaphore_Module__loggerObj__C                
00819f40  ti_sysbios_knl_Semaphore_Module__root__V                     
00817b48  ti_sysbios_knl_Semaphore_Object__DESC__C                     
00817a24  ti_sysbios_knl_Semaphore_Object__PARAMS__C                   
0080d800  ti_sysbios_knl_Semaphore_Object__delete__S                   
0080f700  ti_sysbios_knl_Semaphore_Params__init__S                     
0080d860  ti_sysbios_knl_Semaphore_construct                           
0080af80  ti_sysbios_knl_Semaphore_create                              
0080f720  ti_sysbios_knl_Semaphore_delete                              
0080e7a0  ti_sysbios_knl_Semaphore_destruct                            
0080b000  ti_sysbios_knl_Semaphore_pendTimeout__I                      
007e4e60  ti_sysbios_knl_Semaphore_pend__E                             
007eb0a0  ti_sysbios_knl_Semaphore_post__E                             
0081839c  ti_sysbios_knl_Swi_LD_end__C                                 
008183a0  ti_sysbios_knl_Swi_LM_begin__C                               
008183a4  ti_sysbios_knl_Swi_LM_post__C                                
008197c8  ti_sysbios_knl_Swi_Module_State_0_readyQ__A                  
008183a8  ti_sysbios_knl_Swi_Module__diagsEnabled__C                   
008183ac  ti_sysbios_knl_Swi_Module__diagsIncluded__C                  
008183b0  ti_sysbios_knl_Swi_Module__diagsMask__C                      
008184e0  ti_sysbios_knl_Swi_Module__id__C                             
008184e2  ti_sysbios_knl_Swi_Module__loggerDefined__C                  
008183b4  ti_sysbios_knl_Swi_Module__loggerFxn1__C                     
008183b8  ti_sysbios_knl_Swi_Module__loggerFxn4__C                     
008183bc  ti_sysbios_knl_Swi_Module__loggerObj__C                      
00819d60  ti_sysbios_knl_Swi_Module__state__V                          
0080d8c0  ti_sysbios_knl_Swi_Module_startup__E                         
008183c0  ti_sysbios_knl_Swi_Object__count__C                          
0080e7e0  ti_sysbios_knl_Swi_Object__get__S                            
00819c80  ti_sysbios_knl_Swi_Object__table__V                          
0080f740  ti_sysbios_knl_Swi_disable__E                                
007f6ba0  ti_sysbios_knl_Swi_post__E                                   
007f8d80  ti_sysbios_knl_Swi_restoreHwi__E                             
007fb340  ti_sysbios_knl_Swi_runLoop__I                                
007f0240  ti_sysbios_knl_Swi_run__I                                    
007f9dc0  ti_sysbios_knl_Swi_schedule__I                               
007fb420  ti_sysbios_knl_Swi_startup__E                                
008183c4  ti_sysbios_knl_Task_A_badPriority__C                         
008183c8  ti_sysbios_knl_Task_A_badTaskState__C                        
008183cc  ti_sysbios_knl_Task_A_badThreadType__C                       
008183d0  ti_sysbios_knl_Task_A_badTimeout__C                          
008183d4  ti_sysbios_knl_Task_A_noPendElem__C                          
008183d8  ti_sysbios_knl_Task_A_sleepTaskDisabled__C                   
008183dc  ti_sysbios_knl_Task_E_spOutOfBounds__C                       
008183e0  ti_sysbios_knl_Task_E_stackOverflow__C                       
0081af98  ti_sysbios_knl_Task_Instance_State_0_stack__A                
007e7c60  ti_sysbios_knl_Task_Instance_finalize__E                     
007ea280  ti_sysbios_knl_Task_Instance_init__E                         
008183e4  ti_sysbios_knl_Task_LD_block__C                              
008183e8  ti_sysbios_knl_Task_LD_exit__C                               
008183ec  ti_sysbios_knl_Task_LD_ready__C                              
008183f0  ti_sysbios_knl_Task_LM_sleep__C                              
008183f4  ti_sysbios_knl_Task_LM_switch__C                             
00819f90  ti_sysbios_knl_Task_Module_State_0_idleTask__A               
00819848  ti_sysbios_knl_Task_Module_State_0_readyQ__A                 
008183f8  ti_sysbios_knl_Task_Module_State_inactiveQ__O                
008183fc  ti_sysbios_knl_Task_Module__diagsEnabled__C                  
00818400  ti_sysbios_knl_Task_Module__diagsIncluded__C                 
00818404  ti_sysbios_knl_Task_Module__diagsMask__C                     
008184e4  ti_sysbios_knl_Task_Module__id__C                            
008184e6  ti_sysbios_knl_Task_Module__loggerDefined__C                 
00818408  ti_sysbios_knl_Task_Module__loggerFxn2__C                    
0081840c  ti_sysbios_knl_Task_Module__loggerFxn4__C                    
00818410  ti_sysbios_knl_Task_Module__loggerObj__C                     
00819f48  ti_sysbios_knl_Task_Module__root__V                          
00819b48  ti_sysbios_knl_Task_Module__state__V                         
007e9ae0  ti_sysbios_knl_Task_Module_startup__E                        
00817b68  ti_sysbios_knl_Task_Object__DESC__C                          
00817710  ti_sysbios_knl_Task_Object__PARAMS__C                        
00818414  ti_sysbios_knl_Task_Object__count__C                         
0080e820  ti_sysbios_knl_Task_Object__get__S                           
008199b0  ti_sysbios_knl_Task_Object__table__V                         
0080f760  ti_sysbios_knl_Task_Params__init__S                          
0080f380  ti_sysbios_knl_Task_SupportProxy_Module__startupDone__S      
0080f3a0  ti_sysbios_knl_Task_SupportProxy_checkStack__E               
0080f3c0  ti_sysbios_knl_Task_SupportProxy_getStackAlignment__E        
0080d4a0  ti_sysbios_knl_Task_SupportProxy_start__E                    
007ffec0  ti_sysbios_knl_Task_SupportProxy_swap__E                     
00818418  ti_sysbios_knl_Task_allBlockedFunc__C                        
007fc8a0  ti_sysbios_knl_Task_allBlockedFunction__I                    
007f7c20  ti_sysbios_knl_Task_blockI__E                                
007f2760  ti_sysbios_knl_Task_checkStacks__E                           
007fc960  ti_sysbios_knl_Task_create                                   
0081841c  ti_sysbios_knl_Task_defaultStackHeap__C                      
00818420  ti_sysbios_knl_Task_defaultStackSize__C                      
0080f780  ti_sysbios_knl_Task_disable__E                               
0080d920  ti_sysbios_knl_Task_enter__I                                 
007f13e0  ti_sysbios_knl_Task_exit__E                                  
00818424  ti_sysbios_knl_Task_numConstructedTasks__C                   
007f5140  ti_sysbios_knl_Task_postInit__I                              
0080b080  ti_sysbios_knl_Task_processVitalTaskFlag__I                  
007f4660  ti_sysbios_knl_Task_schedule__I                              
0080e860  ti_sysbios_knl_Task_sleepTimeout__I                          
007e8180  ti_sysbios_knl_Task_sleep__E                                 
007f52c0  ti_sysbios_knl_Task_startCore__E                             
0080f7a0  ti_sysbios_knl_Task_startup__E                               
007f8ea0  ti_sysbios_knl_Task_unblockI__E                              
00818428  ti_sysbios_timers_rti_Timer_E_cannotSupport__C               
00819e28  ti_sysbios_timers_rti_Timer_Module_State_0_device__A         
00819f50  ti_sysbios_timers_rti_Timer_Module_State_0_handles__A        
00819e40  ti_sysbios_timers_rti_Timer_Module_State_0_intFreqs__A       
0081842c  ti_sysbios_timers_rti_Timer_Module__diagsEnabled__C          
00818430  ti_sysbios_timers_rti_Timer_Module__diagsIncluded__C         
00818434  ti_sysbios_timers_rti_Timer_Module__diagsMask__C             
008184e8  ti_sysbios_timers_rti_Timer_Module__id__C                    
0080f7c0  ti_sysbios_timers_rti_Timer_Module__startupDone__F           
0080f7c0  ti_sysbios_timers_rti_Timer_Module__startupDone__S           
00819e50  ti_sysbios_timers_rti_Timer_Module__state__V                 
007e8660  ti_sysbios_timers_rti_Timer_Module_startup__E                
00819c10  ti_sysbios_timers_rti_Timer_Object__table__V                 
008184ea  ti_sysbios_timers_rti_Timer_continueOnSuspend__C             
007ef0e0  ti_sysbios_timers_rti_Timer_getFreq__E                       
0080f7e0  ti_sysbios_timers_rti_Timer_getMaxTicks__E                   
007f7d60  ti_sysbios_timers_rti_Timer_initDevice__I                    
00818438  ti_sysbios_timers_rti_Timer_numTimerDevices__C               
0080e8a0  ti_sysbios_timers_rti_Timer_periodicStub__E                  
0081843c  ti_sysbios_timers_rti_Timer_startupNeeded__C                 
007f4800  ti_sysbios_timers_rti_Timer_startup__E                       
0080b180  ti_sysbios_timers_rti_Timer_stop__E                          
00819ed8  tx0BallBreakMonCfg                                           
00819e60  tx0BpmMonCfg                                                 
00819f58  tx0IntAnaSigMonCfg                                           
00819e70  tx0PowMonCfg                                                 
00819ee4  tx1BallBreakMonCfg                                           
00819e80  tx1BpmMonCfg                                                 
00819f60  tx1IntAnaSigMonCfg                                           
00819e90  tx1PowMonCfg                                                 
00819ef0  tx2BallBreakMonCfg                                           
00819ea0  tx2BpmMonCfg                                                 
00819f68  tx2IntAnaSigMonCfg                                           
00819eb0  tx2PowMonCfg                                                 
00817808  txGainPhMisMatchMonCfg                                       
00819bd0  txGainTempLutData                                            
00818440  txGainTempLutReadCfg                                         
0080b200  unlink                                                       
0080e8e0  wcslen                                                       
0080d980  write                                                        
00818444  xdc_runtime_Assert_E_assertFailed__C                         
007fcae0  xdc_runtime_Assert_raise__I                                  
00818448  xdc_runtime_Core_A_initializedParams__C                      
0081844c  xdc_runtime_Core_Module__diagsEnabled__C                     
00818450  xdc_runtime_Core_Module__diagsIncluded__C                    
00818454  xdc_runtime_Core_Module__diagsMask__C                        
008184ec  xdc_runtime_Core_Module__id__C                               
0080b280  xdc_runtime_Core_assignLabel__I                              
007fe6a0  xdc_runtime_Core_assignParams__I                             
007f49a0  xdc_runtime_Core_constructObject__I                          
007ef320  xdc_runtime_Core_createObject__I                             
007f7ea0  xdc_runtime_Core_deleteObject__I                             
00818458  xdc_runtime_Error_E_memory__C                                
00819d20  xdc_runtime_Error_IgnoreBlock                                
0081845c  xdc_runtime_Error_Module__diagsEnabled__C                    
00818460  xdc_runtime_Error_Module__diagsIncluded__C                   
00818464  xdc_runtime_Error_Module__diagsMask__C                       
008184ee  xdc_runtime_Error_Module__loggerDefined__C                   
00818468  xdc_runtime_Error_Module__loggerFxn8__C                      
0081846c  xdc_runtime_Error_Module__loggerObj__C                       
00819f0a  xdc_runtime_Error_Module__state__V                           
0080e920  xdc_runtime_Error_check__E                                   
0080f800  xdc_runtime_Error_getSite__E                                 
0080e960  xdc_runtime_Error_init__E                                    
008184f0  xdc_runtime_Error_maxDepth__C                                
007f0a60  xdc_runtime_Error_policyDefault__E                           
00818470  xdc_runtime_Error_policyFxn__C                               
00818474  xdc_runtime_Error_policy__C                                  
007f9ec0  xdc_runtime_Error_print__E                                   
00818478  xdc_runtime_Error_raiseHook__C                               
0080f820  xdc_runtime_Error_raiseX__E                                  
007fcba0  xdc_runtime_Error_setX__E                                    
0080f840  xdc_runtime_Gate_enterSystem__E                              
0080f860  xdc_runtime_Gate_leaveSystem__E                              
0081847c  xdc_runtime_IGateProvider_Interface__BASE__C                 
00818480  xdc_runtime_IHeap_Interface__BASE__C                         
00818484  xdc_runtime_IModule_Interface__BASE__C                       
00818488  xdc_runtime_Log_L_error__C                                   
0080e5a0  xdc_runtime_Main_Module_GateProxy_Handle__label__S           
0080f520  xdc_runtime_Main_Module_GateProxy_query__E                   
008184f2  xdc_runtime_Main_Module__id__C                               
0080e6e0  xdc_runtime_Memory_HeapProxy_Handle__label__S                
0080f880  xdc_runtime_Memory_HeapProxy_alloc__E                        
0080f8a0  xdc_runtime_Memory_HeapProxy_free__E                         
008184f4  xdc_runtime_Memory_Module__id__C                             
00819f8c  xdc_runtime_Memory_Module__state__V                          
007f9fc0  xdc_runtime_Memory_alloc__E                                  
0080f8c0  xdc_runtime_Memory_calloc__E                                 
0081848c  xdc_runtime_Memory_defaultHeapInstance__C                    
0080f8e0  xdc_runtime_Memory_free__E                                   
0080f900  xdc_runtime_Memory_getMaxDefaultTypeAlign__E                 
0080d9e0  xdc_runtime_Memory_valloc__E                                 
00819f70  xdc_runtime_Registry_Module__state__V                        
0080e9a0  xdc_runtime_Registry_findById__E                             
00819f78  xdc_runtime_Startup_Module__state__V                         
00000001  xdc_runtime_Startup__EXECFXN__C                              
00000001  xdc_runtime_Startup__RESETFXN__C                             
00818490  xdc_runtime_Startup_execImpl__C                              
007fa0c0  xdc_runtime_Startup_exec__E                                  
0080f920  xdc_runtime_Startup_exec__I                                  
00818208  xdc_runtime_Startup_firstFxns__A                             
00818210  xdc_runtime_Startup_firstFxns__C                             
00818218  xdc_runtime_Startup_lastFxns__C                              
00818494  xdc_runtime_Startup_maxPasses__C                             
0080f940  xdc_runtime_Startup_reset__I                                 
0080f960  xdc_runtime_Startup_rtsDone__E                               
00817c98  xdc_runtime_Startup_sfxnRts__A                               
00818498  xdc_runtime_Startup_sfxnRts__C                               
008178f0  xdc_runtime_Startup_sfxnTab__A                               
0081849c  xdc_runtime_Startup_sfxnTab__C                               
007ee340  xdc_runtime_Startup_startMods__I                             
0080b300  xdc_runtime_SysStd_abort__E                                  
0080f980  xdc_runtime_SysStd_exit__E                                   
0080f9a0  xdc_runtime_SysStd_putch__E                                  
0080f9c0  xdc_runtime_SysStd_ready__E                                  
0080e5a0  xdc_runtime_System_Module_GateProxy_Handle__label__S         
0080f9e0  xdc_runtime_System_Module_GateProxy_enter__E                 
0080fa00  xdc_runtime_System_Module_GateProxy_leave__E                 
0080f520  xdc_runtime_System_Module_GateProxy_query__E                 
00819d40  xdc_runtime_System_Module_State_0_atexitHandlers__A          
008184a0  xdc_runtime_System_Module__gateObj__C                        
00819f80  xdc_runtime_System_Module__state__V                          
0080fa20  xdc_runtime_System_Module_startup__E                         
0080b300  xdc_runtime_System_SupportProxy_abort__E                     
0080f980  xdc_runtime_System_SupportProxy_exit__E                      
0080f9a0  xdc_runtime_System_SupportProxy_putch__E                     
0080f9c0  xdc_runtime_System_SupportProxy_ready__E                     
008184a4  xdc_runtime_System_abortFxn__C                               
0080f1a0  xdc_runtime_System_abortStd__E                               
0080e9e0  xdc_runtime_System_abort__E                                  
0080ea20  xdc_runtime_System_aprintf__E                                
0080b400  xdc_runtime_System_aprintf_va__E                             
0080b400  xdc_runtime_System_aprintf_va__F                             
0080b380  xdc_runtime_System_atexit__E                                 
0080b400  xdc_runtime_System_avprintf__E                               
007e45c0  xdc_runtime_System_doPrint__I                                
008184a8  xdc_runtime_System_exitFxn__C                                
007fae00  xdc_runtime_System_exitStd__E                                
0080ea60  xdc_runtime_System_exit__E                                   
008184ac  xdc_runtime_System_extendFxn__C                              
007fe740  xdc_runtime_System_formatNum__I                              
008184b0  xdc_runtime_System_maxAtexitHandlers__C                      
007ef560  xdc_runtime_System_printfExtend__I                           
0080eaa0  xdc_runtime_System_printf__E                                 
0080b500  xdc_runtime_System_printf_va__E                              
0080b500  xdc_runtime_System_printf_va__F                              
0080b480  xdc_runtime_System_processAtExit__E                          
007fe7e0  xdc_runtime_System_putchar__I                                
0080fa40  xdc_runtime_System_snprintf_va__E                            
0080fa40  xdc_runtime_System_snprintf_va__F                            
0080b500  xdc_runtime_System_vprintf__E                                
0080fa40  xdc_runtime_System_vsnprintf__E                              
008184f6  xdc_runtime_Text_charCnt__C                                  
008138d0  xdc_runtime_Text_charTab__A                                  
008184b4  xdc_runtime_Text_charTab__C                                  
0080da40  xdc_runtime_Text_cordText__E                                 
008184f8  xdc_runtime_Text_isLoaded__C                                 
008184b8  xdc_runtime_Text_nameEmpty__C                                
008184bc  xdc_runtime_Text_nameStatic__C                               
008184c0  xdc_runtime_Text_nameUnknown__C                              
00817128  xdc_runtime_Text_nodeTab__A                                  
008184c4  xdc_runtime_Text_nodeTab__C                                  
007fe880  xdc_runtime_Text_printVisFxn__I                              
007f7fe0  xdc_runtime_Text_putLab__E                                   
007f6d00  xdc_runtime_Text_putMod__E                                   
007f15c0  xdc_runtime_Text_putSite__E                                  
008184fa  xdc_runtime_Text_registryModsLastId__C                       
0080fa60  xdc_runtime_Text_ropeText__E                                 
008184fc  xdc_runtime_Text_unnamedModsLastId__C                        
007fb500  xdc_runtime_Text_visitRope2__I                               
008184c8  xdc_runtime_Text_visitRopeFxn__C                             
0080fa80  xdc_runtime_Text_visitRope__I                                
007fe920  xdc_runtime_Text_xprintf__I                                  


GLOBAL SYMBOLS: SORTED BY Symbol Address 

address   name                                                         
-------   ----                                                         
00000000  __ASM__                                                      
00000000  ti_sysbios_family_c64p_Cache_l2Size                          
00000001  xdc_runtime_Startup__EXECFXN__C                              
00000001  xdc_runtime_Startup__RESETFXN__C                             
00000088  __ISA__                                                      
000000a0  __PLAT__                                                     
000000c0  __TARG__                                                     
000000e8  __TRDR__                                                     
00001000  __TI_STACK_SIZE                                              
00004000  ti_sysbios_family_c64p_Cache_l1dSize                         
00004000  ti_sysbios_family_c64p_Cache_l1pSize                         
007e0000  ti_sysbios_family_c64p_Hwi0                                  
007e0000  ti_sysbios_family_c64p_Hwi_int0                              
007e0020  ti_sysbios_family_c64p_Hwi_int1                              
007e0040  ti_sysbios_family_c64p_Hwi_int2                              
007e0060  ti_sysbios_family_c64p_Hwi_int3                              
007e0080  ti_sysbios_family_c64p_Hwi_int4                              
007e00a0  ti_sysbios_family_c64p_Hwi_int5                              
007e00c0  ti_sysbios_family_c64p_Hwi_int6                              
007e00e0  ti_sysbios_family_c64p_Hwi_int7                              
007e0100  ti_sysbios_family_c64p_Hwi_int8                              
007e0120  ti_sysbios_family_c64p_Hwi_int9                              
007e0140  ti_sysbios_family_c64p_Hwi_int10                             
007e0160  ti_sysbios_family_c64p_Hwi_int11                             
007e0180  ti_sysbios_family_c64p_Hwi_int12                             
007e01a0  ti_sysbios_family_c64p_Hwi_int13                             
007e01c0  ti_sysbios_family_c64p_Hwi_int14                             
007e01e0  ti_sysbios_family_c64p_Hwi_int15                             
007e0200  __TI_printfi                                                 
007e21e0  MmwaveLink_startTest                                         
007e3ca0  MmwaveLink_CheckMonitoringReport                             
007e45c0  xdc_runtime_System_doPrint__I                                
007e4e60  ti_sysbios_knl_Semaphore_pend__E                             
007e5620  ti_sysbios_family_c64p_Exception_handler__I                  
007e5da0  ADCBUF_MMWave_control                                        
007e6a80  ti_sysbios_heaps_HeapMem_allocUnprotected__E                 
007e70a0  __c6xabi_divd                                                
007e76a0  ti_sysbios_heaps_HeapMem_freeUnprotected__E                  
007e7c60  ti_sysbios_knl_Task_Instance_finalize__E                     
007e8180  ti_sysbios_knl_Task_sleep__E                                 
007e8660  ti_sysbios_timers_rti_Timer_Module_startup__E                
007e8aa0  Mailbox_open                                                 
007e8ec0  MmwaveLink_getDynChirpConfig                                 
007e96e0  rlDriverRxHdrRead                                            
007e9ae0  ti_sysbios_knl_Task_Module_startup__E                        
007e9ec0  MmwaveLink_monitoring                                        
007ea280  ti_sysbios_knl_Task_Instance_init__E                         
007ea640  MmwaveLink_printMonitoringResult                             
007ea9e0  CRC_open                                                     
007ead40  rlDriverMsgRead                                              
007eb0a0  ti_sysbios_knl_Semaphore_post__E                             
007eb400  fputs                                                        
007eb720  rlDriverCmdSendRetry                                         
007eba00  ti_sysbios_heaps_HeapMem_Instance_init__E                    
007ebce0  EDMA_configChannel                                           
007ebfa0  rlDriverCmdInvoke                                            
007ec260  ti_sysbios_knl_Clock_workFunc__E                             
007ec520  CRC_computeSignature                                         
007ec7c0  EDMA_open                                                    
007eca60  MmwaveLink_getProfileConfig                                  
007ecd00  MmwaveLink_initLink                                          
007ed4e0  ti_sysbios_family_c64p_Cache_Module_startup__E               
007ed760  MCPI_setFeatureTestResult                                    
007ed9c0  __c6xabi_divull                                              
007edc20  rlDriverInit                                                 
007ede80  ti_sysbios_family_c64p_Cache_block__I                        
007ee0e0  ti_sysbios_family_c64p_Hwi_dispatchCore__I                   
007ee340  xdc_runtime_Startup_startMods__I                             
007ee7e0  main                                                         
007eea20  rlGetChirpConfig                                             
007eec60  ti_sysbios_family_c64p_EventCombiner_dispatch__E             
007eeea0  ti_sysbios_family_c64p_Exception_internalHandler__I          
007ef0e0  ti_sysbios_timers_rti_Timer_getFreq__E                       
007ef320  xdc_runtime_Core_createObject__I                             
007ef560  xdc_runtime_System_printfExtend__I                           
007ef9c0  Mailbox_write                                                
007efbe0  MmwaveLink_monTest1                                          
007efe00  MmwaveLink_subframeStart                                     
007f0020  ti_sysbios_family_c64p_Hwi_reconfig__E                       
007f0240  ti_sysbios_knl_Swi_run__I                                    
007f0660  ti_sysbios_family_c64p_Hwi_dispatchAlways                    
007f0860  rlRfPhShiftCalibDataStore                                    
007f0a60  xdc_runtime_Error_policyDefault__E                           
007f0c60  EDMA_init                                                    
007f0e40  rlDriverRdVerifyMsg                                          
007f1020  ti_sysbios_family_c64p_EventCombiner_dispatchPlug__E         
007f1200  ti_sysbios_gates_GateMutex_enter__E                          
007f13e0  ti_sysbios_knl_Task_exit__E                                  
007f15c0  xdc_runtime_Text_putSite__E                                  
007f17a0  Mailbox_read                                                 
007f1960  MmwaveLink_VerifyCQData                                      
007f1b20  MmwaveLink_negativeTest                                      
007f1ce0  __c6xabi_divul                                               
007f1ea0  fputc                                                        
007f1ea0  putc                                                         
007f2060  frexp                                                        
007f2060  frexpl                                                       
007f2220  ldexp                                                        
007f2220  ldexpl                                                       
007f2220  scalbn                                                       
007f2220  scalbnl                                                      
007f23e0  rlDriverMsgCmdReply                                          
007f25a0  setvbuf                                                      
007f2760  ti_sysbios_knl_Task_checkStacks__E                           
007f2920  ADCBUF_MMWave_open                                           
007f2c60  HOSTrename                                                   
007f2e00  MmwaveLink_VerifyCPData                                      
007f2fa0  rlDriverDeInit                                               
007f3140  rlDriverMsgWrite                                             
007f32e0  rlGetFrameConfig                                             
007f3480  rlRfCalibDataStore                                           
007f3620  rlRfPhShiftCalibDataRestore                                  
007f37c0  rlRfSetPhaseShiftConfig                                      
007f3960  rlSetChirpConfig                                             
007f3b00  rlSetDynPerChirpPhShifterCfg                                 
007f3ca0  rlSetMultiBpmChirpConfig                                     
007f3e40  rlSetMultiChirpCfg                                           
007f3fe0  ti_sysbios_family_c64p_Cache_getL2InitSize__I                
007f4180  ti_sysbios_family_c64p_EventCombiner_disableEvent__E         
007f4320  ti_sysbios_family_c64p_EventCombiner_enableEvent__E          
007f44c0  ti_sysbios_heaps_HeapBuf_Module_startup__E                   
007f4660  ti_sysbios_knl_Task_schedule__I                              
007f4800  ti_sysbios_knl_Clock_TimerProxy_startup__E                   
007f4800  ti_sysbios_timers_rti_Timer_startup__E                       
007f49a0  xdc_runtime_Core_constructObject__I                          
007f4cc0  MmwaveLink_adcBufConfig                                      
007f4e40  rlSetProfileConfig                                           
007f4fc0  ti_sysbios_family_c64p_Exception_dispatch__E                 
007f5140  ti_sysbios_knl_Task_postInit__I                              
007f52c0  ti_sysbios_knl_Task_startCore__E                             
007f55a0  Mailbox_close                                                
007f5700  MmwaveLink_getFrameConfig                                    
007f5860  MmwaveLink_getVersion                                        
007f59c0  MmwaveLink_verifyRxGainPhRep                                 
007f5b20  SOC_registerSysIntListener                                   
007f5c80  mmwaveLink_getTemperatureReport                              
007f5de0  rlDriverMsgReadCmdCtx                                        
007f5f40  rlDriverWaitForResponse                                      
007f60a0  rlGetAdvFrameConfig                                          
007f6200  rlRfCalibDataRestore                                         
007f6360  rlRfTxBallbreakMonConfig                                     
007f64c0  rlRfTxBpmMonConfig                                           
007f6620  rlRfTxIntAnaSignalsMonConfig                                 
007f6780  rlRfTxPowrMonConfig                                          
007f68e0  rlSetFrameConfig                                             
007f6a40  ti_sysbios_family_c64p_Hwi_Module_startup__E                 
007f6ba0  ti_sysbios_knl_Swi_post__E                                   
007f6d00  xdc_runtime_Text_putMod__E                                   
007f6e60  EDMA3Init                                                    
007f70e0  Mmwavelink_frameInterrupCallBackFunc                         
007f7220  SOC_init                                                     
007f7360  rlDevicePowerOn                                              
007f74a0  rlDriverMsgReadSpawnCtx                                      
007f75e0  rlGetProfileConfig                                           
007f7720  rlSetAdvFrameConfig                                          
007f7860  ti_sysbios_family_c64p_Cache_getL1DInitSize__I               
007f79a0  ti_sysbios_family_c64p_Cache_getL1PInitSize__I               
007f7ae0  ti_sysbios_knl_Semaphore_Instance_init__E                    
007f7c20  ti_sysbios_knl_Task_blockI__E                                
007f7d60  ti_sysbios_timers_rti_Timer_initDevice__I                    
007f7ea0  xdc_runtime_Core_deleteObject__I                             
007f7fe0  xdc_runtime_Text_putLab__E                                   
007f8120  ADCBUF_MMWave_getChanBufAddr                                 
007f8240  MmwaveLink_getAdvFrameConfig                                 
007f8360  _auto_init_elf                                               
007f85a0  getdevice                                                    
007f86c0  rlDriverAsyncEventHandler                                    
007f87e0  rlDriverProcRdMsg                                            
007f8900  rlRxGainTempLutGet                                           
007f8a20  rlSetDynChirpCfg                                             
007f8b40  rlTxGainTempLutGet                                           
007f8c60  ti_sysbios_family_c64p_Hwi_Instance_init__E                  
007f8d80  ti_sysbios_knl_Swi_restoreHwi__E                             
007f8ea0  ti_sysbios_knl_Task_unblockI__E                              
007f8fc0  Mailbox_readFlush                                            
007f91c0  MmwaveLink_rlSetLoopBackBurstCfg                             
007f92c0  SOC_deviceInit                                               
007f93c0  __TI_closefile                                               
007f95c0  atoi                                                         
007f96c0  fflush                                                       
007f97c0  fseek                                                        
007f98c0  rlDeviceGetVersion                                           
007f99c0  rlDevicePowerOff                                             
007f9cc0  ti_sysbios_family_c64p_Hwi_Instance_finalize__E              
007f9dc0  ti_sysbios_knl_Swi_schedule__I                               
007f9ec0  xdc_runtime_Error_print__E                                   
007f9fc0  xdc_runtime_Memory_alloc__E                                  
007fa0c0  xdc_runtime_Startup_exec__E                                  
007fa1c0  CRC_getTransactionId                                         
007fa380  HOSTlseek                                                    
007fa460  HOSTopen                                                     
007fa540  HOSTwrite                                                    
007fa700  Mailbox_init                                                 
007fa7e0  MmwaveLink_ConfigEdma                                        
007faa80  MmwaveLink_sensorStop                                        
007fab60  __TI_ltoa                                                    
007fac40  __TI_wrt_ok                                                  
007fad20  close                                                        
007fae00  exit                                                         
007fae00  xdc_runtime_System_exitStd__E                                
007faee0  memset                                                       
007fafc0  printf                                                       
007fb0a0  rlDriverHostIrqHandler                                       
007fb180  rlDriverValidateHdr                                          
007fb260  ti_sysbios_heaps_HeapMem_alloc__E                            
007fb340  ti_sysbios_knl_Swi_runLoop__I                                
007fb420  ti_sysbios_knl_Swi_startup__E                                
007fb500  xdc_runtime_Text_visitRope2__I                               
007fb5e0  CRC_getSignature                                             
007fb760  EDMA_startDmaTransfer                                        
007fb820  HOSTread                                                     
007fb8e0  HOSTunlink                                                   
007fba60  MmwaveLink_CQedmaSetup                                       
007fbb20  MmwaveLink_progFilterConfig                                  
007fbbe0  MmwaveLink_setInitTimeCalibConfig                            
007fbca0  MmwaveLink_setRfAnaMonConfig                                 
007fbe20  Mmwavelink_chirpAvailInterrupCallBackFunc                    
007fbee0  __c6xabi_divu                                                
007fbee0  __divu                                                       
007fbfa0  __c6xabi_remi                                                
007fbfa0  __remi                                                       
007fc060  mmwaveLink_PSLoopBackConfig                                  
007fc120  mmwaveLink_digMonEnableConfig                                
007fc1e0  mmwaveLink_getDieIdStaus                                     
007fc2a0  mmwaveLink_testSourceConfig                                  
007fc360  rlDriverCalChkSum                                            
007fc420  rlDriverExecuteGetApi                                        
007fc4e0  rlDriverExecuteSetApi                                        
007fc5a0  rlGetSubBlock                                                
007fc660  ti_sysbios_family_c64p_Hwi_create                            
007fc720  ti_sysbios_heaps_HeapMem_getStats__E                         
007fc7e0  ti_sysbios_knl_Clock_logTick__E                              
007fc8a0  ti_sysbios_knl_Task_allBlockedFunction__I                    
007fc960  ti_sysbios_knl_Task_create                                   
007fca20  __TI_tls_init                                                
007fcae0  xdc_runtime_Assert_raise__I                                  
007fcba0  xdc_runtime_Error_setX__E                                    
007fcc60  EDMA3EnableChInShadowReg                                     
007fcd00  EDMA3EnableTransfer                                          
007fcda0  EDMA_disableChannel                                          
007fce40  EDMA_enableChannel                                           
007fcee0  HOSTclose                                                    
007fd020  MmwaveLink_getRfBootupStatus                                 
007fd160  MmwaveLink_rfCalibration                                     
007fd200  MmwaveLink_rlRfDigMonPeriodicConfig                          
007fd2a0  MmwaveLink_rlSetDynChirpCfg                                  
007fd340  MmwaveLink_sensorStart                                       
007fd3e0  MmwaveLink_setBpmChirpConfig                                 
007fd480  MmwaveLink_setCalMonConfig                                   
007fd520  MmwaveLink_setChannelConfig                                  
007fd5c0  MmwaveLink_setFrameConfig                                    
007fd660  MmwaveLink_setGpAdcConfig                                    
007fd700  MmwaveLink_setMultiChirpConfig                               
007fd7a0  MmwaveLink_setRfRxIntAnaSignalMonConfig                      
007fd840  MmwaveLink_setRfSynthFreqNonLiveMonConfig                    
007fd8e0  MmwaveLink_setRunTimeCalibConfig                             
007fd980  SOC_SystemISR                                                
007fda20  __TI_cleanup                                                 
007fdac0  __TI_doflush                                                 
007fdb60  __c6xabi_remu                                                
007fdb60  __remu                                                       
007fdc00  _c_int00                                                     
007fdd40  ti_sysbios_family_c64p_Hwi_plug__E                           
007fdde0  finddevice                                                   
007fde80  memcpy                                                       
007fdf20  mmwaveLink_IFLoopBackConfig                                  
007fdfc0  mmwaveLink_PALoopBackConfig                                  
007fe060  mmwaveLink_calibDataRestore                                  
007fe100  mmwaveLink_dynPerChirpPhaseShifterConfig                     
007fe1a0  mmwaveLink_getDfeRxStatisticsReport                          
007fe240  mmwaveLink_phShiftCalibDataStore                             
007fe2e0  rlAppendSubBlock                                             
007fe380  rlDriverVerifyCRC                                            
007fe420  ti_sysbios_family_c64p_Exception_Module_startup__E           
007fe4c0  ti_sysbios_family_c64p_Hwi_dispatchC__I                      
007fe560  ti_sysbios_family_c64p_Hwi_eventMap__E                       
007fe600  ti_sysbios_family_c64p_Hwi_getStackInfo__E                   
007fe600  ti_sysbios_hal_Hwi_HwiProxy_getStackInfo__E                  
007fe600  ti_sysbios_hal_Hwi_getStackInfo__E                           
007fe6a0  xdc_runtime_Core_assignParams__I                             
007fe740  xdc_runtime_System_formatNum__I                              
007fe7e0  xdc_runtime_System_putchar__I                                
007fe880  xdc_runtime_Text_printVisFxn__I                              
007fe920  xdc_runtime_Text_xprintf__I                                  
007fe9c0  ADCBUF_MMWave_close                                          
007fea40  ADCBuf_init                                                  
007feac0  EDMA3MapChToEvtQ                                             
007febc0  Mailbox_writeReset                                           
007fec40  MmwaveLink_RxMixerInPwrConfig                                
007fecc0  MmwaveLink_enableContMode                                    
007fee40  MmwaveLink_rfSetLdoBypassConfig                              
007feec0  MmwaveLink_rlSetDynChirpEn                                   
007fef40  MmwaveLink_setAdcOutConfig                                   
007fefc0  MmwaveLink_setAdvFrameConfig                                 
007ff040  MmwaveLink_setBpmCommonConfig                                
007ff0c0  MmwaveLink_setChirpConfig                                    
007ff140  MmwaveLink_setContModeConfig                                 
007ff1c0  MmwaveLink_setHsiClk                                         
007ff240  MmwaveLink_setLowPowerModeConfig                             
007ff2c0  MmwaveLink_setProfileConfig                                  
007ff340  MmwaveLink_setRfAnaMonConfigCq                               
007ff3c0  MmwaveLink_setRfDevCfg                                       
007ff440  MmwaveLink_setRfDualClkCompMonConfig                         
007ff4c0  MmwaveLink_setRfExtAnaSignalsMonConfig                       
007ff540  MmwaveLink_setRfGpadcIntAnaSignalsMonConfig                  
007ff5c0  MmwaveLink_setRfPllContrlVoltMonConfig                       
007ff640  MmwaveLink_setRfPmClkLoIntAnaSignalsMonConfig                
007ff6c0  MmwaveLink_setRfRxGainPhaMonConfig                           
007ff740  MmwaveLink_setRfRxIfSatMonConfig                             
007ff7c0  MmwaveLink_setRfRxIfStageMonConfig                           
007ff840  MmwaveLink_setRfRxNoiseMonConfig                             
007ff8c0  MmwaveLink_setRfRxSigImgMonConfig                            
007ff940  MmwaveLink_setRfSynthFreqMonConfig                           
007ff9c0  MmwaveLink_setRfTempMonConfig                                
007ffa40  MmwaveLink_setRfTxBallbreakMonConfig                         
007ffac0  MmwaveLink_setRfTxBpmMonConfig                               
007ffb40  MmwaveLink_setRfTxGainPhaseMismatchMonConfig                 
007ffbc0  MmwaveLink_setRfTxIntAnaSignalMonConfig                      
007ffc40  MmwaveLink_setRfTxPowMonConfig                               
007ffcc0  SemaphoreP_create                                            
007ffd40  __TI_readmsg                                                 
007ffdc0  __c6xabi_llshl                                               
007ffec0  ti_sysbios_family_c62_TaskSupport_swap__E                    
007ffec0  ti_sysbios_knl_Task_SupportProxy_swap__E                     
007fff40  mmwaveLink_RxGainTempLutConfig                               
00800000  ti_sysbios_heaps_HeapMem_Instance_State_0_buf__A             
00808000  MCPI_logMessage                                              
0080a400  mmwaveLink_RxGainTempLutRead                                 
0080a480  mmwaveLink_TxGainTempLutConfig                               
0080a500  mmwaveLink_TxGainTempLutRead                                 
0080a580  mmwaveLink_calibDataStore                                    
0080a600  mmwaveLink_configAckTimeout                                  
0080a680  mmwaveLink_interRxGainConfig                                 
0080a700  mmwaveLink_miscConfig                                        
0080a780  mmwaveLink_perChirpPhaseShifterConfig                        
0080a800  mmwaveLink_phShiftCalibDataRestore                           
0080a880  mmwaveLink_triggerSubframe                                   
0080a900  rlDeviceIdentifyCmdDir                                       
0080a980  rlDriverOsiInit                                              
0080aa00  snprintf                                                     
0080aa80  ti_sysbios_BIOS_atExitFunc__I                                
0080ab00  ti_sysbios_BIOS_registerRTSLock__I                           
0080ab80  ti_sysbios_family_c64p_Cache_invL1pAll__E                    
0080ac00  ti_sysbios_gates_GateHwi_Object__create__S                   
0080ac80  ti_sysbios_gates_GateMutex_Object__create__S                 
0080ad00  ti_sysbios_hal_Hwi_checkStack                                
0080ad80  ti_sysbios_heaps_HeapMem_Object__create__S                   
0080ae00  ti_sysbios_heaps_HeapMem_init__I                             
0080ae80  ti_sysbios_knl_Clock_doTick__I                               
0080af00  ti_sysbios_knl_Idle_run__E                                   
0080af80  ti_sysbios_knl_Semaphore_create                              
0080b000  ti_sysbios_knl_Semaphore_pendTimeout__I                      
0080b080  ti_sysbios_knl_Task_processVitalTaskFlag__I                  
0080b100  malloc                                                       
0080b180  ti_sysbios_timers_rti_Timer_stop__E                          
0080b200  remove                                                       
0080b200  unlink                                                       
0080b280  xdc_runtime_Core_assignLabel__I                              
0080b300  xdc_runtime_SysStd_abort__E                                  
0080b300  xdc_runtime_System_SupportProxy_abort__E                     
0080b380  xdc_runtime_System_atexit__E                                 
0080b400  xdc_runtime_System_aprintf_va__E                             
0080b400  xdc_runtime_System_aprintf_va__F                             
0080b400  xdc_runtime_System_avprintf__E                               
0080b480  xdc_runtime_System_processAtExit__E                          
0080b500  xdc_runtime_System_printf_va__E                              
0080b500  xdc_runtime_System_printf_va__F                              
0080b500  xdc_runtime_System_vprintf__E                                
0080b580  ADCBuf_open                                                  
0080b760  EDMA3ClrEvt                                                  
0080b7c0  EDMA3ClrIntr                                                 
0080b820  EDMA3ClrMissEvt                                              
0080b880  EDMA3DisableDmaEvt                                           
0080b8e0  EDMA3DisableEvtIntr                                          
0080b940  EDMA3EnableDmaEvt                                            
0080b9a0  EDMA3EnableEvtIntr                                           
0080ba00  EDMA3SetEvt                                                  
0080bb20  Mailbox_Config_init                                          
0080bbe0  Osal_mutexCreate                                             
0080bc40  Osal_semCreate                                               
0080bca0  SOC_unhaltBSS                                                
0080bd00  __TI_writemsg                                                
0080bd58  C$$IO$$                                                      
0080bd60  __c6xabi_llshru                                              
0080bdc0  _subcull                                                     
0080be20  ti_sysbios_family_c64p_Hwi_switchAndDispatch__I              
0080be80  ti_sysbios_family_xxx_Hwi_switchAndRunFunc                   
0080bee0  lseek                                                        
0080bf40  memccpy                                                      
0080bfa0  rlDeviceGetMssVersion                                        
0080c000  rlDeviceSetHsiClk                                            
0080c060  rlDriverConstructInMsg                                       
0080c0c0  rlEnableContMode                                             
0080c120  rlRfAnaMonConfig                                             
0080c180  rlRfDfeRxStatisticsReport                                    
0080c1e0  rlRfDigMonEnableConfig                                       
0080c240  rlRfDigMonPeriodicConfig                                     
0080c2a0  rlRfDualClkCompMonConfig                                     
0080c300  rlRfExtAnaSignalsMonConfig                                   
0080c360  rlRfGetTemperatureReport                                     
0080c3c0  rlRfGpadcIntAnaSignalsMonConfig                              
0080c420  rlRfInitCalibConfig                                          
0080c480  rlRfInterRxGainPhaseConfig                                   
0080c4e0  rlRfPllContrlVoltMonConfig                                   
0080c540  rlRfPmClkLoIntAnaSignalsMonConfig                            
0080c5a0  rlRfRunTimeCalibConfig                                       
0080c600  rlRfRxGainPhMonConfig                                        
0080c660  rlRfRxIfSatMonConfig                                         
0080c6c0  rlRfRxIfStageMonConfig                                       
0080c720  rlRfRxIntAnaSignalsMonConfig                                 
0080c780  rlRfRxMixerInPwrConfig                                       
0080c7e0  rlRfRxNoiseMonConfig                                         
0080c840  rlRfRxSigImgMonConfig                                        
0080c8a0  rlRfSetCalMonFreqLimitConfig                                 
0080c900  rlRfSetCalMonTimeUnitConfig                                  
0080c960  rlRfSetDeviceCfg                                             
0080c9c0  rlRfSetIFLoopbackConfig                                      
0080ca20  rlRfSetLdoBypassConfig                                       
0080ca80  rlRfSetMiscConfig                                            
0080cae0  rlRfSetPALoopbackConfig                                      
0080cb40  rlRfSetPSLoopbackConfig                                      
0080cba0  rlRfSetProgFiltCoeffRam                                      
0080cc00  rlRfSetProgFiltConfig                                        
0080cc60  rlRfSynthFreqMonConfig                                       
0080ccc0  rlRfTempMonConfig                                            
0080cd20  rlRfTxGainPhaseMismatchMonConfig                             
0080cd80  rlRxGainTempLutSet                                           
0080cde0  rlSensorStart                                                
0080ce40  rlSensorStop                                                 
0080cea0  rlSetAdcOutConfig                                            
0080cf00  rlSetBpmChirpConfig                                          
0080cf60  rlSetBpmCommonConfig                                         
0080cfc0  rlSetChannelConfig                                           
0080d020  rlSetContModeConfig                                          
0080d080  rlSetDynChirpEn                                              
0080d0e0  rlSetGpAdcConfig                                             
0080d140  rlSetLoopBckBurstCfg                                         
0080d1a0  rlSetLowPowerModeConfig                                      
0080d200  rlSetSubFrameStart                                           
0080d260  rlSetTestSourceConfig                                        
0080d2c0  rlTestSourceEnable                                           
0080d320  rlTxGainTempLutSet                                           
0080d380  ti_sysbios_BIOS_errorRaiseHook__I                            
0080d3e0  ti_sysbios_BIOS_removeRTSLock__I                             
0080d440  ti_sysbios_BIOS_startFunc__I                                 
0080d4a0  ti_sysbios_family_c62_TaskSupport_start__E                   
0080d4a0  ti_sysbios_knl_Task_SupportProxy_start__E                    
0080d500  ti_sysbios_family_c64p_Cache_setMar__E                       
0080d560  ti_sysbios_family_c64p_EventCombiner_Module_startup__E       
0080d5c0  ti_sysbios_family_c64p_EventCombiner_unused__E               
0080d620  ti_sysbios_gates_GateMutex_Object__delete__S                 
0080d680  ti_sysbios_hal_Hwi_initStack                                 
0080d6e0  ti_sysbios_heaps_HeapMem_free__E                             
0080d740  ti_sysbios_knl_Clock_Module_startup__E                       
0080d7a0  ti_sysbios_knl_Queue_construct                               
0080d800  ti_sysbios_knl_Semaphore_Object__delete__S                   
0080d860  ti_sysbios_knl_Semaphore_construct                           
0080d8c0  ti_sysbios_knl_Swi_Module_startup__E                         
0080d920  ti_sysbios_knl_Task_enter__I                                 
0080d980  write                                                        
0080d9e0  xdc_runtime_Memory_valloc__E                                 
0080da40  xdc_runtime_Text_cordText__E                                 
0080dda0  EDMA3MapQdmaChToPaRAM                                        
0080dde0  EDMA3SetPaRAM                                                
0080de20  EDMA3SetQdmaTrigWord                                         
0080de60  HwiP_create                                                  
0080dea0  HwiP_delete                                                  
0080dee0  MCPI_Initialize                                              
0080e020  MmwaveLink_monAdvancedTest                                   
0080e0a0  __TI_frcmpyd_div                                             
0080e0e0  __c6xabi_isinf                                               
0080e160  __c6xabi_strasgi_64plus                                      
0080e160  __strasgi_64plus                                             
0080e1a0  _args_main                                                   
0080e220  ti_sysbios_family_c62_TaskSupport_buildTaskStack             
0080e260  free                                                         
0080e2a0  rlAppendDummy                                                
0080e2e0  rlDeviceGetRfVersion                                         
0080e320  rlDeviceConfigureAckTimeout                                  
0080e320  rlDriverConfigureAckTimeout                                  
0080e360  rlDriverFillPayload                                          
0080e3a0  rlGetRfBootupStatus                                          
0080e3e0  rlGetRfDieId                                                 
0080e420  rlRfInit                                                     
0080e460  ti_sysbios_BIOS_exitFunc__I                                  
0080e4a0  ti_sysbios_BIOS_rtsLock__I                                   
0080e4e0  ti_sysbios_BIOS_rtsUnlock__I                                 
0080e520  ti_sysbios_family_c64p_Hwi_disableInterrupt__E               
0080e520  ti_sysbios_hal_Hwi_HwiProxy_disableInterrupt__E              
0080e520  ti_sysbios_hal_Hwi_disableInterrupt__E                       
0080e560  ti_sysbios_family_c64p_Hwi_enableInterrupt__E                
0080e560  ti_sysbios_hal_Hwi_HwiProxy_enableInterrupt__E               
0080e560  ti_sysbios_hal_Hwi_enableInterrupt__E                        
0080e5a0  ti_sysbios_gates_GateHwi_Handle__label__S                    
0080e5a0  xdc_runtime_Main_Module_GateProxy_Handle__label__S           
0080e5a0  xdc_runtime_System_Module_GateProxy_Handle__label__S         
0080e5e0  ti_sysbios_gates_GateHwi_Object__delete__S                   
0080e620  ti_sysbios_BIOS_RtsGateProxy_Handle__label__S                
0080e620  ti_sysbios_gates_GateMutex_Handle__label__S                  
0080e620  ti_sysbios_heaps_HeapMem_Module_GateProxy_Handle__label__S   
0080e660  ti_sysbios_gates_GateMutex_Instance_init__E                  
0080e6a0  ti_sysbios_gates_GateMutex_leave__E                          
0080e6e0  ti_sysbios_heaps_HeapMem_Handle__label__S                    
0080e6e0  xdc_runtime_Memory_HeapProxy_Handle__label__S                
0080e720  ti_sysbios_heaps_HeapMem_Object__delete__S                   
0080e760  ti_sysbios_heaps_HeapMem_Object__get__S                      
0080e7a0  ti_sysbios_knl_Semaphore_destruct                            
0080e7e0  ti_sysbios_knl_Swi_Object__get__S                            
0080e820  ti_sysbios_knl_Task_Object__get__S                           
0080e860  ti_sysbios_knl_Task_sleepTimeout__I                          
0080e8a0  ti_sysbios_timers_rti_Timer_periodicStub__E                  
0080e8e0  wcslen                                                       
0080e920  xdc_runtime_Error_check__E                                   
0080e960  xdc_runtime_Error_init__E                                    
0080e9a0  xdc_runtime_Registry_findById__E                             
0080e9e0  xdc_runtime_System_abort__E                                  
0080ea20  xdc_runtime_System_aprintf__E                                
0080ea60  xdc_runtime_System_exit__E                                   
0080eaa0  xdc_runtime_System_printf__E                                 
0080eae0  ADCBUF_MMWave_init                                           
0080eb00  ADCBuf_Params_init                                           
0080eb20  ADCBuf_control                                               
0080eb40  CRC_initConfigParams                                         
0080eb60  EDMA3ChannelToParamMap                                       
0080eb80  EDMA3ClrCCErr                                                
0080eba0  EDMA3DisableQdmaEvt                                          
0080ebc0  EDMA3EnableQdmaEvt                                           
0080ebe0  EDMA3ErrIntrHighStatusGet                                    
0080ec00  EDMA3GetCCErrStatus                                          
0080ec20  EDMA3GetErrIntrStatus                                        
0080ec40  EDMA3GetIntrStatus                                           
0080ec60  EDMA3IntrStatusHighGet                                       
0080ec80  EDMA3QdmaClrMissEvt                                          
0080eca0  EDMA3QdmaGetErrIntrStatus                                    
0080ecc0  EDMAsetRegion                                                
0080ece0  HwiP_Params_init                                             
0080ed00  HwiP_disable                                                 
0080ed20  HwiP_disableInterrupt                                        
0080ed40  HwiP_enableInterrupt                                         
0080ed60  HwiP_restore                                                 
0080ed80  MCPI_setTestResult                                           
0080eda0  MemoryP_ctrlAlloc                                            
0080edc0  MemoryP_ctrlFree                                             
0080ee80  MmwaveLink_triggerEdmaTransfer                               
0080eea0  MmwaveLink_unmaskHostIRQ                                     
0080eec0  Osal_mutexDelete                                             
0080eee0  Osal_mutexLock                                               
0080ef00  Osal_mutexUnlock                                             
0080ef20  Osal_semDelete                                               
0080ef40  Osal_semSignal                                               
0080ef60  Osal_semWait                                                 
0080ef80  SOC_gateClock                                                
0080efa0  SOC_ungateClock                                              
0080efc0  SemaphoreP_Params_init                                       
0080efe0  SemaphoreP_delete                                            
0080f000  SemaphoreP_pend                                              
0080f020  SemaphoreP_post                                              
0080f020  SemaphoreP_postFromClock                                     
0080f020  SemaphoreP_postFromISR                                       
0080f040  _DebugP_assert                                               
0080f060  __c6xabi_errno_addr                                          
0080f080  __c6xabi_pop_rts                                             
0080f080  __pop_rts                                                    
0080f0a0  __c6xabi_push_rts                                            
0080f0a0  __push_rts                                                   
0080f0c0  _nop                                                         
0080f120  _register_lock                                               
0080f140  _register_unlock                                             
0080f160  _signbit                                                     
0080f180  ti_sysbios_family_c62_TaskSupport_glue                       
0080f1a0  C$$EXIT                                                      
0080f1a0  abort                                                        
0080f1a0  xdc_runtime_System_abortStd__E                               
0080f1c0  putchar                                                      
0080f1e0  rlDriverConstructOutMsg                                      
0080f200  rlDriverGetHandle                                            
0080f220  rlDriverGetPlatformId                                        
0080f240  rlDriverIsDeviceMapValid                                     
0080f260  rlGetSubBlockId                                              
0080f280  rlGetSubBlockLen                                             
0080f2a0  ti_sysbios_BIOS_RtsGateProxy_enter__E                        
0080f2c0  ti_sysbios_BIOS_RtsGateProxy_leave__E                        
0080f2e0  ti_sysbios_BIOS_exit__E                                      
0080f300  ti_sysbios_BIOS_linkedWithIncorrectBootLibrary__E            
0080f320  ti_sysbios_BIOS_nullFunc__I                                  
0080f340  ti_sysbios_BIOS_setThreadType__E                             
0080f360  ti_sysbios_BIOS_start__E                                     
0080f380  ti_sysbios_family_c62_TaskSupport_Module__startupDone__S     
0080f380  ti_sysbios_knl_Task_SupportProxy_Module__startupDone__S      
0080f3a0  ti_sysbios_family_c62_TaskSupport_checkStack__E              
0080f3a0  ti_sysbios_knl_Task_SupportProxy_checkStack__E               
0080f3c0  ti_sysbios_family_c62_TaskSupport_getStackAlignment__E       
0080f3c0  ti_sysbios_knl_Task_SupportProxy_getStackAlignment__E        
0080f3e0  ti_sysbios_family_c64p_Cache_wbInv__E                        
0080f400  ti_sysbios_family_c64p_Hwi_Module__startupDone__F            
0080f400  ti_sysbios_family_c64p_Hwi_Module__startupDone__S            
0080f400  ti_sysbios_hal_Hwi_HwiProxy_Module__startupDone__S           
0080f420  ti_sysbios_family_c64p_Hwi_Params__init__S                   
0080f420  ti_sysbios_hal_Hwi_HwiProxy_Params__init__S                  
0080f440  ti_sysbios_family_c64p_Hwi_clearInterrupt__E                 
0080f440  ti_sysbios_hal_Hwi_HwiProxy_clearInterrupt__E                
0080f440  ti_sysbios_hal_Hwi_clearInterrupt__E                         
0080f460  ti_sysbios_family_c64p_Hwi_startup__E                        
0080f460  ti_sysbios_hal_Hwi_HwiProxy_startup__E                       
0080f460  ti_sysbios_hal_Hwi_startup__E                                
0080f480  ti_sysbios_family_c64p_Hwi_switchFromBootStack__E            
0080f480  ti_sysbios_hal_Hwi_HwiProxy_switchFromBootStack__E           
0080f480  ti_sysbios_hal_Hwi_switchFromBootStack__E                    
0080f4a0  ti_sysbios_family_c64p_Hwi_unPluggedInterrupt__I             
0080f4c0  ti_sysbios_gates_GateHwi_Instance_init__E                    
0080f4e0  ti_sysbios_gates_GateHwi_enter__E                            
0080f500  ti_sysbios_gates_GateHwi_leave__E                            
0080f520  ti_sysbios_gates_GateHwi_query__E                            
0080f520  xdc_runtime_Main_Module_GateProxy_query__E                   
0080f520  xdc_runtime_System_Module_GateProxy_query__E                 
0080f540  ti_sysbios_gates_GateMutex_Instance_finalize__E              
0080f560  ti_sysbios_BIOS_RtsGateProxy_query__E                        
0080f560  ti_sysbios_gates_GateMutex_query__E                          
0080f560  ti_sysbios_heaps_HeapMem_Module_GateProxy_query__E           
0080f580  ti_sysbios_hal_Hwi_Module_startup__E                         
0080f5a0  ti_sysbios_heaps_HeapBuf_Object__get__S                      
0080f5c0  ti_sysbios_heaps_HeapMem_Module_GateProxy_enter__E           
0080f5e0  ti_sysbios_heaps_HeapMem_Module_GateProxy_leave__E           
0080f600  ti_sysbios_heaps_HeapMem_isBlocking__E                       
0080f620  ti_sysbios_knl_Clock_TimerProxy_getMaxTicks__E               
0080f640  ti_sysbios_knl_Idle_loop__E                                  
0080f660  ti_sysbios_knl_Queue_Instance_init__E                        
0080f680  ti_sysbios_knl_Queue_Object__get__S                          
0080f6a0  ti_sysbios_knl_Queue_destruct                                
0080f6c0  ti_sysbios_knl_Queue_empty__E                                
0080f6e0  ti_sysbios_knl_Semaphore_Instance_finalize__E                
0080f700  ti_sysbios_knl_Semaphore_Params__init__S                     
0080f720  ti_sysbios_knl_Semaphore_delete                              
0080f740  ti_sysbios_knl_Swi_disable__E                                
0080f760  ti_sysbios_knl_Task_Params__init__S                          
0080f780  ti_sysbios_knl_Task_disable__E                               
0080f7a0  ti_sysbios_knl_Task_startup__E                               
0080f7c0  ti_sysbios_knl_Clock_TimerProxy_Module__startupDone__S       
0080f7c0  ti_sysbios_timers_rti_Timer_Module__startupDone__F           
0080f7c0  ti_sysbios_timers_rti_Timer_Module__startupDone__S           
0080f7e0  ti_sysbios_timers_rti_Timer_getMaxTicks__E                   
0080f800  xdc_runtime_Error_getSite__E                                 
0080f820  xdc_runtime_Error_raiseX__E                                  
0080f840  xdc_runtime_Gate_enterSystem__E                              
0080f860  xdc_runtime_Gate_leaveSystem__E                              
0080f880  xdc_runtime_Memory_HeapProxy_alloc__E                        
0080f8a0  xdc_runtime_Memory_HeapProxy_free__E                         
0080f8c0  xdc_runtime_Memory_calloc__E                                 
0080f8e0  xdc_runtime_Memory_free__E                                   
0080f900  xdc_runtime_Memory_getMaxDefaultTypeAlign__E                 
0080f920  xdc_runtime_Startup_exec__I                                  
0080f940  xdc_runtime_Startup_reset__I                                 
0080f960  xdc_runtime_Startup_rtsDone__E                               
0080f980  xdc_runtime_SysStd_exit__E                                   
0080f980  xdc_runtime_System_SupportProxy_exit__E                      
0080f9a0  xdc_runtime_SysStd_putch__E                                  
0080f9a0  xdc_runtime_System_SupportProxy_putch__E                     
0080f9c0  xdc_runtime_SysStd_ready__E                                  
0080f9c0  xdc_runtime_System_SupportProxy_ready__E                     
0080f9e0  xdc_runtime_System_Module_GateProxy_enter__E                 
0080fa00  xdc_runtime_System_Module_GateProxy_leave__E                 
0080fa20  xdc_runtime_System_Module_startup__E                         
0080fa40  xdc_runtime_System_snprintf_va__E                            
0080fa40  xdc_runtime_System_snprintf_va__F                            
0080fa40  xdc_runtime_System_vsnprintf__E                              
0080fa60  xdc_runtime_Text_ropeText__E                                 
0080fa80  xdc_runtime_Text_visitRope__I                                
008138d0  xdc_runtime_Text_charTab__A                                  
0081528e  ti_sysbios_family_c64p_Cache_Module__id__C                   
00815c90  dynChirpCfg                                                  
00816b50  _ctypes_                                                     
00816c56  ti_sysbios_family_c64p_EventCombiner_Module__id__C           
00817058  progFiltCoef                                                 
00817128  xdc_runtime_Text_nodeTab__A                                  
00817368  profileCfg                                                   
00817688  rxGainPhaseMonCfg                                            
008176cc  testSourceCfg                                                
00817710  ti_sysbios_knl_Task_Object__PARAMS__C                        
008177d0  gEdmaHwAttrs                                                 
00817808  txGainPhMisMatchMonCfg                                       
0081783c  ti_sysbios_family_c64p_Hwi_Object__PARAMS__C                 
008178f0  xdc_runtime_Startup_sfxnTab__A                               
00817920  chirpCfg                                                     
00817948  ti_sysbios_heaps_HeapMem_Module__FXNS__C                     
00817994  Mailbox_defaultCfg                                           
008179b8  ti_sysbios_gates_GateHwi_Module__FXNS__C                     
008179dc  ti_sysbios_gates_GateMutex_Module__FXNS__C                   
00817a00  ti_sysbios_heaps_HeapMem_Object__PARAMS__C                   
00817a24  ti_sysbios_knl_Semaphore_Object__PARAMS__C                   
00817a88  extAnaSigMonCfg                                              
00817aa8  ti_sysbios_family_c64p_Hwi_Object__DESC__C                   
00817ac8  ti_sysbios_gates_GateHwi_Object__DESC__C                     
00817ae8  ti_sysbios_gates_GateMutex_Object__DESC__C                   
00817b08  ti_sysbios_heaps_HeapMem_Object__DESC__C                     
00817b28  ti_sysbios_knl_Queue_Object__DESC__C                         
00817b48  ti_sysbios_knl_Semaphore_Object__DESC__C                     
00817b68  ti_sysbios_knl_Task_Object__DESC__C                          
00817ba4  gpAdcCfg                                                     
00817c08  bpmChirpCfg                                                  
00817c20  interRxGainPhCfg                                             
00817c38  synthFreqNonLiveMonCfg                                       
00817c50  ti_sysbios_gates_GateHwi_Object__PARAMS__C                   
00817c68  ti_sysbios_gates_GateMutex_Object__PARAMS__C                 
00817c80  ti_sysbios_knl_Queue_Object__PARAMS__C                       
00817c98  xdc_runtime_Startup_sfxnRts__A                               
00817cae  ti_sysbios_family_c64p_Exception_Module__id__C               
00817cc4  contModeCfg                                                  
00817cd8  gADCBufFxnTable                                              
00817cec  runTimeCalib                                                 
00817d00  rxSatMonCfg                                                  
00817d14  tempMonCfg                                                   
00817ff8  ADCBuf_defaultParams                                         
00818018  bpmCommonCfg                                                 
00818028  gADCBufHwCfg                                                 
00818038  monRxIfStageCfg                                              
00818048  phaseShiftCfg                                                
00818058  ti_sysbios_family_c64p_EventCombiner_EVTMASK__C              
00818098  allTxBallbreakMonCfg                                         
008180a4  allTxBpmMonCfg                                               
008180b0  allTxPowMonCfg                                               
008180bc  allTxanaSigMonCfg                                            
008180c8  freqLimit                                                    
008180d4  rxMixInpwrMonCfg                                             
008180e0  rxNoiseMonCfg                                                
008180ec  sigImgMonCfg                                                 
008180f8  synthFreqMonCfg                                              
008181bc  adcOutCfgArgs                                                
008181c4  calMonTimeUnitConf                                           
008181cc  chCfg                                                        
008181d4  dualClkCompMonCfg                                            
008181dc  gpadcIntAnaSigMonCfg                                         
008181e4  miscCfg                                                      
008181ec  pllConVoltMonCfg                                             
008181f4  pmClkLoIntAnaSigMonCfg                                       
008181fc  ti_sysbios_knl_Idle_funcList__C                              
00818208  xdc_runtime_Startup_firstFxns__A                             
00818210  xdc_runtime_Startup_firstFxns__C                             
00818218  xdc_runtime_Startup_lastFxns__C                              
00818224  deviceHsiClk                                                 
00818228  lowPowerModeCfg                                              
0081822c  progFiltCfg                                                  
00818230  rfLdoBypassCfg                                               
00818234  rxGainTempLutReadCfg                                         
00818238  subFrameTrigCfg                                              
0081823c  testSourceEn                                                 
00818240  ti_sysbios_family_c62_TaskSupport_stackAlignment__C          
00818244  ti_sysbios_family_c64p_Cache_EMIFA_BASE__C                   
00818248  ti_sysbios_family_c64p_Cache_EMIFA_CFG__C                    
0081824c  ti_sysbios_family_c64p_Cache_EMIFA_LENGTH__C                 
00818250  ti_sysbios_family_c64p_Cache_EMIFB_BASE__C                   
00818254  ti_sysbios_family_c64p_Cache_EMIFB_CFG__C                    
00818258  ti_sysbios_family_c64p_Cache_EMIFB_LENGTH__C                 
0081825c  ti_sysbios_family_c64p_Cache_EMIFC_BASE__C                   
00818260  ti_sysbios_family_c64p_Cache_EMIFC_CFG__C                    
00818264  ti_sysbios_family_c64p_Cache_EMIFC_LENGTH__C                 
00818268  ti_sysbios_family_c64p_Cache_E_invalidL1CacheSize__C         
0081826c  ti_sysbios_family_c64p_Cache_E_invalidL2CacheSize__C         
00818270  ti_sysbios_family_c64p_Cache_MAR0_31__C                      
00818274  ti_sysbios_family_c64p_Cache_MAR128_159__C                   
00818278  ti_sysbios_family_c64p_Cache_MAR160_191__C                   
0081827c  ti_sysbios_family_c64p_Cache_MAR192_223__C                   
00818280  ti_sysbios_family_c64p_Cache_MAR224_255__C                   
00818284  ti_sysbios_family_c64p_Cache_MAR32_63__C                     
00818288  ti_sysbios_family_c64p_Cache_MAR64_95__C                     
0081828c  ti_sysbios_family_c64p_Cache_MAR96_127__C                    
00818290  ti_sysbios_family_c64p_EventCombiner_A_invalidEventId__C     
00818294  ti_sysbios_family_c64p_EventCombiner_EVTRegs__C              
00818298  ti_sysbios_family_c64p_EventCombiner_E_unpluggedEvent__C     
0081829c  ti_sysbios_family_c64p_EventCombiner_Module__diagsEnabled__C 
008182a0  ti_sysbios_family_c64p_EventCombiner_Module__diagsIncluded__C
008182a4  ti_sysbios_family_c64p_EventCombiner_Module__diagsMask__C    
008182a8  ti_sysbios_family_c64p_Exception_E_exceptionMax__C           
008182ac  ti_sysbios_family_c64p_Exception_exceptionHook__C            
008182b0  ti_sysbios_family_c64p_Exception_externalHook__C             
008182b4  ti_sysbios_family_c64p_Exception_internalHook__C             
008182b8  ti_sysbios_family_c64p_Exception_nmiHook__C                  
008182bc  ti_sysbios_family_c64p_Hwi_E_alreadyDefined__C               
008182c0  ti_sysbios_family_c64p_Hwi_E_handleNotFound__C               
008182c4  ti_sysbios_family_c64p_Hwi_E_invalidIntNum__C                
008182c8  ti_sysbios_family_c64p_Hwi_INTRMUX1Address__C                
008182cc  ti_sysbios_family_c64p_Hwi_LD_end__C                         
008182d0  ti_sysbios_family_c64p_Hwi_LM_begin__C                       
008182d4  ti_sysbios_family_c64p_Hwi_Module__diagsEnabled__C           
008182d8  ti_sysbios_family_c64p_Hwi_Module__diagsIncluded__C          
008182dc  ti_sysbios_family_c64p_Hwi_Module__diagsMask__C              
008182e0  ti_sysbios_family_c64p_Hwi_Module__loggerFxn1__C             
008182e4  ti_sysbios_family_c64p_Hwi_Module__loggerFxn8__C             
008182e8  ti_sysbios_family_c64p_Hwi_Module__loggerObj__C              
008182ec  ti_sysbios_gates_GateMutex_A_badContext__C                   
008182f0  ti_sysbios_gates_GateMutex_Instance_State_sem__O             
008182f4  ti_sysbios_gates_GateMutex_Module__diagsEnabled__C           
008182f8  ti_sysbios_gates_GateMutex_Module__diagsIncluded__C          
008182fc  ti_sysbios_gates_GateMutex_Module__diagsMask__C              
00818300  ti_sysbios_hal_Hwi_E_stackOverflow__C                        
00818304  ti_sysbios_heaps_HeapBuf_Instance_State_freeList__O          
00818308  ti_sysbios_heaps_HeapBuf_Object__count__C                    
0081830c  ti_sysbios_heaps_HeapBuf_numConstructedHeaps__C              
00818310  ti_sysbios_heaps_HeapMem_A_align__C                          
00818314  ti_sysbios_heaps_HeapMem_A_heapSize__C                       
00818318  ti_sysbios_heaps_HeapMem_A_invalidFree__C                    
0081831c  ti_sysbios_heaps_HeapMem_A_zeroBlock__C                      
00818320  ti_sysbios_heaps_HeapMem_E_memory__C                         
00818324  ti_sysbios_heaps_HeapMem_Module__diagsEnabled__C             
00818328  ti_sysbios_heaps_HeapMem_Module__diagsIncluded__C            
0081832c  ti_sysbios_heaps_HeapMem_Module__diagsMask__C                
00818330  ti_sysbios_heaps_HeapMem_Module__gateObj__C                  
00818334  ti_sysbios_heaps_HeapMem_Object__count__C                    
00818338  ti_sysbios_heaps_HeapMem_reqAlign__C                         
0081833c  ti_sysbios_knl_Clock_LM_begin__C                             
00818340  ti_sysbios_knl_Clock_LM_tick__C                              
00818344  ti_sysbios_knl_Clock_LW_delayed__C                           
00818348  ti_sysbios_knl_Clock_Module_State_clockQ__O                  
0081834c  ti_sysbios_knl_Clock_Module__diagsEnabled__C                 
00818350  ti_sysbios_knl_Clock_Module__diagsIncluded__C                
00818354  ti_sysbios_knl_Clock_Module__diagsMask__C                    
00818358  ti_sysbios_knl_Clock_Module__loggerFxn1__C                   
0081835c  ti_sysbios_knl_Clock_Module__loggerFxn2__C                   
00818360  ti_sysbios_knl_Clock_Module__loggerObj__C                    
00818364  ti_sysbios_knl_Semaphore_A_badContext__C                     
00818368  ti_sysbios_knl_Idle_funcList__A                              
0081836c  ti_sysbios_knl_Semaphore_A_noEvents__C                       
00818370  ti_sysbios_knl_Semaphore_A_overflow__C                       
00818374  ti_sysbios_knl_Semaphore_A_pendTaskDisabled__C               
00818378  ti_sysbios_knl_Semaphore_Instance_State_pendQ__O             
0081837c  ti_sysbios_knl_Semaphore_LM_pend__C                          
00818380  ti_sysbios_knl_Semaphore_LM_post__C                          
00818384  ti_sysbios_knl_Semaphore_Module__diagsEnabled__C             
00818388  ti_sysbios_knl_Semaphore_Module__diagsIncluded__C            
0081838c  ti_sysbios_knl_Semaphore_Module__diagsMask__C                
00818390  ti_sysbios_knl_Semaphore_Module__loggerFxn2__C               
00818394  ti_sysbios_knl_Semaphore_Module__loggerFxn4__C               
00818398  ti_sysbios_knl_Semaphore_Module__loggerObj__C                
0081839c  ti_sysbios_knl_Swi_LD_end__C                                 
008183a0  ti_sysbios_knl_Swi_LM_begin__C                               
008183a4  ti_sysbios_knl_Swi_LM_post__C                                
008183a8  ti_sysbios_knl_Swi_Module__diagsEnabled__C                   
008183ac  ti_sysbios_knl_Swi_Module__diagsIncluded__C                  
008183b0  ti_sysbios_knl_Swi_Module__diagsMask__C                      
008183b4  ti_sysbios_knl_Swi_Module__loggerFxn1__C                     
008183b8  ti_sysbios_knl_Swi_Module__loggerFxn4__C                     
008183bc  ti_sysbios_knl_Swi_Module__loggerObj__C                      
008183c0  ti_sysbios_knl_Swi_Object__count__C                          
008183c4  ti_sysbios_knl_Task_A_badPriority__C                         
008183c8  ti_sysbios_knl_Task_A_badTaskState__C                        
008183cc  ti_sysbios_knl_Task_A_badThreadType__C                       
008183d0  ti_sysbios_knl_Task_A_badTimeout__C                          
008183d4  ti_sysbios_knl_Task_A_noPendElem__C                          
008183d8  ti_sysbios_knl_Task_A_sleepTaskDisabled__C                   
008183dc  ti_sysbios_knl_Task_E_spOutOfBounds__C                       
008183e0  ti_sysbios_knl_Task_E_stackOverflow__C                       
008183e4  ti_sysbios_knl_Task_LD_block__C                              
008183e8  ti_sysbios_knl_Task_LD_exit__C                               
008183ec  ti_sysbios_knl_Task_LD_ready__C                              
008183f0  ti_sysbios_knl_Task_LM_sleep__C                              
008183f4  ti_sysbios_knl_Task_LM_switch__C                             
008183f8  ti_sysbios_knl_Task_Module_State_inactiveQ__O                
008183fc  ti_sysbios_knl_Task_Module__diagsEnabled__C                  
00818400  ti_sysbios_knl_Task_Module__diagsIncluded__C                 
00818404  ti_sysbios_knl_Task_Module__diagsMask__C                     
00818408  ti_sysbios_knl_Task_Module__loggerFxn2__C                    
0081840c  ti_sysbios_knl_Task_Module__loggerFxn4__C                    
00818410  ti_sysbios_knl_Task_Module__loggerObj__C                     
00818414  ti_sysbios_knl_Task_Object__count__C                         
00818418  ti_sysbios_knl_Task_allBlockedFunc__C                        
0081841c  ti_sysbios_knl_Task_defaultStackHeap__C                      
00818420  ti_sysbios_knl_Task_defaultStackSize__C                      
00818424  ti_sysbios_knl_Task_numConstructedTasks__C                   
00818428  ti_sysbios_timers_rti_Timer_E_cannotSupport__C               
0081842c  ti_sysbios_timers_rti_Timer_Module__diagsEnabled__C          
00818430  ti_sysbios_timers_rti_Timer_Module__diagsIncluded__C         
00818434  ti_sysbios_timers_rti_Timer_Module__diagsMask__C             
00818438  ti_sysbios_timers_rti_Timer_numTimerDevices__C               
0081843c  ti_sysbios_timers_rti_Timer_startupNeeded__C                 
00818440  txGainTempLutReadCfg                                         
00818444  xdc_runtime_Assert_E_assertFailed__C                         
00818448  xdc_runtime_Core_A_initializedParams__C                      
0081844c  xdc_runtime_Core_Module__diagsEnabled__C                     
00818450  xdc_runtime_Core_Module__diagsIncluded__C                    
00818454  xdc_runtime_Core_Module__diagsMask__C                        
00818458  xdc_runtime_Error_E_memory__C                                
0081845c  xdc_runtime_Error_Module__diagsEnabled__C                    
00818460  xdc_runtime_Error_Module__diagsIncluded__C                   
00818464  xdc_runtime_Error_Module__diagsMask__C                       
00818468  xdc_runtime_Error_Module__loggerFxn8__C                      
0081846c  xdc_runtime_Error_Module__loggerObj__C                       
00818470  xdc_runtime_Error_policyFxn__C                               
00818474  xdc_runtime_Error_policy__C                                  
00818478  xdc_runtime_Error_raiseHook__C                               
0081847c  xdc_runtime_IGateProvider_Interface__BASE__C                 
00818480  xdc_runtime_IHeap_Interface__BASE__C                         
00818484  xdc_runtime_IModule_Interface__BASE__C                       
00818488  xdc_runtime_Log_L_error__C                                   
0081848c  xdc_runtime_Memory_defaultHeapInstance__C                    
00818490  xdc_runtime_Startup_execImpl__C                              
00818494  xdc_runtime_Startup_maxPasses__C                             
00818498  xdc_runtime_Startup_sfxnRts__C                               
0081849c  xdc_runtime_Startup_sfxnTab__C                               
008184a0  xdc_runtime_System_Module__gateObj__C                        
008184a4  xdc_runtime_System_abortFxn__C                               
008184a8  xdc_runtime_System_exitFxn__C                                
008184ac  xdc_runtime_System_extendFxn__C                              
008184b0  xdc_runtime_System_maxAtexitHandlers__C                      
008184b4  xdc_runtime_Text_charTab__C                                  
008184b8  xdc_runtime_Text_nameEmpty__C                                
008184bc  xdc_runtime_Text_nameStatic__C                               
008184c0  xdc_runtime_Text_nameUnknown__C                              
008184c4  xdc_runtime_Text_nodeTab__C                                  
008184c8  xdc_runtime_Text_visitRopeFxn__C                             
008184cc  ti_sysbios_family_c64p_Exception_useInternalBuffer__C        
008184ce  ti_sysbios_family_c64p_Hwi_Module__id__C                     
008184d0  ti_sysbios_family_c64p_Hwi_Module__loggerDefined__C          
008184d2  ti_sysbios_gates_GateMutex_Module__id__C                     
008184d4  ti_sysbios_hal_Hwi_Module__id__C                             
008184d6  ti_sysbios_heaps_HeapMem_Module__id__C                       
008184d8  ti_sysbios_knl_Clock_Module__id__C                           
008184da  ti_sysbios_knl_Clock_Module__loggerDefined__C                
008184dc  ti_sysbios_knl_Semaphore_Module__id__C                       
008184de  ti_sysbios_knl_Semaphore_Module__loggerDefined__C            
008184e0  ti_sysbios_knl_Swi_Module__id__C                             
008184e2  ti_sysbios_knl_Swi_Module__loggerDefined__C                  
008184e4  ti_sysbios_knl_Task_Module__id__C                            
008184e6  ti_sysbios_knl_Task_Module__loggerDefined__C                 
008184e8  ti_sysbios_timers_rti_Timer_Module__id__C                    
008184ea  ti_sysbios_timers_rti_Timer_continueOnSuspend__C             
008184ec  xdc_runtime_Core_Module__id__C                               
008184ee  xdc_runtime_Error_Module__loggerDefined__C                   
008184f0  xdc_runtime_Error_maxDepth__C                                
008184f2  xdc_runtime_Main_Module__id__C                               
008184f4  xdc_runtime_Memory_Module__id__C                             
008184f6  xdc_runtime_Text_charCnt__C                                  
008184f8  xdc_runtime_Text_isLoaded__C                                 
008184fa  xdc_runtime_Text_registryModsLastId__C                       
008184fc  xdc_runtime_Text_unnamedModsLastId__C                        
00818500  ti_sysbios_family_c64p_EventCombiner_Module__state__V        
00818900  calibData                                                    
00818bac  gMonDataAeStrct                                              
00819038  _ftable                                                      
00819218  phShiftCalibData                                             
008193a4  rl_rxMsg                                                     
008194a4  rl_txMsg                                                     
008195a4  _lock                                                        
008195a8  getChirpCfg                                                  
00819670  advFrameCfg                                                  
00819728  _stream                                                      
008197c8  ti_sysbios_knl_Swi_Module_State_0_readyQ__A                  
00819848  ti_sysbios_knl_Task_Module_State_0_readyQ__A                 
008198c8  _device                                                      
00819940  ti_sysbios_family_c64p_Hwi_Module__state__V                  
008199ac  _unlock                                                      
008199b0  ti_sysbios_knl_Task_Object__table__V                         
00819a0c  gMailboxMCB                                                  
00819a5c  retryNegativeTestCfg                                         
00819a60  monAeCnt                                                     
00819ab0  monFailRepCheck                                              
00819b00  rcvGpAdcData                                                 
00819b48  ti_sysbios_knl_Task_Module__state__V                         
00819b90  ti_sysbios_gates_GateMutex_Object__table__V                  
00819bd0  txGainTempLutData                                            
00819c10  ti_sysbios_timers_rti_Timer_Object__table__V                 
00819c4c  ti_sysbios_family_c64p_Exception_Module__state__V            
00819c7c  __TI_ft_end                                                  
00819c80  ti_sysbios_knl_Swi_Object__table__V                          
00819cb0  ti_sysbios_knl_Clock_Module__state__V                        
00819cdc  ti_sysbios_BIOS_Module__state__V                             
00819d00  gSOCHwAttrib                                                 
00819d20  xdc_runtime_Error_IgnoreBlock                                
00819d40  xdc_runtime_System_Module_State_0_atexitHandlers__A          
00819d60  ti_sysbios_knl_Swi_Module__state__V                          
00819d7c  __errno                                                      
00819d7c  errno                                                        
00819d80  ADCBuf_config                                                
00819d98  frameCfg                                                     
00819db0  gMailboxDssBssHwCfg                                          
00819dc8  gMailboxDssMssHwCfg                                          
00819de0  rxGainTempLutData                                            
00819df8  ti_sysbios_family_c64p_Hwi_Object__table__V                  
00819e10  ti_sysbios_heaps_HeapMem_Object__table__V                    
00819e28  ti_sysbios_timers_rti_Timer_Module_State_0_device__A         
00819e40  ti_sysbios_timers_rti_Timer_Module_State_0_intFreqs__A       
00819e50  ti_sysbios_timers_rti_Timer_Module__state__V                 
00819e60  tx0BpmMonCfg                                                 
00819e70  tx0PowMonCfg                                                 
00819e80  tx1BpmMonCfg                                                 
00819e90  tx1PowMonCfg                                                 
00819ea0  tx2BpmMonCfg                                                 
00819eb0  tx2PowMonCfg                                                 
00819ec0  rfDevCfg                                                     
00819ecc  __TI_cleanup_ptr                                             
00819ed0  __TI_dtors_ptr                                               
00819ed4  __TI_enable_exit_profile_output                              
00819ed8  tx0BallBreakMonCfg                                           
00819ee4  tx1BallBreakMonCfg                                           
00819ef0  tx2BallBreakMonCfg                                           
00819efc  ti_sysbios_family_c64p_Cache_Module__state__V                
00819f00  errorStatusCnt                                               
00819f0a  xdc_runtime_Error_Module__state__V                           
00819f0c  ti_sysbios_family_c64p_Hwi_Module__root__V                   
00819f14  ti_sysbios_gates_GateHwi_Module__root__V                     
00819f1c  ti_sysbios_gates_GateMutex_Module__root__V                   
00819f24  ti_sysbios_heaps_HeapBuf_Module__state__V                    
00819f28  ti_sysbios_hal_Hwi_Object__table__V                          
00819f30  ti_sysbios_heaps_HeapMem_Module__root__V                     
00819f38  ti_sysbios_knl_Queue_Module__root__V                         
00819f40  ti_sysbios_knl_Semaphore_Module__root__V                     
00819f48  ti_sysbios_knl_Task_Module__root__V                          
00819f50  ti_sysbios_timers_rti_Timer_Module_State_0_handles__A        
00819f58  tx0IntAnaSigMonCfg                                           
00819f60  tx1IntAnaSigMonCfg                                           
00819f68  tx2IntAnaSigMonCfg                                           
00819f70  xdc_runtime_Registry_Module__state__V                        
00819f78  xdc_runtime_Startup_Module__state__V                         
00819f80  xdc_runtime_System_Module__state__V                          
00819f88  ti_sysbios_gates_GateHwi_Object__table__V                    
00819f8c  xdc_runtime_Memory_Module__state__V                          
00819f90  ti_sysbios_knl_Task_Module_State_0_idleTask__A               
00819f98  _stack                                                       
0081af98  __TI_STACK_END                                               
0081af98  ti_sysbios_knl_Task_Instance_State_0_stack__A                
0081bc70  __TI_tmpnams                                                 
0081bdb0  gLinkSemParams                                               
0081bdd4  gMmwaveLinkMCB                                               
0081bdec  edmaDbg                                                      
0081be00  avgChirpTimeInterval                                         
0081be08  parmbuf                                                      
0081bf90  __CIOBUF_                                                    
0081c0b0  __TI_STATIC_BASE                                             
0081c0b0  gLinkChirpCnt                                                
0081c0b4  gLinkFrameCnt                                                
0081c0b8  dynChirpTestStatus                                           
0081c0bc  gCqTestResult                                                
0081c0c0  gCpTestResult                                                
0081c0c4  gDynChirpConfigNum                                           
0081c0c5  chirpMissedError                                             
0081c0c8  framePeriodicity                                             
0081c0cc  frameCount                                                   
0081c0d0  chirpCount                                                   
0081c0d4  gMonitorHdrCnt                                               
0081c0d8  gInitTimeCalibStatus                                         
0081c0dc  gRunTimeCalibStatus                                          
0081c0e0  gFrameStartStatus                                            
0081c0e4  gMmwlChecksumFailAsyncEvent                                  
0081c0e8  gMmwlCrcFailAsyncEvent                                       
0081c0ec  gMonitoringStatus                                            
0081c0ee  isGetGpAdcMeasData                                           
0081c0ef  eDMADataTransferDone                                         
0081c0f0  hit_count                                                    
0081c0f2  cqTestStatus                                                 
0081c0f3  cpTestStatus                                                 
0081c0f4  gMCPILogMessageSize                                          
0081c0f8  gLinkMonitoringTest                                          
0081c0f9  gLinkCalibTest                                               
0081c0fa  gLinkAdvanceFrameTest                                        
0081c0fb  cqDataVerifyTest                                             
0081c0fc  gLinkContModeTest                                            
0081c0fd  gDynamicChirpTest                                            
0081c0fe  gLinkBpmEnableTest                                           
0081c0ff  gLinkProgFiltTest                                            
0081c100  gLinkSubFrameTrigTest                                        
0081c101  gLinkEnableTx2                                               
0081c102  gLinkDig1TempSensor                                          
0081c104  MCPI_Result                                                  
0081c108  MCPI_FailSignature                                           
0081c114  gCRCRegister                                                 
0081c118  regionId                                                     
0081c11c  anaMonEn                                                     
0081c120  EdmaHandle                                                   
0081c124  adcbufHandle                                                 
0081c128  gLinkFrameSem                                                
0081c12c  g_MailboxInterruptFunc                                       
0081c130  lastChirpIntTimeStamp                                        
0081c134  monTestCase                                                  
0081c138  monTestPassFlag                                              
ffffffff  __TI_pprof_out_hndl                                          
ffffffff  __TI_prof_data_size                                          
ffffffff  __TI_prof_data_start                                         
ffffffff  __binit__                                                    
ffffffff  __c_args__                                                   
ffffffff  binit                                                        
UNDEFED   __TI_CINIT_Base                                              
UNDEFED   __TI_CINIT_Limit                                             
UNDEFED   __TI_Handler_Table_Base                                      
UNDEFED   __TI_Handler_Table_Limit                                     
UNDEFED   __TI_INITARRAY_Base                                          
UNDEFED   __TI_INITARRAY_Limit                                         
UNDEFED   __TI_TLS_INIT_Base                                           
UNDEFED   __TI_TLS_INIT_Limit                                          

[1086 symbols]
