******************************************************************************
               TMS320C6x Linker Unix v8.3.3                    
******************************************************************************
>> Linked Fri Oct  2 10:32:10 2020

OUTPUT FILE NAME:   <dfptest/xwr68xx/xwr68xx_dfptest_dss.xe674>
ENTRY POINT SYMBOL: "_c_int00"  address: 007fc4a0


MEMORY CONFIGURATION

         name            origin    length      used     unused   attr    fill
----------------------  --------  ---------  --------  --------  ----  --------
PAGE 0:
  L2SRAM_UMAP1          007e0000   00020000  00020000  00000000  RWIX
  L2SRAM_UMAP0          00800000   00020000  00018598  00007a68  RWIX
  L1PSRAM               00e00000   00004000  00000000  00004000  RWIX
  L1DSRAM               00f00000   00004000  00000000  00004000  RWIX
  L3SRAM                20000000   000c0000  0000bbc0  000b4440  RWIX
  HWA_RAM               21030000   00010000  00000000  00010000  RWIX
  HSRAM                 21080000   00008000  00000000  00008000  RWIX

PAGE 1:
  L3SRAM                20000000   000c0000  00000000  000c0000  RWIX


SEGMENT ALLOCATION MAP

run origin  load origin   length   init length attrs members
----------  ----------- ---------- ----------- ----- -------
007e0000    007e0000    00020000   00020000    r-x
  007e0000    007e0000    00000200   00000200    r-x .vecs
  007e0200    007e0200    0001fe00   0001fe00    r-x .text.1
00800000    00800000    0000a400   00000000    rw-
  00800000    00800000    00008000   00000000    rw- systemHeap
  00808000    00808000    00002400   00000000    rw- .MCPILogBuffer
0080a400    0080a400    0000a56e   0000a56e    r-x
  0080a400    0080a400    000029c0   000029c0    r-x .text.2
  0080cdc0    0080cdc0    00007bae   00007bae    r-- .const
00814970    00814970    000014c8   00000000    rw-
  00814970    00814970    000014c8   00000000    rw- .far
00815e38    00815e38    000023a8   000013a2    rw-
  00815e38    00815e38    000013a2   000013a2    rw- .fardata
  008171e0    008171e0    00001000   00000000    rw- .stack
008181e0    008181e0    00000254   00000254    r--
  008181e0    008181e0    00000254   00000254    r-- .switch
00818438    00818438    00000132   00000000    rw-
  00818438    00818438    00000120   00000000    rw- .cio
  00818558    00818558    00000012   00000000    rw- .bss
0081856c    0081856c    00000038   00000038    rw-
  0081856c    0081856c    00000038   00000038    rw- .neardata
20000000    20000000    0000bbc0   0000bbc0    rwx
  20000000    20000000    0000bbc0   0000bbc0    rwx .configFiles


SECTION ALLOCATION MAP

 output                                  attributes/
section   page    origin      length       input sections
--------  ----  ----------  ----------   ----------------
xdc.meta   0    00000000    00000110     COPY SECTION
                  00000000    00000110     dss_pe674.oe674 (xdc.meta)

.vecs      0    007e0000    00000200     
                  007e0000    00000200     dss_pe674.oe674 (.vecs)

.text.1    0    007e0200    0001fe00     
                  007e0200    00001fe0     rts6740_elf.lib : _printfi.c.obj (.text:__TI_printfi)
                  007e21e0    00000bc0     dfptest_verify.oe674 (.text:MmwaveLink_verifyReportCount)
                  007e2da0    000008a0     ti.targets.rts6000.ae674 : System.oe674 (.text:xdc_runtime_System_doPrint__I)
                  007e3640    00000820     dfptest_setup.oe674 (.text:MmwaveLink_asyncEventHandler)
                  007e3e60    000007c0     sysbios.ae674 : BIOS.obj (.text:ti_sysbios_knl_Semaphore_pend__E)
                  007e4620    00000780                   : BIOS.obj (.text:ti_sysbios_family_c64p_Exception_handler__I)
                  007e4da0    00000680     libadcbuf_xwr68xx.ae674 : adcbuf_mmwave.oe674 (.text:ADCBUF_MMWave_control)
                  007e5420    00000660     rts6740_elf.lib : _printfi.c.obj (.text:_pconv_a)
                  007e5a80    00000620     sysbios.ae674 : BIOS.obj (.text:ti_sysbios_heaps_HeapMem_allocUnprotected__E)
                  007e60a0    00000600     rts6740_elf.lib : divd.c.obj (.text:__c6xabi_divd)
                  007e66a0    000005c0     sysbios.ae674 : BIOS.obj (.text:ti_sysbios_heaps_HeapMem_freeUnprotected__E)
                  007e6c60    00000520     dfptest_common.oe674 (.text:MmwaveLinkTest_initConfig)
                  007e7180    00000520     sysbios.ae674 : BIOS.obj (.text:ti_sysbios_knl_Task_Instance_finalize__E)
                  007e76a0    000004e0                   : BIOS.obj (.text:ti_sysbios_knl_Task_sleep__E)
                  007e7b80    00000440                   : BIOS.obj (.text:ti_sysbios_timers_rti_Timer_Module_startup__E)
                  007e7fc0    00000420     libmailbox_xwr68xx.ae674 : mailbox.oe674 (.text:Mailbox_open)
                  007e83e0    00000400     dfptest_common.oe674 (.text:MmwaveLink_startDfpTest)
                  007e87e0    00000400     dfptest_verify.oe674 (.text:MmwaveLink_verifyRxGainPhRep)
                  007e8be0    00000400     rts6740_elf.lib : _printfi.c.obj (.text:_pconv_g)
                  007e8fe0    00000400     libmmwavelink_xwr68xx.ae674 : rl_driver.oe674 (.text:rlDriverRxHdrRead)
                  007e93e0    000003e0     dfptest_verify.oe674 (.text:MmwaveLink_verifyTxGainPhaseRep)
                  007e97c0    000003e0     sysbios.ae674 : BIOS.obj (.text:ti_sysbios_knl_Task_Module_startup__E)
                  007e9ba0    000003c0                   : BIOS.obj (.text:ti_sysbios_knl_Task_Instance_init__E)
                  007e9f60    00000380     dfptest_verify.oe674 (.text:MmwaveLink_verifyPllControlRep)
                  007ea2e0    00000380     dfptest_verify.oe674 (.text:MmwaveLink_verifyRfSynthFreqNonLiveRep)
                  007ea660    00000360     libcrc_xwr68xx.ae674 : crc.oe674 (.text:CRC_open)
                  007ea9c0    00000360     dfptest_verify.oe674 (.text:MmwaveLink_verifyRxIfStageRep)
                  007ead20    00000360     libmmwavelink_xwr68xx.ae674 : rl_driver.oe674 (.text:rlDriverMsgRead)
                  007eb080    00000360     sysbios.ae674 : BIOS.obj (.text:ti_sysbios_knl_Semaphore_post__E)
                  007eb3e0    00000340     dfptest_verify.oe674 (.text:MmwaveLink_verifyTxPower)
                  007eb720    00000320     rts6740_elf.lib : fputs.c.obj (.text:fputs)
                  007eba40    000002e0     dfptest_common.oe674 (.text:MmwaveLink_runDfpTest)
                  007ebd20    000002e0     libmmwavelink_xwr68xx.ae674 : rl_driver.oe674 (.text:rlDriverCmdSendRetry)
                  007ec000    000002e0     sysbios.ae674 : BIOS.obj (.text:ti_sysbios_heaps_HeapMem_Instance_init__E)
                  007ec2e0    000002c0     dfptest_setup.oe674 (.text:MmwaveLink_getProfileConfig)
                  007ec5a0    000002c0     dfptest_verify.oe674 (.text:MmwaveLink_verifyRxMixInpPowerRep)
                  007ec860    000002c0     libmmwavelink_xwr68xx.ae674 : rl_driver.oe674 (.text:rlDriverCmdInvoke)
                  007ecb20    000002c0     sysbios.ae674 : BIOS.obj (.text:ti_sysbios_knl_Clock_workFunc__E)
                  007ecde0    000002a0     libcrc_xwr68xx.ae674 : crc.oe674 (.text:CRC_computeSignature)
                  007ed080    000002a0     dfptest_setup.oe674 (.text:MmwaveLink_initLink)
                  007ed320    000002a0     dfptest_monitoring.oe674 (.text:MmwaveLink_monFeatureCfg)
                  007ed5c0    000002a0     rts6740_elf.lib : _printfi.c.obj (.text:_pconv_e)
                  007ed860    000002a0                     : _printfi.c.obj (.text:fcvt)
                  007edb00    00000280     dfptest_verify.oe674 (.text:MmwaveLink_verifyTxBpm)
                  007edd80    00000280     sysbios.ae674 : BIOS.obj (.text:ti_sysbios_family_c64p_Cache_Module_startup__E)
                  007ee000    00000260     libtestlogger_xwr68xx.ae674 : logger.oe674 (.text:MCPI_setFeatureTestResult)
                  007ee260    00000260     rts6740_elf.lib : imath64.c.obj (.text:__c6xabi_divull)
                  007ee4c0    00000260     main_dfp_dss.oe674 (.text:main)
                  007ee720    00000260     libmmwavelink_xwr68xx.ae674 : rl_driver.oe674 (.text:rlDriverInit)
                  007ee980    00000260     sysbios.ae674 : BIOS.obj (.text:ti_sysbios_family_c64p_Cache_block__I)
                  007eebe0    00000260                   : BIOS.obj (.text:ti_sysbios_family_c64p_Hwi_dispatchCore__I)
                  007eee40    00000260     ti.targets.rts6000.ae674 : Startup.oe674 (.text:xdc_runtime_Startup_startMods__I)
                  007ef0a0    00000240     dfptest_setup.oe674 (.text:MmwaveLink_computeCRC)
                  007ef2e0    00000240     dfptest_verify.oe674 (.text:MmwaveLink_verifyRfSynthFreqRep)
                  007ef520    00000240     sysbios.ae674 : BIOS.obj (.text:ti_sysbios_family_c64p_EventCombiner_dispatch__E)
                  007ef760    00000240                   : BIOS.obj (.text:ti_sysbios_family_c64p_Exception_internalHandler__I)
                  007ef9a0    00000240                   : BIOS.obj (.text:ti_sysbios_timers_rti_Timer_getFreq__E)
                  007efbe0    00000240     ti.targets.rts6000.ae674 : Core-mem.oe674 (.text:xdc_runtime_Core_createObject__I)
                  007efe20    00000240     dss_pe674.oe674 (.text:xdc_runtime_System_printfExtend__I)
                  007f0060    00000220     libmailbox_xwr68xx.ae674 : mailbox.oe674 (.text:Mailbox_write)
                  007f0280    00000220     sysbios.ae674 : BIOS.obj (.text:ti_sysbios_family_c64p_Hwi_reconfig__E)
                  007f04a0    00000220                   : BIOS.obj (.text:ti_sysbios_knl_Swi_run__I)
                  007f06c0    00000200     dfptest_verify.oe674 (.text:MmwaveLink_verifyExtAnalogSigRep)
                  007f08c0    00000200     dfptest_verify.oe674 (.text:MmwaveLink_verifyRfTxIntAnaSignals)
                  007f0ac0    00000200     dfptest_verify.oe674 (.text:MmwaveLink_verifyTemperatureRep)
                  007f0cc0    00000200     rts6740_elf.lib : _printfi.c.obj (.text:_ltostr)
                  007f0ec0    00000200     sysbios.ae674 : c64p_Hwi_disp_always.obj (.text:_ti_sysbios_family_c64p_Hwi_dispatchAlways)
                  007f10c0    00000200     ti.targets.rts6000.ae674 : Error.oe674 (.text:xdc_runtime_Error_policyDefault__E)
                  007f12c0    000001e0     dfptest_verify.oe674 (.text:MmwaveLink_verifyTxBallBreak)
                  007f14a0    000001e0     libmmwavelink_xwr68xx.ae674 : rl_driver.oe674 (.text:rlDriverRdVerifyMsg)
                  007f1680    000001e0     sysbios.ae674 : BIOS.obj (.text:ti_sysbios_family_c64p_EventCombiner_dispatchPlug__E)
                  007f1860    000001e0                   : BIOS.obj (.text:ti_sysbios_gates_GateMutex_enter__E)
                  007f1a40    000001e0                   : BIOS.obj (.text:ti_sysbios_knl_Task_exit__E)
                  007f1c20    000001e0     ti.targets.rts6000.ae674 : Text.oe674 (.text:xdc_runtime_Text_putSite__E)
                  007f1e00    000001c0     libmailbox_xwr68xx.ae674 : mailbox.oe674 (.text:Mailbox_read)
                  007f1fc0    000001c0     dfptest_verify.oe674 (.text:MmwaveLink_checkStatusFlag)
                  007f2180    000001c0     rts6740_elf.lib : imath40.c.obj (.text:__c6xabi_divul)
                  007f2340    000001c0                     : fputc.c.obj (.text:fputc)
                  007f2500    000001c0                     : frexp.c.obj (.text:frexp)
                  007f26c0    000001c0                     : ldexp.c.obj (.text:ldexp)
                  007f2880    000001c0     libmmwavelink_xwr68xx.ae674 : rl_driver.oe674 (.text:rlDriverMsgCmdReply)
                  007f2a40    000001c0     rts6740_elf.lib : setvbuf.c.obj (.text:setvbuf)
                  007f2c00    000001c0     sysbios.ae674 : BIOS.obj (.text:ti_sysbios_knl_Task_checkStacks__E)
                  007f2dc0    000001a0     libadcbuf_xwr68xx.ae674 : adcbuf_mmwave.oe674 (.text:ADCBUF_MMWave_open)
                  007f2f60    000001a0     rts6740_elf.lib : hostrename.c.obj (.text:HOSTrename)
                  007f3100    000001a0     dfptest_verify.oe674 (.text:MmwaveLink_verifyRxNoiseFigRep)
                  007f32a0    000001a0     libmmwavelink_xwr68xx.ae674 : rl_driver.oe674 (.text:rlDriverDeInit)
                  007f3440    000001a0                                 : rl_driver.oe674 (.text:rlDriverMsgWrite)
                  007f35e0    000001a0                                 : rl_sensor.oe674 (.text:rlGetFrameConfig)
                  007f3780    000001a0                                 : rl_sensor.oe674 (.text:rlSetChirpConfig)
                  007f3920    000001a0     sysbios.ae674 : BIOS.obj (.text:ti_sysbios_family_c64p_Cache_getL2InitSize__I)
                  007f3ac0    000001a0                   : BIOS.obj (.text:ti_sysbios_family_c64p_EventCombiner_disableEvent__E)
                  007f3c60    000001a0                   : BIOS.obj (.text:ti_sysbios_family_c64p_EventCombiner_enableEvent__E)
                  007f3e00    000001a0                   : BIOS.obj (.text:ti_sysbios_heaps_HeapBuf_Module_startup__E)
                  007f3fa0    000001a0                   : BIOS.obj (.text:ti_sysbios_knl_Task_schedule__I)
                  007f4140    000001a0                   : BIOS.obj (.text:ti_sysbios_timers_rti_Timer_startup__E)
                  007f42e0    000001a0     ti.targets.rts6000.ae674 : Core-smem.oe674 (.text:xdc_runtime_Core_constructObject__I)
                  007f4480    00000180     libadcbuf_xwr68xx.ae674 : adcbuf_mmwave.oe674 (.text:ADCBUFCmdParamCheck)
                  007f4600    00000180     dfptest_setup.oe674 (.text:MmwaveLink_getVersion)
                  007f4780    00000180     dfptest_verify.oe674 (.text:MmwaveLink_verifyIntGpadcSigRep)
                  007f4900    00000180     libmmwavelink_xwr68xx.ae674 : rl_sensor.oe674 (.text:rlSetProfileConfig)
                  007f4a80    00000180     sysbios.ae674 : c64p_Exception_asm.obj (.text)
                  007f4c00    00000180                   : BIOS.obj (.text:ti_sysbios_knl_Task_postInit__I)
                  007f4d80    00000180                   : BIOS.obj (.text:ti_sysbios_knl_Task_startCore__E)
                  007f4f00    00000160     libmailbox_xwr68xx.ae674 : mailbox.oe674 (.text:Mailbox_close)
                  007f5060    00000160     dfptest_setup.oe674 (.text:MmwaveLink_adcBufConfig)
                  007f51c0    00000160     dfptest_common.oe674 (.text:MmwaveLink_loadConfig)
                  007f5320    00000160     libsoc_xwr68xx.ae674 : soc.oe674 (.text:SOC_registerSysIntListener)
                  007f5480    00000160                          : soc_xwr68xx.oe674 (.text:SOC_ungateClock)
                  007f55e0    00000160     libmmwavelink_xwr68xx.ae674 : rl_driver.oe674 (.text:rlDriverMsgReadCmdCtx)
                  007f5740    00000160                                 : rl_driver.oe674 (.text:rlDriverWaitForResponse)
                  007f58a0    00000160                                 : rl_sensor.oe674 (.text:rlGetAdvFrameConfig)
                  007f5a00    00000160                                 : rl_monitoring.oe674 (.text:rlRfTxBallbreakMonConfig)
                  007f5b60    00000160                                 : rl_monitoring.oe674 (.text:rlRfTxBpmMonConfig)
                  007f5cc0    00000160                                 : rl_monitoring.oe674 (.text:rlRfTxIntAnaSignalsMonConfig)
                  007f5e20    00000160                                 : rl_monitoring.oe674 (.text:rlRfTxPowrMonConfig)
                  007f5f80    00000160                                 : rl_sensor.oe674 (.text:rlSetFrameConfig)
                  007f60e0    00000160     sysbios.ae674 : BIOS.obj (.text:ti_sysbios_family_c64p_Hwi_Module_startup__E)
                  007f6240    00000160                   : BIOS.obj (.text:ti_sysbios_knl_Swi_post__E)
                  007f63a0    00000160     ti.targets.rts6000.ae674 : Text.oe674 (.text:xdc_runtime_Text_putMod__E)
                  007f6500    00000140     dfptest_monitoring.oe674 (.text:MmwaveLink_genLatentFaultRep)
                  007f6640    00000140     dfptest_setup.oe674 (.text:MmwaveLink_getFrameConfig)
                  007f6780    00000140     dfptest_verify.oe674 (.text:MmwaveLink_verifyRxIntAnaSigRep)
                  007f68c0    00000140     libsoc_xwr68xx.ae674 : soc.oe674 (.text:SOC_init)
                  007f6a00    00000140     libmmwavelink_xwr68xx.ae674 : rl_device.oe674 (.text:rlDevicePowerOn)
                  007f6b40    00000140                                 : rl_driver.oe674 (.text:rlDriverMsgReadSpawnCtx)
                  007f6c80    00000140                                 : rl_sensor.oe674 (.text:rlGetProfileConfig)
                  007f6dc0    00000140                                 : rl_sensor.oe674 (.text:rlSetAdvFrameConfig)
                  007f6f00    00000140     sysbios.ae674 : BIOS.obj (.text:ti_sysbios_family_c64p_Cache_getL1DInitSize__I)
                  007f7040    00000140                   : BIOS.obj (.text:ti_sysbios_family_c64p_Cache_getL1PInitSize__I)
                  007f7180    00000140                   : BIOS.obj (.text:ti_sysbios_knl_Semaphore_Instance_init__E)
                  007f72c0    00000140                   : BIOS.obj (.text:ti_sysbios_knl_Task_blockI__E)
                  007f7400    00000140                   : BIOS.obj (.text:ti_sysbios_timers_rti_Timer_initDevice__I)
                  007f7540    00000140     ti.targets.rts6000.ae674 : Core-mem.oe674 (.text:xdc_runtime_Core_deleteObject__I)
                  007f7680    00000140                              : Text.oe674 (.text:xdc_runtime_Text_putLab__E)
                  007f77c0    00000120     libadcbuf_xwr68xx.ae674 : adcbuf_mmwave.oe674 (.text:ADCBUF_MMWave_getChanBufAddr)
                  007f78e0    00000120     libsoc_xwr68xx.ae674 : soc_xwr68xx.oe674 (.text:SOC_gateClock)
                  007f7a00    00000120     boot.ae674 : autoinit.oe674 (.text:_auto_init_elf)
                  007f7b20    00000120     rts6740_elf.lib : _printfi.c.obj (.text:_pconv_f)
                  007f7c40    00000120                     : getdevice.c.obj (.text:getdevice)
                  007f7d60    00000120     libmmwavelink_xwr68xx.ae674 : rl_driver.oe674 (.text:rlDriverAsyncEventHandler)
                  007f7e80    00000120                                 : rl_driver.oe674 (.text:rlDriverProcRdMsg)
                  007f7fa0    00000120     sysbios.ae674 : BIOS.obj (.text:ti_sysbios_family_c64p_Hwi_Instance_init__E)
                  007f80c0    00000120                   : BIOS.obj (.text:ti_sysbios_knl_Swi_restoreHwi__E)
                  007f81e0    00000120                   : BIOS.obj (.text:ti_sysbios_knl_Task_unblockI__E)
                  007f8300    00000100     libmailbox_xwr68xx.ae674 : mailbox.oe674 (.text:Mailbox_readFlush)
                  007f8400    00000100     dfptest_setup.oe674 (.text:MmwaveLink_getAdvFrameConfig)
                  007f8500    00000100     dfptest_setup.oe674 (.text:MmwaveLink_mboxRead)
                  007f8600    00000100     dfptest_verify.oe674 (.text:MmwaveLink_verifyDccClockFreqRep)
                  007f8700    00000100     dfptest_verify.oe674 (.text:MmwaveLink_verifyDigLatFaultRep)
                  007f8800    00000100     dfptest_verify.oe674 (.text:MmwaveLink_verifyDigPeriodicRep)
                  007f8900    00000100     libsoc_xwr68xx.ae674 : soc_xwr68xx_dss.oe674 (.text:SOC_deviceInit)
                  007f8a00    00000100     rts6740_elf.lib : fclose.c.obj (.text:__TI_closefile)
                  007f8b00    00000100                     : _printfi.c.obj (.text:_mcpy)
                  007f8c00    00000100                     : atoi.c.obj (.text:atoi)
                  007f8d00    00000100                     : fflush.c.obj (.text:fflush)
                  007f8e00    00000100                     : fseek.c.obj (.text:fseek)
                  007f8f00    00000100     libmmwavelink_xwr68xx.ae674 : rl_device.oe674 (.text:rlDeviceGetVersion)
                  007f9000    00000100                                 : rl_device.oe674 (.text:rlDevicePowerOff)
                  007f9100    00000100                                 : rl_driver.oe674 (.text:rlDriverClientCbCheck)
                  007f9200    00000100                                 : rl_driver.oe674 (.text:rlDriverOsiCbCheck)
                  007f9300    00000100     sysbios.ae674 : BIOS.obj (.text:ti_sysbios_family_c64p_Hwi_Instance_finalize__E)
                  007f9400    00000100                   : BIOS.obj (.text:ti_sysbios_knl_Swi_schedule__I)
                  007f9500    00000100     ti.targets.rts6000.ae674 : Error.oe674 (.text:xdc_runtime_Error_print__E)
                  007f9600    00000100                              : Memory.oe674 (.text:xdc_runtime_Memory_alloc__E)
                  007f9700    00000100                              : Startup.oe674 (.text:xdc_runtime_Startup_exec__E)
                  007f9800    000000e0     libcrc_xwr68xx.ae674 : crc.oe674 (.text:CRC_getTransactionId)
                  007f98e0    000000e0     rts6740_elf.lib : hostlseek.c.obj (.text:HOSTlseek)
                  007f99c0    000000e0                     : hostopen.c.obj (.text:HOSTopen)
                  007f9aa0    000000e0                     : hostwrite.c.obj (.text:HOSTwrite)
                  007f9b80    000000e0     libmailbox_xwr68xx.ae674 : mailbox.oe674 (.text:Mailbox_boxFullISRMssDss)
                  007f9c60    000000e0                              : mailbox.oe674 (.text:Mailbox_init)
                  007f9d40    000000e0     dfptest_setup.oe674 (.text:MmwaveLink_mboxWrite)
                  007f9e20    000000e0     dfptest_setup.oe674 (.text:MmwaveLink_setBpmChirpConfig)
                  007f9f00    000000e0     dfptest_verify.oe674 (.text:MmwaveLink_verifyIntPmClkLoSigRep)
                  007f9fe0    000000e0     dfptest_verify.oe674 (.text:MmwaveLink_verifyRunTimeCalibRep)
                  007fa0c0    000000e0     rts6740_elf.lib : _ltoa.c.obj (.text:__TI_ltoa)
                  007fa1a0    000000e0                     : _io_perm.c.obj (.text:__TI_wrt_ok)
                  007fa280    000000e0                     : divi.asm.obj (.text:__divi)
                  007fa360    000000e0                     : close.c.obj (.text:close)
                  007fa440    000000e0                     : exit.c.obj (.text:exit)
                  007fa520    000000e0                     : memset.c.obj (.text:memset)
                  007fa600    000000e0                     : printf.c.obj (.text:printf)
                  007fa6e0    000000e0     libmmwavelink_xwr68xx.ae674 : rl_driver.oe674 (.text:rlDriverHostIrqHandler)
                  007fa7c0    000000e0                                 : rl_driver.oe674 (.text:rlDriverValidateHdr)
                  007fa8a0    000000e0     sysbios.ae674 : BIOS.obj (.text:ti_sysbios_heaps_HeapMem_alloc__E)
                  007fa980    000000e0                   : BIOS.obj (.text:ti_sysbios_knl_Swi_runLoop__I)
                  007faa60    000000e0                   : BIOS.obj (.text:ti_sysbios_knl_Swi_startup__E)
                  007fab40    000000e0     ti.targets.rts6000.ae674 : Text.oe674 (.text:xdc_runtime_Text_visitRope2__I)
                  007fac20    000000c0     libcrc_xwr68xx.ae674 : crc.oe674 (.text:CRC_getSignature)
                  007face0    000000c0     rts6740_elf.lib : hostread.c.obj (.text:HOSTread)
                  007fada0    000000c0                     : hostunlink.c.obj (.text:HOSTunlink)
                  007fae60    000000c0     libmailbox_xwr68xx.ae674 : mailbox.oe674 (.text:Mailbox_boxFullISRProcessing)
                  007faf20    000000c0     dfptest_setup.oe674 (.text:MmwaveLink_mboxOpen)
                  007fafe0    000000c0     dfptest_setup.oe674 (.text:MmwaveLink_setChirpConfig)
                  007fb0a0    000000c0     main_dfp_dss.oe674 (.text:MmwaveLink_setupEventCombiner)
                  007fb160    000000c0     rts6740_elf.lib : divu.asm.obj (.text:__divu)
                  007fb220    000000c0                     : remi.asm.obj (.text:__remi)
                  007fb2e0    000000c0     libmmwavelink_xwr68xx.ae674 : rl_driver.oe674 (.text:rlDriverCalChkSum)
                  007fb3a0    000000c0                                 : rl_driver.oe674 (.text:rlDriverExecuteGetApi)
                  007fb460    000000c0                                 : rl_driver.oe674 (.text:rlDriverExecuteSetApi)
                  007fb520    000000c0                                 : rl_controller.oe674 (.text:rlGetSubBlock)
                  007fb5e0    000000c0     dss_pe674.oe674 (.text:ti_sysbios_family_c64p_Hwi_create)
                  007fb6a0    000000c0     sysbios.ae674 : BIOS.obj (.text:ti_sysbios_heaps_HeapMem_getStats__E)
                  007fb760    000000c0                   : BIOS.obj (.text:ti_sysbios_knl_Clock_logTick__E)
                  007fb820    000000c0                   : BIOS.obj (.text:ti_sysbios_knl_Task_allBlockedFunction__I)
                  007fb8e0    000000c0     dss_pe674.oe674 (.text:ti_sysbios_knl_Task_create)
                  007fb9a0    000000c0     rts6740_elf.lib : tls.c.obj (.text:tls:init:__TI_tls_init)
                  007fba60    000000c0     ti.targets.rts6000.ae674 : Assert.oe674 (.text:xdc_runtime_Assert_raise__I)
                  007fbb20    000000c0                              : Error.oe674 (.text:xdc_runtime_Error_setX__E)
                  007fbbe0    000000a0     rts6740_elf.lib : hostclose.c.obj (.text:HOSTclose)
                  007fbc80    000000a0     libmailbox_xwr68xx.ae674 : mailbox.oe674 (.text:Mailbox_boxEmptyISRProcessing)
                  007fbd20    000000a0     main_dfp_dss.oe674 (.text:MmwaveLink_initTask)
                  007fbdc0    000000a0     dfptest_setup.oe674 (.text:MmwaveLink_mmwaveLinkMgmtTask)
                  007fbe60    000000a0     dfptest_setup.oe674 (.text:MmwaveLink_rfCalibration)
                  007fbf00    000000a0     dfptest_setup.oe674 (.text:MmwaveLink_sensorStart)
                  007fbfa0    000000a0     dfptest_monitoring.oe674 (.text:MmwaveLink_setCalMonConfig)
                  007fc040    000000a0     dfptest_setup.oe674 (.text:MmwaveLink_setGpAdcConfig)
                  007fc0e0    000000a0     dfptest_setup.oe674 (.text:MmwaveLink_setProfileConfig)
                  007fc180    000000a0     dfptest_monitoring.oe674 (.text:MmwaveLink_setRfSynthFreqNonLiveMonConfig)
                  007fc220    000000a0     libsoc_xwr68xx.ae674 : soc.oe674 (.text:SOC_SystemISR)
                  007fc2c0    000000a0     rts6740_elf.lib : fopen.c.obj (.text:__TI_cleanup)
                  007fc360    000000a0                     : fflush.c.obj (.text:__TI_doflush)
                  007fc400    000000a0                     : remu.asm.obj (.text:__remu)
                  007fc4a0    000000a0     boot.ae674 : boot.oe674 (.text:_c_int00)
                  007fc540    000000a0     rts6740_elf.lib : _printfi.c.obj (.text:_ecpy)
                  007fc5e0    000000a0     sysbios.ae674 : c64p_Hwi_asm.obj (.text:_ti_sysbios_family_c64p_Hwi_plug__E)
                  007fc680    000000a0     rts6740_elf.lib : getdevice.c.obj (.text:finddevice)
                  007fc720    000000a0                     : memcpy64.asm.obj (.text:memcpy)
                  007fc7c0    000000a0     libmmwavelink_xwr68xx.ae674 : rl_controller.oe674 (.text:rlAppendSubBlock)
                  007fc860    000000a0                                 : rl_driver.oe674 (.text:rlDriverVerifyCRC)
                  007fc900    000000a0     sysbios.ae674 : BIOS.obj (.text:ti_sysbios_family_c64p_Exception_Module_startup__E)
                  007fc9a0    000000a0                   : BIOS.obj (.text:ti_sysbios_family_c64p_Hwi_dispatchC__I)
                  007fca40    000000a0                   : BIOS.obj (.text:ti_sysbios_family_c64p_Hwi_eventMap__E)
                  007fcae0    000000a0                   : BIOS.obj (.text:ti_sysbios_family_c64p_Hwi_getStackInfo__E)
                  007fcb80    000000a0     ti.targets.rts6000.ae674 : Core-params.oe674 (.text:xdc_runtime_Core_assignParams__I)
                  007fcc20    000000a0                              : System.oe674 (.text:xdc_runtime_System_formatNum__I)
                  007fccc0    000000a0                              : System.oe674 (.text:xdc_runtime_System_putchar__I)
                  007fcd60    000000a0                              : Text.oe674 (.text:xdc_runtime_Text_printVisFxn__I)
                  007fce00    000000a0                              : Text.oe674 (.text:xdc_runtime_Text_xprintf__I)
                  007fcea0    00000080     libadcbuf_xwr68xx.ae674 : adcbuf_mmwave.oe674 (.text:ADCBUF_MMWave_close)
                  007fcf20    00000080                             : ADCBuf.oe674 (.text:ADCBuf_init)
                  007fcfa0    00000080     libmailbox_xwr68xx.ae674 : mailbox.oe674 (.text:Mailbox_writeReset)
                  007fd020    00000080     dfptest_monitoring.oe674 (.text:MmwaveLink_RxMixerInPwrConfig)
                  007fd0a0    00000080     dfptest_verify.oe674 (.text:MmwaveLink_checkTxGainPhaseVal)
                  007fd120    00000080     dfptest_setup.oe674 (.text:MmwaveLink_getRfBootupStatus)
                  007fd1a0    00000080     dfptest_setup.oe674 (.text:MmwaveLink_rfSetLdoBypassConfig)
                  007fd220    00000080     dfptest_monitoring.oe674 (.text:MmwaveLink_rlRfDigMonPeriodicConfig)
                  007fd2a0    00000080     dfptest_setup.oe674 (.text:MmwaveLink_setAdcOutConfig)
                  007fd320    00000080     dfptest_setup.oe674 (.text:MmwaveLink_setAdvFrameConfig)
                  007fd3a0    00000080     dfptest_setup.oe674 (.text:MmwaveLink_setBpmCommonConfig)
                  007fd420    00000080     dfptest_setup.oe674 (.text:MmwaveLink_setChannelConfig)
                  007fd4a0    00000080     dfptest_setup.oe674 (.text:MmwaveLink_setFrameConfig)
                  007fd520    00000080     dfptest_setup.oe674 (.text:MmwaveLink_setHsiClk)
                  007fd5a0    00000080     dfptest_monitoring.oe674 (.text:MmwaveLink_setInitTimeCalibConfig)
                  007fd620    00000080     dfptest_setup.oe674 (.text:MmwaveLink_setLowPowerModeConfig)
                  007fd6a0    00000080     dfptest_monitoring.oe674 (.text:MmwaveLink_setRfAnaMonConfig)
                  007fd720    00000080     dfptest_setup.oe674 (.text:MmwaveLink_setRfDevCfg)
                  007fd7a0    00000080     dfptest_monitoring.oe674 (.text:MmwaveLink_setRfDualClkCompMonConfig)
                  007fd820    00000080     dfptest_monitoring.oe674 (.text:MmwaveLink_setRfExtAnaSignalsMonConfig)
                  007fd8a0    00000080     dfptest_monitoring.oe674 (.text:MmwaveLink_setRfGpadcIntAnaSignalsMonConfig)
                  007fd920    00000080     dfptest_monitoring.oe674 (.text:MmwaveLink_setRfPllContrlVoltMonConfig)
                  007fd9a0    00000080     dfptest_monitoring.oe674 (.text:MmwaveLink_setRfPmClkLoIntAnaSignalsMonConfig)
                  007fda20    00000080     dfptest_monitoring.oe674 (.text:MmwaveLink_setRfRxGainPhaMonConfig)
                  007fdaa0    00000080     dfptest_monitoring.oe674 (.text:MmwaveLink_setRfRxIfSatMonConfig)
                  007fdb20    00000080     dfptest_monitoring.oe674 (.text:MmwaveLink_setRfRxIfStageMonConfig)
                  007fdba0    00000080     dfptest_monitoring.oe674 (.text:MmwaveLink_setRfRxIntAnaSignalMonConfig)
                  007fdc20    00000080     dfptest_monitoring.oe674 (.text:MmwaveLink_setRfRxNoiseMonConfig)
                  007fdca0    00000080     dfptest_monitoring.oe674 (.text:MmwaveLink_setRfRxSigImgMonConfig)
                  007fdd20    00000080     dfptest_monitoring.oe674 (.text:MmwaveLink_setRfSynthFreqMonConfig)
                  007fdda0    00000080     dfptest_monitoring.oe674 (.text:MmwaveLink_setRfTempMonConfig)
                  007fde20    00000080     dfptest_monitoring.oe674 (.text:MmwaveLink_setRfTxBallbreakMonConfig)
                  007fdea0    00000080     dfptest_monitoring.oe674 (.text:MmwaveLink_setRfTxBpmMonConfig)
                  007fdf20    00000080     dfptest_monitoring.oe674 (.text:MmwaveLink_setRfTxGainPhaseMismatchMonConfig)
                  007fdfa0    00000080     dfptest_monitoring.oe674 (.text:MmwaveLink_setRfTxIntAnaSignalMonConfig)
                  007fe020    00000080     dfptest_monitoring.oe674 (.text:MmwaveLink_setRfTxPowMonConfig)
                  007fe0a0    00000080     dfptest_monitoring.oe674 (.text:MmwaveLink_setRunTimeCalibConfig)
                  007fe120    00000080     dfptest_verify.oe674 (.text:MmwaveLink_verifyRepHeader)
                  007fe1a0    00000080     libosal_xwr68xx.ae674 : SemaphoreP_tirtos.oe674 (.text:SemaphoreP_create)
                  007fe220    00000080     rts6740_elf.lib : trgmsg.c.obj (.text:__TI_readmsg)
                  007fe2a0    00000080                     : llshift.c.obj (.text:__c6xabi_llshl)
                  007fe320    00000080                     : snprintf.c.obj (.text:_outs)
                  007fe3a0    00000080     sysbios.ae674 : c62_TaskSupport_asm.obj (.text:_ti_sysbios_family_c62_TaskSupport_swap__E)
                  007fe420    00000080     libmmwavelink_xwr68xx.ae674 : rl_driver.oe674 (.text:rlDeviceIdentifyCmdDir)
                  007fe4a0    00000080                                 : rl_driver.oe674 (.text:rlDriverOsiInit)
                  007fe520    00000080     rts6740_elf.lib : snprintf.c.obj (.text:snprintf)
                  007fe5a0    00000080     dss_pe674.oe674 (.text:ti_sysbios_BIOS_atExitFunc__I)
                  007fe620    00000080     dss_pe674.oe674 (.text:ti_sysbios_BIOS_registerRTSLock__I)
                  007fe6a0    00000080     sysbios.ae674 : BIOS.obj (.text:ti_sysbios_family_c64p_Cache_invL1pAll__E)
                  007fe720    00000080     dss_pe674.oe674 (.text:ti_sysbios_gates_GateHwi_Object__create__S)
                  007fe7a0    00000080     dss_pe674.oe674 (.text:ti_sysbios_gates_GateMutex_Object__create__S)
                  007fe820    00000080     sysbios.ae674 : BIOS.obj (.text:ti_sysbios_hal_Hwi_checkStack)
                  007fe8a0    00000080     dss_pe674.oe674 (.text:ti_sysbios_heaps_HeapMem_Object__create__S)
                  007fe920    00000080     sysbios.ae674 : BIOS.obj (.text:ti_sysbios_heaps_HeapMem_init__I)
                  007fe9a0    00000080     dss_pe674.oe674 (.text:ti_sysbios_knl_Clock_doTick__I)
                  007fea20    00000080     sysbios.ae674 : BIOS.obj (.text:ti_sysbios_knl_Idle_run__E)
                  007feaa0    00000080     dss_pe674.oe674 (.text:ti_sysbios_knl_Semaphore_create)
                  007feb20    00000080     sysbios.ae674 : BIOS.obj (.text:ti_sysbios_knl_Semaphore_pendTimeout__I)
                  007feba0    00000080                   : BIOS.obj (.text:ti_sysbios_knl_Task_processVitalTaskFlag__I)
                  007fec20    00000080     dss_pe674.oe674 (.text:ti_sysbios_rts_MemAlloc_alloc)
                  007feca0    00000080     sysbios.ae674 : BIOS.obj (.text:ti_sysbios_timers_rti_Timer_stop__E)
                  007fed20    00000080     rts6740_elf.lib : unlink.c.obj (.text:unlink)
                  007feda0    00000080     ti.targets.rts6000.ae674 : Core-label.oe674 (.text:xdc_runtime_Core_assignLabel__I)
                  007fee20    00000080                              : SysStd.oe674 (.text:xdc_runtime_SysStd_abort__E)
                  007feea0    00000080                              : System.oe674 (.text:xdc_runtime_System_atexit__E)
                  007fef20    00000080                              : System.oe674 (.text:xdc_runtime_System_avprintf__E)
                  007fefa0    00000080                              : System.oe674 (.text:xdc_runtime_System_processAtExit__E)
                  007ff020    00000080                              : System.oe674 (.text:xdc_runtime_System_vprintf__E)
                  007ff0a0    00000060     libadcbuf_xwr68xx.ae674 : ADCBuf.oe674 (.text:ADCBuf_open)
                  007ff100    00000060     libcrc_xwr68xx.ae674 : crc.oe674 (.text:CRC_getCRCDataSelectBitValue)
                  007ff160    00000060                          : crc.oe674 (.text:CRC_getCRCTypeBitValue)
                  007ff1c0    00000060                          : crc.oe674 (.text:CRC_isTransactionIdValid)
                  007ff220    00000060                          : crc.oe674 (.text:CRC_resetSignature)
                  007ff280    00000060     libmailbox_xwr68xx.ae674 : mailbox.oe674 (.text:Mailbox_Config_init)
                  007ff2e0    00000060     dfptest_setup.oe674 (.text:MmwaveLink_mboxClose)
                  007ff340    00000060     osi_tirtos.oe674 (.text:Osal_mutexCreate)
                  007ff3a0    00000060     osi_tirtos.oe674 (.text:Osal_semCreate)
                  007ff400    00000060     libsoc_xwr68xx.ae674 : soc.oe674 (.text:SOC_unhaltBSS)
                  007ff460    00000060     rts6740_elf.lib : trgmsg.c.obj (.text:__TI_writemsg)
                  007ff4c0    00000060                     : llshift.c.obj (.text:__c6xabi_llshru)
                  007ff520    00000060                     : imath64.c.obj (.text:_subcull)
                  007ff580    00000060     sysbios.ae674 : c64p_Hwi_asm_switch.obj (.text:_ti_sysbios_family_c64p_Hwi_switchAndDispatch__I)
                  007ff5e0    00000060                   : c64p_Hwi_asm_switch.obj (.text:_ti_sysbios_family_xxx_Hwi_switchAndRunFunc)
                  007ff640    00000060     rts6740_elf.lib : lseek.c.obj (.text:lseek)
                  007ff6a0    00000060                     : memccpy.c.obj (.text:memccpy)
                  007ff700    00000060     libmmwavelink_xwr68xx.ae674 : rl_device.oe674 (.text:rlDeviceGetMssVersion)
                  007ff760    00000060                                 : rl_device.oe674 (.text:rlDeviceSetHsiClk)
                  007ff7c0    00000060                                 : rl_driver.oe674 (.text:rlDriverConstructInMsg)
                  007ff820    00000060                                 : rl_monitoring.oe674 (.text:rlRfAnaMonConfig)
                  007ff880    00000060                                 : rl_monitoring.oe674 (.text:rlRfDigMonEnableConfig)
                  007ff8e0    00000060                                 : rl_monitoring.oe674 (.text:rlRfDigMonPeriodicConfig)
                  007ff940    00000060                                 : rl_monitoring.oe674 (.text:rlRfDualClkCompMonConfig)
                  007ff9a0    00000060                                 : rl_monitoring.oe674 (.text:rlRfExtAnaSignalsMonConfig)
                  007ffa00    00000060                                 : rl_monitoring.oe674 (.text:rlRfGpadcIntAnaSignalsMonConfig)
                  007ffa60    00000060                                 : rl_sensor.oe674 (.text:rlRfInitCalibConfig)
                  007ffac0    00000060                                 : rl_monitoring.oe674 (.text:rlRfPllContrlVoltMonConfig)
                  007ffb20    00000060                                 : rl_monitoring.oe674 (.text:rlRfPmClkLoIntAnaSignalsMonConfig)
                  007ffb80    00000060                                 : rl_sensor.oe674 (.text:rlRfRunTimeCalibConfig)
                  007ffbe0    00000060                                 : rl_monitoring.oe674 (.text:rlRfRxGainPhMonConfig)
                  007ffc40    00000060                                 : rl_monitoring.oe674 (.text:rlRfRxIfSatMonConfig)
                  007ffca0    00000060                                 : rl_monitoring.oe674 (.text:rlRfRxIfStageMonConfig)
                  007ffd00    00000060                                 : rl_monitoring.oe674 (.text:rlRfRxIntAnaSignalsMonConfig)
                  007ffd60    00000060                                 : rl_monitoring.oe674 (.text:rlRfRxMixerInPwrConfig)
                  007ffdc0    00000060                                 : rl_monitoring.oe674 (.text:rlRfRxNoiseMonConfig)
                  007ffe20    00000060                                 : rl_monitoring.oe674 (.text:rlRfRxSigImgMonConfig)
                  007ffe80    00000060                                 : rl_sensor.oe674 (.text:rlRfSetCalMonFreqLimitConfig)
                  007ffee0    00000060                                 : rl_sensor.oe674 (.text:rlRfSetCalMonTimeUnitConfig)
                  007fff40    00000020     libadcbuf_xwr68xx.ae674 : adcbuf_mmwave.oe674 (.text:ADCBUF_MMWave_init)
                  007fff60    00000010     dfptest_config_001.oe674 ($Tramp$S$$dfpTestLoadCfg_001)
                  007fff70    00000010     dfptest_config_002.oe674 ($Tramp$S$$dfpTestLoadCfg_002)
                  007fff80    00000010     dfptest_config_003.oe674 ($Tramp$S$$dfpTestLoadCfg_003)
                  007fff90    00000010     dfptest_config_004.oe674 ($Tramp$S$$dfpTestLoadCfg_004)
                  007fffa0    00000010     dfptest_config_005.oe674 ($Tramp$S$$dfpTestLoadCfg_005)
                  007fffb0    00000010     dfptest_config_006.oe674 ($Tramp$S$$dfpTestLoadCfg_006)
                  007fffc0    00000010     dfptest_config_007.oe674 ($Tramp$S$$dfpTestLoadCfg_007)
                  007fffd0    00000010     dfptest_config_008.oe674 ($Tramp$S$$dfpTestLoadCfg_008)
                  007fffe0    00000010     dfptest_config_009.oe674 ($Tramp$S$$dfpTestLoadCfg_009)
                  007ffff0    00000010     dfptest_config_010.oe674 ($Tramp$S$$dfpTestLoadCfg_010)

systemHeap 
*          0    00800000    00008000     UNINITIALIZED
                  00800000    00008000     dss_pe674.oe674 (systemHeap)

.MCPILogBuffer 
*          0    00808000    00002400     UNINITIALIZED
                  00808000    00002400     main_dfp_dss.oe674 (.MCPILogBuffer)

.text.2    0    0080a400    000029c0     
                  0080a400    00000060     libmmwavelink_xwr68xx.ae674 : rl_sensor.oe674 (.text:rlRfSetDeviceCfg)
                  0080a460    00000060                                 : rl_sensor.oe674 (.text:rlRfSetLdoBypassConfig)
                  0080a4c0    00000060                                 : rl_monitoring.oe674 (.text:rlRfSynthFreqMonConfig)
                  0080a520    00000060                                 : rl_monitoring.oe674 (.text:rlRfTempMonConfig)
                  0080a580    00000060                                 : rl_monitoring.oe674 (.text:rlRfTxGainPhaseMismatchMonConfig)
                  0080a5e0    00000060                                 : rl_sensor.oe674 (.text:rlSensorStart)
                  0080a640    00000060                                 : rl_sensor.oe674 (.text:rlSetAdcOutConfig)
                  0080a6a0    00000060                                 : rl_sensor.oe674 (.text:rlSetBpmChirpConfig)
                  0080a700    00000060                                 : rl_sensor.oe674 (.text:rlSetBpmCommonConfig)
                  0080a760    00000060                                 : rl_sensor.oe674 (.text:rlSetChannelConfig)
                  0080a7c0    00000060                                 : rl_sensor.oe674 (.text:rlSetGpAdcConfig)
                  0080a820    00000060                                 : rl_sensor.oe674 (.text:rlSetLowPowerModeConfig)
                  0080a880    00000060     rts6740_elf.lib : sprintf.c.obj (.text:sprintf)
                  0080a8e0    00000060     dss_pe674.oe674 (.text:ti_sysbios_BIOS_errorRaiseHook__I)
                  0080a940    00000060     dss_pe674.oe674 (.text:ti_sysbios_BIOS_removeRTSLock__I)
                  0080a9a0    00000060     dss_pe674.oe674 (.text:ti_sysbios_BIOS_startFunc__I)
                  0080aa00    00000060     sysbios.ae674 : BIOS.obj (.text:ti_sysbios_family_c62_TaskSupport_start__E)
                  0080aa60    00000060                   : BIOS.obj (.text:ti_sysbios_family_c64p_Cache_setMar__E)
                  0080aac0    00000060                   : BIOS.obj (.text:ti_sysbios_family_c64p_EventCombiner_Module_startup__E)
                  0080ab20    00000060                   : BIOS.obj (.text:ti_sysbios_family_c64p_EventCombiner_unused__E)
                  0080ab80    00000060     dss_pe674.oe674 (.text:ti_sysbios_gates_GateMutex_Object__delete__S)
                  0080abe0    00000060     sysbios.ae674 : BIOS.obj (.text:ti_sysbios_hal_Hwi_initStack)
                  0080ac40    00000060                   : BIOS.obj (.text:ti_sysbios_heaps_HeapMem_free__E)
                  0080aca0    00000060                   : BIOS.obj (.text:ti_sysbios_knl_Clock_Module_startup__E)
                  0080ad00    00000060     dss_pe674.oe674 (.text:ti_sysbios_knl_Queue_construct)
                  0080ad60    00000060     dss_pe674.oe674 (.text:ti_sysbios_knl_Semaphore_Object__delete__S)
                  0080adc0    00000060     dss_pe674.oe674 (.text:ti_sysbios_knl_Semaphore_construct)
                  0080ae20    00000060     sysbios.ae674 : BIOS.obj (.text:ti_sysbios_knl_Swi_Module_startup__E)
                  0080ae80    00000060                   : BIOS.obj (.text:ti_sysbios_knl_Task_enter__I)
                  0080aee0    00000060     rts6740_elf.lib : write.c.obj (.text:write)
                  0080af40    00000060     ti.targets.rts6000.ae674 : Memory.oe674 (.text:xdc_runtime_Memory_valloc__E)
                  0080afa0    00000060                              : Text.oe674 (.text:xdc_runtime_Text_cordText__E)
                  0080b000    00000040     libadcbuf_xwr68xx.ae674 : adcbuf_mmwave.oe674 (.text:ADCBUFContinuousModeCtrl)
                  0080b040    00000040                             : adcbuf_mmwave.oe674 (.text:ADCBUFSetPingNumChirpThreshhold)
                  0080b080    00000040                             : adcbuf_mmwave.oe674 (.text:ADCBUFSetPongNumChirpThreshhold)
                  0080b0c0    00000040                             : adcbuf_mmwave.oe674 (.text:ADCBUFSrcSelect)
                  0080b100    00000040     libcrc_xwr68xx.ae674 : crc.oe674 (.text:CRC_getSignatureRegister)
                  0080b140    00000040                          : crc.oe674 (.text:CRC_releaseTransactionId)
                  0080b180    00000040     libadcbuf_xwr68xx.ae674 : adcbuf_mmwave.oe674 (.text:CSL_FEXTR)
                  0080b1c0    00000040     libsoc_xwr68xx.ae674 : soc.oe674 (.text:CSL_FEXTR)
                  0080b200    00000040                          : soc_xwr68xx.oe674 (.text:CSL_FEXTR)
                  0080b240    00000040     libadcbuf_xwr68xx.ae674 : adcbuf_mmwave.oe674 (.text:CSL_FINSR)
                  0080b280    00000040     libcrc_xwr68xx.ae674 : crc.oe674 (.text:CSL_FINSR)
                  0080b2c0    00000040     libmailbox_xwr68xx.ae674 : mailbox.oe674 (.text:CSL_FINSR)
                  0080b300    00000040     libsoc_xwr68xx.ae674 : soc.oe674 (.text:CSL_FINSR)
                  0080b340    00000040                          : soc_xwr68xx.oe674 (.text:CSL_FINSR)
                  0080b380    00000040                          : soc_xwr68xx_dss.oe674 (.text:CSL_FINSR)
                  0080b3c0    00000040     libosal_xwr68xx.ae674 : HwiP_tirtos.oe674 (.text:HwiP_create)
                  0080b400    00000040                           : HwiP_tirtos.oe674 (.text:HwiP_delete)
                  0080b440    00000040     libtestlogger_xwr68xx.ae674 : logger.oe674 (.text:MCPI_Initialize)
                  0080b480    00000040     libmailbox_xwr68xx.ae674 : mailbox.oe674 (.text:Mailbox_boxEmptyISRBss)
                  0080b4c0    00000040                              : mailbox.oe674 (.text:Mailbox_boxEmptyISRMssDss)
                  0080b500    00000040                              : mailbox.oe674 (.text:Mailbox_boxFullISRBss)
                  0080b540    00000040     dfptest_setup.oe674 (.text:MmwaveLink_spawn)
                  0080b580    00000040     rts6740_elf.lib : frcmpyd_div.c.obj (.text:__TI_frcmpyd_div)
                  0080b5c0    00000040                     : isinf.c.obj (.text:__c6xabi_isinf)
                  0080b600    00000040                     : _printfi.c.obj (.text:__c6xabi_isnan)
                  0080b640    00000040                     : strasg.asm.obj (.text:__strasgi_64plus)
                  0080b680    00000040                     : args_main.c.obj (.text:_args_main)
                  0080b6c0    00000040                     : snprintf.c.obj (.text:_outc)
                  0080b700    00000040                     : sprintf.c.obj (.text:_outs)
                  0080b740    00000040     sysbios.ae674 : c62_TaskSupport_asm.obj (.text:_ti_sysbios_family_c62_TaskSupport_buildTaskStack)
                  0080b780    00000040     dss_pe674.oe674 (.text:free)
                  0080b7c0    00000040     libmmwavelink_xwr68xx.ae674 : rl_controller.oe674 (.text:rlAppendDummy)
                  0080b800    00000040                                 : rl_device.oe674 (.text:rlDeviceGetRfVersion)
                  0080b840    00000040                                 : rl_driver.oe674 (.text:rlDriverFillPayload)
                  0080b880    00000040                                 : rl_sensor.oe674 (.text:rlGetRfBootupStatus)
                  0080b8c0    00000040                                 : rl_sensor.oe674 (.text:rlRfInit)
                  0080b900    00000040     dss_pe674.oe674 (.text:ti_sysbios_BIOS_exitFunc__I)
                  0080b940    00000040     dss_pe674.oe674 (.text:ti_sysbios_BIOS_rtsLock__I)
                  0080b980    00000040     dss_pe674.oe674 (.text:ti_sysbios_BIOS_rtsUnlock__I)
                  0080b9c0    00000040     sysbios.ae674 : BIOS.obj (.text:ti_sysbios_family_c64p_Hwi_disableInterrupt__E)
                  0080ba00    00000040                   : BIOS.obj (.text:ti_sysbios_family_c64p_Hwi_enableInterrupt__E)
                  0080ba40    00000040     dss_pe674.oe674 (.text:ti_sysbios_gates_GateHwi_Handle__label__S)
                  0080ba80    00000040     dss_pe674.oe674 (.text:ti_sysbios_gates_GateHwi_Object__delete__S)
                  0080bac0    00000040     dss_pe674.oe674 (.text:ti_sysbios_gates_GateMutex_Handle__label__S)
                  0080bb00    00000040     sysbios.ae674 : BIOS.obj (.text:ti_sysbios_gates_GateMutex_Instance_init__E)
                  0080bb40    00000040                   : BIOS.obj (.text:ti_sysbios_gates_GateMutex_leave__E)
                  0080bb80    00000040     dss_pe674.oe674 (.text:ti_sysbios_heaps_HeapMem_Handle__label__S)
                  0080bbc0    00000040     dss_pe674.oe674 (.text:ti_sysbios_heaps_HeapMem_Object__delete__S)
                  0080bc00    00000040     dss_pe674.oe674 (.text:ti_sysbios_heaps_HeapMem_Object__get__S)
                  0080bc40    00000040     dss_pe674.oe674 (.text:ti_sysbios_knl_Semaphore_destruct)
                  0080bc80    00000040     dss_pe674.oe674 (.text:ti_sysbios_knl_Swi_Object__get__S)
                  0080bcc0    00000040     dss_pe674.oe674 (.text:ti_sysbios_knl_Task_Object__get__S)
                  0080bd00    00000040     sysbios.ae674 : BIOS.obj (.text:ti_sysbios_knl_Task_sleepTimeout__I)
                  0080bd40    00000040                   : BIOS.obj (.text:ti_sysbios_timers_rti_Timer_periodicStub__E)
                  0080bd80    00000040     rts6740_elf.lib : wcslen.c.obj (.text:wcslen)
                  0080bdc0    00000040     ti.targets.rts6000.ae674 : Error.oe674 (.text:xdc_runtime_Error_check__E)
                  0080be00    00000040                              : Error.oe674 (.text:xdc_runtime_Error_init__E)
                  0080be40    00000040                              : Registry.oe674 (.text:xdc_runtime_Registry_findById__E)
                  0080be80    00000040                              : System.oe674 (.text:xdc_runtime_System_abort__E)
                  0080bec0    00000040     dss_pe674.oe674 (.text:xdc_runtime_System_aprintf__E)
                  0080bf00    00000040     ti.targets.rts6000.ae674 : System.oe674 (.text:xdc_runtime_System_exit__E)
                  0080bf40    00000040     dss_pe674.oe674 (.text:xdc_runtime_System_printf__E)
                  0080bf80    00000020     libadcbuf_xwr68xx.ae674 : ADCBuf.oe674 (.text:ADCBuf_Params_init)
                  0080bfa0    00000020                             : ADCBuf.oe674 (.text:ADCBuf_control)
                  0080bfc0    00000020     libcrc_xwr68xx.ae674 : crc.oe674 (.text:CRC_initConfigParams)
                  0080bfe0    00000020     libosal_xwr68xx.ae674 : HwiP_tirtos.oe674 (.text:HwiP_Params_init)
                  0080c000    00000020                           : HwiP_tirtos.oe674 (.text:HwiP_disable)
                  0080c020    00000020                           : HwiP_tirtos.oe674 (.text:HwiP_disableInterrupt)
                  0080c040    00000020                           : HwiP_tirtos.oe674 (.text:HwiP_enableInterrupt)
                  0080c060    00000020                           : HwiP_tirtos.oe674 (.text:HwiP_restore)
                  0080c080    00000020     libtestlogger_xwr68xx.ae674 : logger.oe674 (.text:MCPI_setTestResult)
                  0080c0a0    00000020     libosal_xwr68xx.ae674 : MemoryP_tirtos.oe674 (.text:MemoryP_ctrlAlloc)
                  0080c0c0    00000020                           : MemoryP_tirtos.oe674 (.text:MemoryP_ctrlFree)
                  0080c0e0    00000020     dfptest_setup.oe674 (.text:MmwaveLink_disableDevice)
                  0080c100    00000020     dfptest_setup.oe674 (.text:MmwaveLink_enableDevice)
                  0080c120    00000020     dfptest_setup.oe674 (.text:MmwaveLink_maskHostIRQ)
                  0080c140    00000020     dfptest_setup.oe674 (.text:MmwaveLink_mboxCallbackFxn)
                  0080c160    00000020     dfptest_verify.oe674 (.text:MmwaveLink_monitorReportCountInit)
                  0080c180    00000020     dfptest_setup.oe674 (.text:MmwaveLink_registerInterruptHandler)
                  0080c1a0    00000020     dfptest_setup.oe674 (.text:MmwaveLink_unmaskHostIRQ)
                  0080c1c0    00000020     dfptest_common.oe674 (.text:Mmwavelink_chirpAvailInterrupCallBackFunc)
                  0080c1e0    00000020     dfptest_common.oe674 (.text:Mmwavelink_frameInterrupCallBackFunc)
                  0080c200    00000020     osi_tirtos.oe674 (.text:Osal_mutexDelete)
                  0080c220    00000020     osi_tirtos.oe674 (.text:Osal_mutexLock)
                  0080c240    00000020     osi_tirtos.oe674 (.text:Osal_mutexUnlock)
                  0080c260    00000020     osi_tirtos.oe674 (.text:Osal_semDelete)
                  0080c280    00000020     osi_tirtos.oe674 (.text:Osal_semSignal)
                  0080c2a0    00000020     osi_tirtos.oe674 (.text:Osal_semWait)
                  0080c2c0    00000020     libosal_xwr68xx.ae674 : SemaphoreP_tirtos.oe674 (.text:SemaphoreP_Params_init)
                  0080c2e0    00000020                           : SemaphoreP_tirtos.oe674 (.text:SemaphoreP_delete)
                  0080c300    00000020                           : SemaphoreP_tirtos.oe674 (.text:SemaphoreP_pend)
                  0080c320    00000020                           : SemaphoreP_tirtos.oe674 (.text:SemaphoreP_post)
                  0080c340    00000020                           : DebugP_tirtos.oe674 (.text:_DebugP_assert)
                  0080c360    00000020     rts6740_elf.lib : errno.c.obj (.text:__c6xabi_errno_addr)
                  0080c380    00000020                     : push.asm.obj (.text:__pop_rts)
                  0080c3a0    00000020                     : push.asm.obj (.text:__push_rts)
                  0080c3c0    00000020                     : _lock.c.obj (.text:_nop)
                  0080c3e0    00000020                     : printf.c.obj (.text:_outc)
                  0080c400    00000020                     : sprintf.c.obj (.text:_outc)
                  0080c420    00000020                     : printf.c.obj (.text:_outs)
                  0080c440    00000020                     : _lock.c.obj (.text:_register_lock)
                  0080c460    00000020                     : _lock.c.obj (.text:_register_unlock)
                  0080c480    00000020                     : signbit.c.obj (.text:_signbit)
                  0080c4a0    00000020     sysbios.ae674 : c62_TaskSupport_asm.obj (.text:_ti_sysbios_family_c62_TaskSupport_glue)
                  0080c4c0    00000020     rts6740_elf.lib : exit.c.obj (.text:abort)
                  0080c4e0    00000020                     : fputc.c.obj (.text:putchar)
                  0080c500    00000020     libmmwavelink_xwr68xx.ae674 : rl_driver.oe674 (.text:rlDriverConstructOutMsg)
                  0080c520    00000020                                 : rl_driver.oe674 (.text:rlDriverGetHandle)
                  0080c540    00000020                                 : rl_driver.oe674 (.text:rlDriverGetPlatformId)
                  0080c560    00000020                                 : rl_driver.oe674 (.text:rlDriverIsDeviceMapValid)
                  0080c580    00000020                                 : rl_controller.oe674 (.text:rlGetSubBlockId)
                  0080c5a0    00000020                                 : rl_controller.oe674 (.text:rlGetSubBlockLen)
                  0080c5c0    00000020     dss_pe674.oe674 (.text:ti_sysbios_BIOS_RtsGateProxy_enter__E)
                  0080c5e0    00000020     dss_pe674.oe674 (.text:ti_sysbios_BIOS_RtsGateProxy_leave__E)
                  0080c600    00000020     sysbios.ae674 : BIOS.obj (.text:ti_sysbios_BIOS_exit__E)
                  0080c620    00000020                   : BIOS.obj (.text:ti_sysbios_BIOS_linkedWithIncorrectBootLibrary__E)
                  0080c640    00000020     dss_pe674.oe674 (.text:ti_sysbios_BIOS_nullFunc__I)
                  0080c660    00000020     sysbios.ae674 : BIOS.obj (.text:ti_sysbios_BIOS_setThreadType__E)
                  0080c680    00000020                   : BIOS.obj (.text:ti_sysbios_BIOS_start__E)
                  0080c6a0    00000020     dss_pe674.oe674 (.text:ti_sysbios_family_c62_TaskSupport_Module__startupDone__S)
                  0080c6c0    00000020     sysbios.ae674 : BIOS.obj (.text:ti_sysbios_family_c62_TaskSupport_checkStack__E)
                  0080c6e0    00000020                   : BIOS.obj (.text:ti_sysbios_family_c62_TaskSupport_getStackAlignment__E)
                  0080c700    00000020                   : BIOS.obj (.text:ti_sysbios_family_c64p_Cache_wbInv__E)
                  0080c720    00000020     dss_pe674.oe674 (.text:ti_sysbios_family_c64p_Hwi_Module__startupDone__F)
                  0080c740    00000020     dss_pe674.oe674 (.text:ti_sysbios_family_c64p_Hwi_Params__init__S)
                  0080c760    00000020     sysbios.ae674 : BIOS.obj (.text:ti_sysbios_family_c64p_Hwi_clearInterrupt__E)
                  0080c780    00000020                   : BIOS.obj (.text:ti_sysbios_family_c64p_Hwi_startup__E)
                  0080c7a0    00000020                   : BIOS.obj (.text:ti_sysbios_family_c64p_Hwi_switchFromBootStack__E)
                  0080c7c0    00000020                   : BIOS.obj (.text:ti_sysbios_family_c64p_Hwi_unPluggedInterrupt__I)
                  0080c7e0    00000020                   : BIOS.obj (.text:ti_sysbios_gates_GateHwi_Instance_init__E)
                  0080c800    00000020                   : BIOS.obj (.text:ti_sysbios_gates_GateHwi_enter__E)
                  0080c820    00000020                   : BIOS.obj (.text:ti_sysbios_gates_GateHwi_leave__E)
                  0080c840    00000020                   : BIOS.obj (.text:ti_sysbios_gates_GateHwi_query__E)
                  0080c860    00000020                   : BIOS.obj (.text:ti_sysbios_gates_GateMutex_Instance_finalize__E)
                  0080c880    00000020                   : BIOS.obj (.text:ti_sysbios_gates_GateMutex_query__E)
                  0080c8a0    00000020                   : BIOS.obj (.text:ti_sysbios_hal_Hwi_Module_startup__E)
                  0080c8c0    00000020     dss_pe674.oe674 (.text:ti_sysbios_heaps_HeapBuf_Object__get__S)
                  0080c8e0    00000020     dss_pe674.oe674 (.text:ti_sysbios_heaps_HeapMem_Module_GateProxy_enter__E)
                  0080c900    00000020     dss_pe674.oe674 (.text:ti_sysbios_heaps_HeapMem_Module_GateProxy_leave__E)
                  0080c920    00000020     sysbios.ae674 : BIOS.obj (.text:ti_sysbios_heaps_HeapMem_isBlocking__E)
                  0080c940    00000020     dss_pe674.oe674 (.text:ti_sysbios_knl_Clock_TimerProxy_getMaxTicks__E)
                  0080c960    00000020     sysbios.ae674 : BIOS.obj (.text:ti_sysbios_knl_Idle_loop__E)
                  0080c980    00000020                   : BIOS.obj (.text:ti_sysbios_knl_Queue_Instance_init__E)
                  0080c9a0    00000020     dss_pe674.oe674 (.text:ti_sysbios_knl_Queue_Object__get__S)
                  0080c9c0    00000020     dss_pe674.oe674 (.text:ti_sysbios_knl_Queue_destruct)
                  0080c9e0    00000020     sysbios.ae674 : BIOS.obj (.text:ti_sysbios_knl_Queue_empty__E)
                  0080ca00    00000020                   : BIOS.obj (.text:ti_sysbios_knl_Semaphore_Instance_finalize__E)
                  0080ca20    00000020     dss_pe674.oe674 (.text:ti_sysbios_knl_Semaphore_Params__init__S)
                  0080ca40    00000020     dss_pe674.oe674 (.text:ti_sysbios_knl_Semaphore_delete)
                  0080ca60    00000020     sysbios.ae674 : BIOS.obj (.text:ti_sysbios_knl_Swi_disable__E)
                  0080ca80    00000020     dss_pe674.oe674 (.text:ti_sysbios_knl_Task_Params__init__S)
                  0080caa0    00000020     sysbios.ae674 : BIOS.obj (.text:ti_sysbios_knl_Task_disable__E)
                  0080cac0    00000020                   : BIOS.obj (.text:ti_sysbios_knl_Task_startup__E)
                  0080cae0    00000020     dss_pe674.oe674 (.text:ti_sysbios_timers_rti_Timer_Module__startupDone__F)
                  0080cb00    00000020     sysbios.ae674 : BIOS.obj (.text:ti_sysbios_timers_rti_Timer_getMaxTicks__E)
                  0080cb20    00000020     ti.targets.rts6000.ae674 : Error.oe674 (.text:xdc_runtime_Error_getSite__E)
                  0080cb40    00000020                              : Error.oe674 (.text:xdc_runtime_Error_raiseX__E)
                  0080cb60    00000020                              : Gate.oe674 (.text:xdc_runtime_Gate_enterSystem__E)
                  0080cb80    00000020                              : Gate.oe674 (.text:xdc_runtime_Gate_leaveSystem__E)
                  0080cba0    00000020     dss_pe674.oe674 (.text:xdc_runtime_IHeap_alloc)
                  0080cbc0    00000020     dss_pe674.oe674 (.text:xdc_runtime_IHeap_free)
                  0080cbe0    00000020     ti.targets.rts6000.ae674 : Memory.oe674 (.text:xdc_runtime_Memory_calloc__E)
                  0080cc00    00000020                              : Memory.oe674 (.text:xdc_runtime_Memory_free__E)
                  0080cc20    00000020                              : Memory.oe674 (.text:xdc_runtime_Memory_getMaxDefaultTypeAlign__E)
                  0080cc40    00000020     dss_pe674.oe674 (.text:xdc_runtime_Startup_exec__I)
                  0080cc60    00000020     dss_pe674.oe674 (.text:xdc_runtime_Startup_reset__I)
                  0080cc80    00000020     ti.targets.rts6000.ae674 : Startup.oe674 (.text:xdc_runtime_Startup_rtsDone__E)
                  0080cca0    00000020                              : SysStd.oe674 (.text:xdc_runtime_SysStd_exit__E)
                  0080ccc0    00000020                              : SysStd.oe674 (.text:xdc_runtime_SysStd_putch__E)
                  0080cce0    00000020                              : SysStd.oe674 (.text:xdc_runtime_SysStd_ready__E)
                  0080cd00    00000020     dss_pe674.oe674 (.text:xdc_runtime_System_Module_GateProxy_enter__E)
                  0080cd20    00000020     dss_pe674.oe674 (.text:xdc_runtime_System_Module_GateProxy_leave__E)
                  0080cd40    00000020     ti.targets.rts6000.ae674 : System.oe674 (.text:xdc_runtime_System_Module_startup__E)
                  0080cd60    00000020                              : System.oe674 (.text:xdc_runtime_System_vsnprintf__E)
                  0080cd80    00000020                              : Text.oe674 (.text:xdc_runtime_Text_ropeText__E)
                  0080cda0    00000020     dss_pe674.oe674 (.text:xdc_runtime_Text_visitRope__I)

.const     0    0080cdc0    00007bae     
                  0080cdc0    00002a18     dfptest_verify.oe674 (.const:.string)
                  0080f7d8    000019be     dss_pe674.oe674 (.const:xdc_runtime_Text_charTab__A)
                  00811196    00000002     dss_pe674.oe674 (.const:ti_sysbios_family_c64p_Cache_Module__id__C)
                  00811198    00001548     dfptest_setup.oe674 (.const:.string)
                  008126e0    00000564     dfptest_monitoring.oe674 (.const:.string)
                  00812c44    00000518     sysbios.ae674 : BIOS.obj (.const:.string)
                  0081315c    00000440     dfptest_common.oe674 (.const:.string)
                  0081359c    000001fc     main_dfp_dss.oe674 (.const:.string)
                  00813798    00000101     rts6740_elf.lib : ctype.c.obj (.const:.string:_ctypes_)
                  00813899    00000001     --HOLE-- [fill = 0]
                  0081389a    00000002     dss_pe674.oe674 (.const:ti_sysbios_family_c64p_EventCombiner_Module__id__C)
                  0081389c    00000004     ti.targets.rts6000.ae674 : Assert.oe674 (.const:.string)
                  008138a0    00000100     libmmwavelink_xwr68xx.ae674 : rl_monitoring.oe674 (.const:$P$T1$2)
                  008139a0    00000100                                 : rl_monitoring.oe674 (.const:$P$T3$4)
                  00813aa0    00000100                                 : rl_monitoring.oe674 (.const:$P$T5$6)
                  00813ba0    00000100                                 : rl_monitoring.oe674 (.const:$P$T7$8)
                  00813ca0    000000c8     dss_pe674.oe674 (.const:xdc_runtime_Text_nodeTab__A)
                  00813d68    000000b8     dfptest_setup.oe674 (.const:$P$T6$7)
                  00813e20    00000094     libtestlogger_xwr68xx.ae674 : logger.oe674 (.const:.string)
                  00813eb4    00000074     dss_pe674.oe674 (.const:.string)
                  00813f28    0000006c     libmmwavelink_xwr68xx.ae674 : rl_driver.oe674 (.const:.string)
                  00813f94    00000058     ti.targets.rts6000.ae674 : Error.oe674 (.const:.string)
                  00813fec    0000004c     libmailbox_xwr68xx.ae674 : mailbox.oe674 (.const:.string)
                  00814038    00000044     dss_pe674.oe674 (.const:ti_sysbios_knl_Task_Object__PARAMS__C)
                  0081407c    00000040     ti.targets.rts6000.ae674 : Text.oe674 (.const:.string)
                  008140bc    0000003c     libsoc_xwr68xx.ae674 : soc_xwr68xx_dss.oe674 (.const:.string)
                  008140f8    00000030     dss_pe674.oe674 (.const:ti_sysbios_family_c64p_Hwi_Object__PARAMS__C)
                  00814128    0000002c     dfptest_setup.oe674 (.const:$P$T4$5)
                  00814154    0000002c     ti.targets.rts6000.ae674 : Startup.oe674 (.const:.string)
                  00814180    0000002c     dss_pe674.oe674 (.const:xdc_runtime_Startup_sfxnTab__A)
                  008141ac    00000028     dss_pe674.oe674 (.const:ti_sysbios_heaps_HeapMem_Module__FXNS__C)
                  008141d4    00000024     rts6740_elf.lib : _printfi.c.obj (.const:.string)
                  008141f8    00000024     libmailbox_xwr68xx.ae674 : mailbox.oe674 (.const:Mailbox_defaultCfg)
                  0081421c    00000024     dss_pe674.oe674 (.const:ti_sysbios_gates_GateHwi_Module__FXNS__C)
                  00814240    00000024     dss_pe674.oe674 (.const:ti_sysbios_gates_GateMutex_Module__FXNS__C)
                  00814264    00000024     dss_pe674.oe674 (.const:ti_sysbios_heaps_HeapMem_Object__PARAMS__C)
                  00814288    00000024     dss_pe674.oe674 (.const:ti_sysbios_knl_Semaphore_Object__PARAMS__C)
                  008142ac    00000020     libosal_xwr68xx.ae674 : SemaphoreP_tirtos.oe674 (.const:.string)
                  008142cc    00000020     dss_pe674.oe674 (.const:ti_sysbios_family_c64p_Hwi_Object__DESC__C)
                  008142ec    00000020     dss_pe674.oe674 (.const:ti_sysbios_gates_GateHwi_Object__DESC__C)
                  0081430c    00000020     dss_pe674.oe674 (.const:ti_sysbios_gates_GateMutex_Object__DESC__C)
                  0081432c    00000020     dss_pe674.oe674 (.const:ti_sysbios_heaps_HeapMem_Object__DESC__C)
                  0081434c    00000020     dss_pe674.oe674 (.const:ti_sysbios_knl_Queue_Object__DESC__C)
                  0081436c    00000020     dss_pe674.oe674 (.const:ti_sysbios_knl_Semaphore_Object__DESC__C)
                  0081438c    00000020     dss_pe674.oe674 (.const:ti_sysbios_knl_Task_Object__DESC__C)
                  008143ac    0000001c     libosal_xwr68xx.ae674 : HwiP_tirtos.oe674 (.const:.string)
                  008143c8    00000018     dfptest_setup.oe674 (.const:$P$T5$6)
                  008143e0    00000018     ti.targets.rts6000.ae674 : System.oe674 (.const:.string)
                  008143f8    00000018     dss_pe674.oe674 (.const:ti_sysbios_gates_GateHwi_Object__PARAMS__C)
                  00814410    00000018     dss_pe674.oe674 (.const:ti_sysbios_gates_GateMutex_Object__PARAMS__C)
                  00814428    00000018     dss_pe674.oe674 (.const:ti_sysbios_knl_Queue_Object__PARAMS__C)
                  00814440    00000016     dss_pe674.oe674 (.const:xdc_runtime_Startup_sfxnRts__A)
                  00814456    00000002     dss_pe674.oe674 (.const:ti_sysbios_family_c64p_Exception_Module__id__C)
                  00814458    00000014     libadcbuf_xwr68xx.ae674 : adcbuf_mmwave.oe674 (.const:.string)
                  0081446c    00000014                             : adcbuf_mmwave.oe674 (.const:gADCBufFxnTable)
                  00814480    00000010     dfptest_setup.oe674 (.const:$P$T0$1)
                  00814490    00000010     libmmwavelink_xwr68xx.ae674 : rl_driver.oe674 (.const:$P$T0$1)
                  008144a0    00000010                                 : rl_monitoring.oe674 (.const:$P$T0$1)
                  008144b0    00000010                                 : rl_driver.oe674 (.const:$P$T1$2)
                  008144c0    00000010                                 : rl_sensor.oe674 (.const:$P$T1$2)
                  008144d0    00000010                                 : rl_driver.oe674 (.const:$P$T10$11)
                  008144e0    00000010                                 : rl_sensor.oe674 (.const:$P$T12$13)
                  008144f0    00000010                                 : rl_sensor.oe674 (.const:$P$T13$14)
                  00814500    00000010                                 : rl_sensor.oe674 (.const:$P$T15$16)
                  00814510    00000010                                 : rl_sensor.oe674 (.const:$P$T16$17)
                  00814520    00000010                                 : rl_monitoring.oe674 (.const:$P$T2$3)
                  00814530    00000010                                 : rl_sensor.oe674 (.const:$P$T2$3)
                  00814540    00000010                                 : rl_sensor.oe674 (.const:$P$T20$21)
                  00814550    00000010                                 : rl_sensor.oe674 (.const:$P$T21$22)
                  00814560    00000010                                 : rl_sensor.oe674 (.const:$P$T23$24)
                  00814570    00000010                                 : rl_sensor.oe674 (.const:$P$T24$25)
                  00814580    00000010                                 : rl_driver.oe674 (.const:$P$T3$4)
                  00814590    00000010                                 : rl_sensor.oe674 (.const:$P$T3$4)
                  008145a0    00000010                                 : rl_monitoring.oe674 (.const:$P$T4$5)
                  008145b0    00000010                                 : rl_sensor.oe674 (.const:$P$T4$5)
                  008145c0    00000010                                 : rl_driver.oe674 (.const:$P$T5$6)
                  008145d0    00000010                                 : rl_driver.oe674 (.const:$P$T6$7)
                  008145e0    00000010                                 : rl_monitoring.oe674 (.const:$P$T6$7)
                  008145f0    00000010                                 : rl_sensor.oe674 (.const:$P$T7$8)
                  00814600    00000010                                 : rl_driver.oe674 (.const:$P$T9$10)
                  00814610    00000010     libadcbuf_xwr68xx.ae674 : ADCBuf.oe674 (.const:ADCBuf_defaultParams)
                  00814620    00000010                             : adcbuf_xwr1xxx.oe674 (.const:gADCBufHwCfg)
                  00814630    00000010     dss_pe674.oe674 (.const:ti_sysbios_family_c64p_EventCombiner_EVTMASK__C)
                  00814640    0000000c     libcrc_xwr68xx.ae674 : crc.oe674 (.const:.string)
                  0081464c    00000008     libmmwavelink_xwr68xx.ae674 : rl_sensor.oe674 (.const:$P$T14$15)
                  00814654    00000008                                 : rl_sensor.oe674 (.const:$P$T17$18)
                  0081465c    00000008                                 : rl_sensor.oe674 (.const:$P$T18$19)
                  00814664    00000008                                 : rl_sensor.oe674 (.const:$P$T19$20)
                  0081466c    00000008                                 : rl_sensor.oe674 (.const:$P$T22$23)
                  00814674    00000008                                 : rl_sensor.oe674 (.const:$P$T25$26)
                  0081467c    00000008                                 : rl_sensor.oe674 (.const:$P$T26$27)
                  00814684    00000008                                 : rl_sensor.oe674 (.const:$P$T5$6)
                  0081468c    00000008                                 : rl_sensor.oe674 (.const:$P$T6$7)
                  00814694    00000008     dss_pe674.oe674 (.const:ti_sysbios_knl_Idle_funcList__C)
                  0081469c    00000004     dss_pe674.oe674 (.const:ti_sysbios_family_c62_TaskSupport_stackAlignment__C)
                  008146a0    00000008     dss_pe674.oe674 (.const:xdc_runtime_Startup_firstFxns__A)
                  008146a8    00000008     dss_pe674.oe674 (.const:xdc_runtime_Startup_firstFxns__C)
                  008146b0    00000008     dss_pe674.oe674 (.const:xdc_runtime_Startup_lastFxns__C)
                  008146b8    00000004     dss_pe674.oe674 (.const:ti_sysbios_family_c64p_Cache_EMIFA_BASE__C)
                  008146bc    00000004     dss_pe674.oe674 (.const:ti_sysbios_family_c64p_Cache_EMIFA_CFG__C)
                  008146c0    00000004     dss_pe674.oe674 (.const:ti_sysbios_family_c64p_Cache_EMIFA_LENGTH__C)
                  008146c4    00000004     dss_pe674.oe674 (.const:ti_sysbios_family_c64p_Cache_EMIFB_BASE__C)
                  008146c8    00000004     dss_pe674.oe674 (.const:ti_sysbios_family_c64p_Cache_EMIFB_CFG__C)
                  008146cc    00000004     dss_pe674.oe674 (.const:ti_sysbios_family_c64p_Cache_EMIFB_LENGTH__C)
                  008146d0    00000004     dss_pe674.oe674 (.const:ti_sysbios_family_c64p_Cache_EMIFC_BASE__C)
                  008146d4    00000004     dss_pe674.oe674 (.const:ti_sysbios_family_c64p_Cache_EMIFC_CFG__C)
                  008146d8    00000004     dss_pe674.oe674 (.const:ti_sysbios_family_c64p_Cache_EMIFC_LENGTH__C)
                  008146dc    00000004     dss_pe674.oe674 (.const:ti_sysbios_family_c64p_Cache_E_invalidL1CacheSize__C)
                  008146e0    00000004     dss_pe674.oe674 (.const:ti_sysbios_family_c64p_Cache_E_invalidL2CacheSize__C)
                  008146e4    00000004     dss_pe674.oe674 (.const:ti_sysbios_family_c64p_Cache_MAR0_31__C)
                  008146e8    00000004     dss_pe674.oe674 (.const:ti_sysbios_family_c64p_Cache_MAR128_159__C)
                  008146ec    00000004     dss_pe674.oe674 (.const:ti_sysbios_family_c64p_Cache_MAR160_191__C)
                  008146f0    00000004     dss_pe674.oe674 (.const:ti_sysbios_family_c64p_Cache_MAR192_223__C)
                  008146f4    00000004     dss_pe674.oe674 (.const:ti_sysbios_family_c64p_Cache_MAR224_255__C)
                  008146f8    00000004     dss_pe674.oe674 (.const:ti_sysbios_family_c64p_Cache_MAR32_63__C)
                  008146fc    00000004     dss_pe674.oe674 (.const:ti_sysbios_family_c64p_Cache_MAR64_95__C)
                  00814700    00000004     dss_pe674.oe674 (.const:ti_sysbios_family_c64p_Cache_MAR96_127__C)
                  00814704    00000004     dss_pe674.oe674 (.const:ti_sysbios_family_c64p_EventCombiner_A_invalidEventId__C)
                  00814708    00000004     dss_pe674.oe674 (.const:ti_sysbios_family_c64p_EventCombiner_EVTRegs__C)
                  0081470c    00000004     dss_pe674.oe674 (.const:ti_sysbios_family_c64p_EventCombiner_E_unpluggedEvent__C)
                  00814710    00000004     dss_pe674.oe674 (.const:ti_sysbios_family_c64p_EventCombiner_Module__diagsEnabled__C)
                  00814714    00000004     dss_pe674.oe674 (.const:ti_sysbios_family_c64p_EventCombiner_Module__diagsIncluded__C)
                  00814718    00000004     dss_pe674.oe674 (.const:ti_sysbios_family_c64p_EventCombiner_Module__diagsMask__C)
                  0081471c    00000004     dss_pe674.oe674 (.const:ti_sysbios_family_c64p_Exception_E_exceptionMax__C)
                  00814720    00000004     dss_pe674.oe674 (.const:ti_sysbios_family_c64p_Exception_exceptionHook__C)
                  00814724    00000004     dss_pe674.oe674 (.const:ti_sysbios_family_c64p_Exception_externalHook__C)
                  00814728    00000004     dss_pe674.oe674 (.const:ti_sysbios_family_c64p_Exception_internalHook__C)
                  0081472c    00000004     dss_pe674.oe674 (.const:ti_sysbios_family_c64p_Exception_nmiHook__C)
                  00814730    00000004     dss_pe674.oe674 (.const:ti_sysbios_family_c64p_Hwi_E_alreadyDefined__C)
                  00814734    00000004     dss_pe674.oe674 (.const:ti_sysbios_family_c64p_Hwi_E_handleNotFound__C)
                  00814738    00000004     dss_pe674.oe674 (.const:ti_sysbios_family_c64p_Hwi_E_invalidIntNum__C)
                  0081473c    00000004     dss_pe674.oe674 (.const:ti_sysbios_family_c64p_Hwi_INTRMUX1Address__C)
                  00814740    00000004     dss_pe674.oe674 (.const:ti_sysbios_family_c64p_Hwi_LD_end__C)
                  00814744    00000004     dss_pe674.oe674 (.const:ti_sysbios_family_c64p_Hwi_LM_begin__C)
                  00814748    00000004     dss_pe674.oe674 (.const:ti_sysbios_family_c64p_Hwi_Module__diagsEnabled__C)
                  0081474c    00000004     dss_pe674.oe674 (.const:ti_sysbios_family_c64p_Hwi_Module__diagsIncluded__C)
                  00814750    00000004     dss_pe674.oe674 (.const:ti_sysbios_family_c64p_Hwi_Module__diagsMask__C)
                  00814754    00000004     dss_pe674.oe674 (.const:ti_sysbios_family_c64p_Hwi_Module__loggerFxn1__C)
                  00814758    00000004     dss_pe674.oe674 (.const:ti_sysbios_family_c64p_Hwi_Module__loggerFxn8__C)
                  0081475c    00000004     dss_pe674.oe674 (.const:ti_sysbios_family_c64p_Hwi_Module__loggerObj__C)
                  00814760    00000004     dss_pe674.oe674 (.const:ti_sysbios_gates_GateMutex_A_badContext__C)
                  00814764    00000004     dss_pe674.oe674 (.const:ti_sysbios_gates_GateMutex_Instance_State_sem__O)
                  00814768    00000004     dss_pe674.oe674 (.const:ti_sysbios_gates_GateMutex_Module__diagsEnabled__C)
                  0081476c    00000004     dss_pe674.oe674 (.const:ti_sysbios_gates_GateMutex_Module__diagsIncluded__C)
                  00814770    00000004     dss_pe674.oe674 (.const:ti_sysbios_gates_GateMutex_Module__diagsMask__C)
                  00814774    00000004     dss_pe674.oe674 (.const:ti_sysbios_hal_Hwi_E_stackOverflow__C)
                  00814778    00000004     dss_pe674.oe674 (.const:ti_sysbios_heaps_HeapBuf_Instance_State_freeList__O)
                  0081477c    00000004     dss_pe674.oe674 (.const:ti_sysbios_heaps_HeapBuf_Object__count__C)
                  00814780    00000004     dss_pe674.oe674 (.const:ti_sysbios_heaps_HeapBuf_numConstructedHeaps__C)
                  00814784    00000004     dss_pe674.oe674 (.const:ti_sysbios_heaps_HeapMem_A_align__C)
                  00814788    00000004     dss_pe674.oe674 (.const:ti_sysbios_heaps_HeapMem_A_heapSize__C)
                  0081478c    00000004     dss_pe674.oe674 (.const:ti_sysbios_heaps_HeapMem_A_invalidFree__C)
                  00814790    00000004     dss_pe674.oe674 (.const:ti_sysbios_heaps_HeapMem_A_zeroBlock__C)
                  00814794    00000004     dss_pe674.oe674 (.const:ti_sysbios_heaps_HeapMem_E_memory__C)
                  00814798    00000004     dss_pe674.oe674 (.const:ti_sysbios_heaps_HeapMem_Module__diagsEnabled__C)
                  0081479c    00000004     dss_pe674.oe674 (.const:ti_sysbios_heaps_HeapMem_Module__diagsIncluded__C)
                  008147a0    00000004     dss_pe674.oe674 (.const:ti_sysbios_heaps_HeapMem_Module__diagsMask__C)
                  008147a4    00000004     dss_pe674.oe674 (.const:ti_sysbios_heaps_HeapMem_Module__gateObj__C)
                  008147a8    00000004     dss_pe674.oe674 (.const:ti_sysbios_heaps_HeapMem_Object__count__C)
                  008147ac    00000004     dss_pe674.oe674 (.const:ti_sysbios_heaps_HeapMem_reqAlign__C)
                  008147b0    00000004     dss_pe674.oe674 (.const:ti_sysbios_knl_Clock_LM_begin__C)
                  008147b4    00000004     dss_pe674.oe674 (.const:ti_sysbios_knl_Clock_LM_tick__C)
                  008147b8    00000004     dss_pe674.oe674 (.const:ti_sysbios_knl_Clock_LW_delayed__C)
                  008147bc    00000004     dss_pe674.oe674 (.const:ti_sysbios_knl_Clock_Module_State_clockQ__O)
                  008147c0    00000004     dss_pe674.oe674 (.const:ti_sysbios_knl_Clock_Module__diagsEnabled__C)
                  008147c4    00000004     dss_pe674.oe674 (.const:ti_sysbios_knl_Clock_Module__diagsIncluded__C)
                  008147c8    00000004     dss_pe674.oe674 (.const:ti_sysbios_knl_Clock_Module__diagsMask__C)
                  008147cc    00000004     dss_pe674.oe674 (.const:ti_sysbios_knl_Clock_Module__loggerFxn1__C)
                  008147d0    00000004     dss_pe674.oe674 (.const:ti_sysbios_knl_Clock_Module__loggerFxn2__C)
                  008147d4    00000004     dss_pe674.oe674 (.const:ti_sysbios_knl_Clock_Module__loggerObj__C)
                  008147d8    00000004     dss_pe674.oe674 (.const:ti_sysbios_knl_Idle_funcList__A)
                  008147dc    00000004     dss_pe674.oe674 (.const:ti_sysbios_knl_Semaphore_A_badContext__C)
                  008147e0    00000004     dss_pe674.oe674 (.const:ti_sysbios_knl_Semaphore_A_noEvents__C)
                  008147e4    00000004     dss_pe674.oe674 (.const:ti_sysbios_knl_Semaphore_A_overflow__C)
                  008147e8    00000004     dss_pe674.oe674 (.const:ti_sysbios_knl_Semaphore_A_pendTaskDisabled__C)
                  008147ec    00000004     dss_pe674.oe674 (.const:ti_sysbios_knl_Semaphore_Instance_State_pendQ__O)
                  008147f0    00000004     dss_pe674.oe674 (.const:ti_sysbios_knl_Semaphore_LM_pend__C)
                  008147f4    00000004     dss_pe674.oe674 (.const:ti_sysbios_knl_Semaphore_LM_post__C)
                  008147f8    00000004     dss_pe674.oe674 (.const:ti_sysbios_knl_Semaphore_Module__diagsEnabled__C)
                  008147fc    00000004     dss_pe674.oe674 (.const:ti_sysbios_knl_Semaphore_Module__diagsIncluded__C)
                  00814800    00000004     dss_pe674.oe674 (.const:ti_sysbios_knl_Semaphore_Module__diagsMask__C)
                  00814804    00000004     dss_pe674.oe674 (.const:ti_sysbios_knl_Semaphore_Module__loggerFxn2__C)
                  00814808    00000004     dss_pe674.oe674 (.const:ti_sysbios_knl_Semaphore_Module__loggerFxn4__C)
                  0081480c    00000004     dss_pe674.oe674 (.const:ti_sysbios_knl_Semaphore_Module__loggerObj__C)
                  00814810    00000004     dss_pe674.oe674 (.const:ti_sysbios_knl_Swi_LD_end__C)
                  00814814    00000004     dss_pe674.oe674 (.const:ti_sysbios_knl_Swi_LM_begin__C)
                  00814818    00000004     dss_pe674.oe674 (.const:ti_sysbios_knl_Swi_LM_post__C)
                  0081481c    00000004     dss_pe674.oe674 (.const:ti_sysbios_knl_Swi_Module__diagsEnabled__C)
                  00814820    00000004     dss_pe674.oe674 (.const:ti_sysbios_knl_Swi_Module__diagsIncluded__C)
                  00814824    00000004     dss_pe674.oe674 (.const:ti_sysbios_knl_Swi_Module__diagsMask__C)
                  00814828    00000004     dss_pe674.oe674 (.const:ti_sysbios_knl_Swi_Module__loggerFxn1__C)
                  0081482c    00000004     dss_pe674.oe674 (.const:ti_sysbios_knl_Swi_Module__loggerFxn4__C)
                  00814830    00000004     dss_pe674.oe674 (.const:ti_sysbios_knl_Swi_Module__loggerObj__C)
                  00814834    00000004     dss_pe674.oe674 (.const:ti_sysbios_knl_Swi_Object__count__C)
                  00814838    00000004     dss_pe674.oe674 (.const:ti_sysbios_knl_Task_A_badPriority__C)
                  0081483c    00000004     dss_pe674.oe674 (.const:ti_sysbios_knl_Task_A_badTaskState__C)
                  00814840    00000004     dss_pe674.oe674 (.const:ti_sysbios_knl_Task_A_badThreadType__C)
                  00814844    00000004     dss_pe674.oe674 (.const:ti_sysbios_knl_Task_A_badTimeout__C)
                  00814848    00000004     dss_pe674.oe674 (.const:ti_sysbios_knl_Task_A_noPendElem__C)
                  0081484c    00000004     dss_pe674.oe674 (.const:ti_sysbios_knl_Task_A_sleepTaskDisabled__C)
                  00814850    00000004     dss_pe674.oe674 (.const:ti_sysbios_knl_Task_E_spOutOfBounds__C)
                  00814854    00000004     dss_pe674.oe674 (.const:ti_sysbios_knl_Task_E_stackOverflow__C)
                  00814858    00000004     dss_pe674.oe674 (.const:ti_sysbios_knl_Task_LD_block__C)
                  0081485c    00000004     dss_pe674.oe674 (.const:ti_sysbios_knl_Task_LD_exit__C)
                  00814860    00000004     dss_pe674.oe674 (.const:ti_sysbios_knl_Task_LD_ready__C)
                  00814864    00000004     dss_pe674.oe674 (.const:ti_sysbios_knl_Task_LM_sleep__C)
                  00814868    00000004     dss_pe674.oe674 (.const:ti_sysbios_knl_Task_LM_switch__C)
                  0081486c    00000004     dss_pe674.oe674 (.const:ti_sysbios_knl_Task_Module_State_inactiveQ__O)
                  00814870    00000004     dss_pe674.oe674 (.const:ti_sysbios_knl_Task_Module__diagsEnabled__C)
                  00814874    00000004     dss_pe674.oe674 (.const:ti_sysbios_knl_Task_Module__diagsIncluded__C)
                  00814878    00000004     dss_pe674.oe674 (.const:ti_sysbios_knl_Task_Module__diagsMask__C)
                  0081487c    00000004     dss_pe674.oe674 (.const:ti_sysbios_knl_Task_Module__loggerFxn2__C)
                  00814880    00000004     dss_pe674.oe674 (.const:ti_sysbios_knl_Task_Module__loggerFxn4__C)
                  00814884    00000004     dss_pe674.oe674 (.const:ti_sysbios_knl_Task_Module__loggerObj__C)
                  00814888    00000004     dss_pe674.oe674 (.const:ti_sysbios_knl_Task_Object__count__C)
                  0081488c    00000004     dss_pe674.oe674 (.const:ti_sysbios_knl_Task_allBlockedFunc__C)
                  00814890    00000004     dss_pe674.oe674 (.const:ti_sysbios_knl_Task_defaultStackHeap__C)
                  00814894    00000004     dss_pe674.oe674 (.const:ti_sysbios_knl_Task_defaultStackSize__C)
                  00814898    00000004     dss_pe674.oe674 (.const:ti_sysbios_knl_Task_numConstructedTasks__C)
                  0081489c    00000004     dss_pe674.oe674 (.const:ti_sysbios_timers_rti_Timer_E_cannotSupport__C)
                  008148a0    00000004     dss_pe674.oe674 (.const:ti_sysbios_timers_rti_Timer_Module__diagsEnabled__C)
                  008148a4    00000004     dss_pe674.oe674 (.const:ti_sysbios_timers_rti_Timer_Module__diagsIncluded__C)
                  008148a8    00000004     dss_pe674.oe674 (.const:ti_sysbios_timers_rti_Timer_Module__diagsMask__C)
                  008148ac    00000004     dss_pe674.oe674 (.const:ti_sysbios_timers_rti_Timer_numTimerDevices__C)
                  008148b0    00000004     dss_pe674.oe674 (.const:ti_sysbios_timers_rti_Timer_startupNeeded__C)
                  008148b4    00000004     dss_pe674.oe674 (.const:xdc_runtime_Assert_E_assertFailed__C)
                  008148b8    00000004     dss_pe674.oe674 (.const:xdc_runtime_Core_A_initializedParams__C)
                  008148bc    00000004     dss_pe674.oe674 (.const:xdc_runtime_Core_Module__diagsEnabled__C)
                  008148c0    00000004     dss_pe674.oe674 (.const:xdc_runtime_Core_Module__diagsIncluded__C)
                  008148c4    00000004     dss_pe674.oe674 (.const:xdc_runtime_Core_Module__diagsMask__C)
                  008148c8    00000004     dss_pe674.oe674 (.const:xdc_runtime_Error_E_memory__C)
                  008148cc    00000004     dss_pe674.oe674 (.const:xdc_runtime_Error_Module__diagsEnabled__C)
                  008148d0    00000004     dss_pe674.oe674 (.const:xdc_runtime_Error_Module__diagsIncluded__C)
                  008148d4    00000004     dss_pe674.oe674 (.const:xdc_runtime_Error_Module__diagsMask__C)
                  008148d8    00000004     dss_pe674.oe674 (.const:xdc_runtime_Error_Module__loggerFxn8__C)
                  008148dc    00000004     dss_pe674.oe674 (.const:xdc_runtime_Error_Module__loggerObj__C)
                  008148e0    00000004     dss_pe674.oe674 (.const:xdc_runtime_Error_policyFxn__C)
                  008148e4    00000004     dss_pe674.oe674 (.const:xdc_runtime_Error_policy__C)
                  008148e8    00000004     dss_pe674.oe674 (.const:xdc_runtime_Error_raiseHook__C)
                  008148ec    00000004     dss_pe674.oe674 (.const:xdc_runtime_IGateProvider_Interface__BASE__C)
                  008148f0    00000004     dss_pe674.oe674 (.const:xdc_runtime_IHeap_Interface__BASE__C)
                  008148f4    00000004     dss_pe674.oe674 (.const:xdc_runtime_IModule_Interface__BASE__C)
                  008148f8    00000004     dss_pe674.oe674 (.const:xdc_runtime_Log_L_error__C)
                  008148fc    00000004     dss_pe674.oe674 (.const:xdc_runtime_Memory_defaultHeapInstance__C)
                  00814900    00000004     dss_pe674.oe674 (.const:xdc_runtime_Startup_execImpl__C)
                  00814904    00000004     dss_pe674.oe674 (.const:xdc_runtime_Startup_maxPasses__C)
                  00814908    00000004     dss_pe674.oe674 (.const:xdc_runtime_Startup_sfxnRts__C)
                  0081490c    00000004     dss_pe674.oe674 (.const:xdc_runtime_Startup_sfxnTab__C)
                  00814910    00000004     dss_pe674.oe674 (.const:xdc_runtime_System_Module__gateObj__C)
                  00814914    00000004     dss_pe674.oe674 (.const:xdc_runtime_System_abortFxn__C)
                  00814918    00000004     dss_pe674.oe674 (.const:xdc_runtime_System_exitFxn__C)
                  0081491c    00000004     dss_pe674.oe674 (.const:xdc_runtime_System_extendFxn__C)
                  00814920    00000004     dss_pe674.oe674 (.const:xdc_runtime_System_maxAtexitHandlers__C)
                  00814924    00000004     dss_pe674.oe674 (.const:xdc_runtime_Text_charTab__C)
                  00814928    00000004     dss_pe674.oe674 (.const:xdc_runtime_Text_nameEmpty__C)
                  0081492c    00000004     dss_pe674.oe674 (.const:xdc_runtime_Text_nameStatic__C)
                  00814930    00000004     dss_pe674.oe674 (.const:xdc_runtime_Text_nameUnknown__C)
                  00814934    00000004     dss_pe674.oe674 (.const:xdc_runtime_Text_nodeTab__C)
                  00814938    00000004     dss_pe674.oe674 (.const:xdc_runtime_Text_visitRopeFxn__C)
                  0081493c    00000002     dss_pe674.oe674 (.const:ti_sysbios_family_c64p_Exception_useInternalBuffer__C)
                  0081493e    00000002     dss_pe674.oe674 (.const:ti_sysbios_family_c64p_Hwi_Module__id__C)
                  00814940    00000002     dss_pe674.oe674 (.const:ti_sysbios_family_c64p_Hwi_Module__loggerDefined__C)
                  00814942    00000002     dss_pe674.oe674 (.const:ti_sysbios_gates_GateMutex_Module__id__C)
                  00814944    00000002     dss_pe674.oe674 (.const:ti_sysbios_hal_Hwi_Module__id__C)
                  00814946    00000002     dss_pe674.oe674 (.const:ti_sysbios_heaps_HeapMem_Module__id__C)
                  00814948    00000002     dss_pe674.oe674 (.const:ti_sysbios_knl_Clock_Module__id__C)
                  0081494a    00000002     dss_pe674.oe674 (.const:ti_sysbios_knl_Clock_Module__loggerDefined__C)
                  0081494c    00000002     dss_pe674.oe674 (.const:ti_sysbios_knl_Semaphore_Module__id__C)
                  0081494e    00000002     dss_pe674.oe674 (.const:ti_sysbios_knl_Semaphore_Module__loggerDefined__C)
                  00814950    00000002     dss_pe674.oe674 (.const:ti_sysbios_knl_Swi_Module__id__C)
                  00814952    00000002     dss_pe674.oe674 (.const:ti_sysbios_knl_Swi_Module__loggerDefined__C)
                  00814954    00000002     dss_pe674.oe674 (.const:ti_sysbios_knl_Task_Module__id__C)
                  00814956    00000002     dss_pe674.oe674 (.const:ti_sysbios_knl_Task_Module__loggerDefined__C)
                  00814958    00000002     dss_pe674.oe674 (.const:ti_sysbios_timers_rti_Timer_Module__id__C)
                  0081495a    00000002     dss_pe674.oe674 (.const:ti_sysbios_timers_rti_Timer_continueOnSuspend__C)
                  0081495c    00000002     dss_pe674.oe674 (.const:xdc_runtime_Core_Module__id__C)
                  0081495e    00000002     dss_pe674.oe674 (.const:xdc_runtime_Error_Module__loggerDefined__C)
                  00814960    00000002     dss_pe674.oe674 (.const:xdc_runtime_Error_maxDepth__C)
                  00814962    00000002     dss_pe674.oe674 (.const:xdc_runtime_Main_Module__id__C)
                  00814964    00000002     dss_pe674.oe674 (.const:xdc_runtime_Memory_Module__id__C)
                  00814966    00000002     dss_pe674.oe674 (.const:xdc_runtime_Text_charCnt__C)
                  00814968    00000002     dss_pe674.oe674 (.const:xdc_runtime_Text_isLoaded__C)
                  0081496a    00000002     dss_pe674.oe674 (.const:xdc_runtime_Text_registryModsLastId__C)
                  0081496c    00000002     dss_pe674.oe674 (.const:xdc_runtime_Text_unnamedModsLastId__C)

.stack     0    008171e0    00001000     UNINITIALIZED
                  008171e0    00000008     boot.ae674 : boot.oe674 (.stack)
                  008171e8    00000ff8     --HOLE--

.cinit     0    00800000    00000000     UNINITIALIZED

.far       0    00814970    000014c8     UNINITIALIZED
                  00814970    00000800     dss_pe674.oe674 (.far:taskStackSection)
                  00815170    00000208     (.common:dynPhaseShiftCfg)
                  00815378    00000190     (.common:chirpCfg)
                  00815508    00000140     (.common:__TI_tmpnams)
                  00815648    000000d0     (.common:gTestStartStopCfg)
                  00815718    000000d0     (.common:progFiltCoef)
                  008157e8    000000b8     (.common:advFrameCfg)
                  008158a0    000000b8     (.common:gTestMiscCfg)
                  00815958    000000b0     (.common:profileCfg)
                  00815a08    000000a0     (.common:bpmChirpCfg)
                  00815aa8    00000044     (.common:rxGainPhaseMonCfg)
                  00815aec    00000044     (.common:testSourceCfg)
                  00815b30    00000034     (.common:txGainPhMisMatchMonCfg)
                  00815b64    00000020     (.common:extAnaSigMonCfg)
                  00815b84    0000001c     (.common:gpAdcCfg)
                  00815ba0    00000018     (.common:frameCfg)
                  00815bb8    00000018     (.common:gMmwaveLinkMCB)
                  00815bd0    00000018     (.common:interRxGainPhCfg)
                  00815be8    00000018     (.common:synthFreqNonLiveMonCfg)
                  00815c00    00000014     (.common:contModeCfg)
                  00815c14    00000014     (.common:runTimeCalib)
                  00815c28    00000014     (.common:rxSatMonCfg)
                  00815c3c    00000014     (.common:tempMonCfg)
                  00815c50    00000010     (.common:bpmCommonCfg)
                  00815c60    00000010     (.common:monRxIfStageCfg)
                  00815c70    00000010     (.common:phaseShiftCfg)
                  00815c80    00000010     (.common:tx0BpmMonCfg)
                  00815c90    00000010     (.common:tx0PowMonCfg)
                  00815ca0    00000010     (.common:tx1BpmMonCfg)
                  00815cb0    00000010     (.common:tx1PowMonCfg)
                  00815cc0    00000010     (.common:tx2BpmMonCfg)
                  00815cd0    00000010     (.common:tx2PowMonCfg)
                  00815ce0    0000000c     (.common:allTxBallbreakMonCfg)
                  00815cec    0000000c     (.common:allTxBpmMonCfg)
                  00815cf8    0000000c     (.common:allTxPowMonCfg)
                  00815d04    0000000c     (.common:allTxanaSigMonCfg)
                  00815d10    0000000c     (.common:freqLimit)
                  00815d1c    0000000c     (.common:gTestMCB)
                  00815d28    0000000c     (.common:monDigEnables)
                  00815d34    0000000c     (.common:monDigPeriodicCfg)
                  00815d40    0000000c     (.common:rfInitCalib)
                  00815d4c    0000000c     (.common:rxMixInpwrMonCfg)
                  00815d58    0000000c     (.common:rxNoiseMonCfg)
                  00815d64    0000000c     (.common:sigImgMonCfg)
                  00815d70    0000000c     (.common:synthFreqMonCfg)
                  00815d7c    0000000c     (.common:tx0BallBreakMonCfg)
                  00815d88    0000000c     (.common:tx1BallBreakMonCfg)
                  00815d94    0000000c     (.common:tx2BallBreakMonCfg)
                  00815da0    00000008     (.common:adcOutCfgArgs)
                  00815da8    00000008     (.common:calMonTimeUnitConf)
                  00815db0    00000008     (.common:chCfg)
                  00815db8    00000008     (.common:dualClkCompMonCfg)
                  00815dc0    00000008     (.common:gpadcIntAnaSigMonCfg)
                  00815dc8    00000008     (.common:miscCfg)
                  00815dd0    00000008     (.common:monAnaEnables)
                  00815dd8    00000008     (.common:parmbuf)
                  00815de0    00000008     (.common:pllConVoltMonCfg)
                  00815de8    00000008     (.common:pmClkLoIntAnaSigMonCfg)
                  00815df0    00000008     (.common:rxIntAnaSigMonCfg)
                  00815df8    00000008     (.common:tx0IntAnaSigMonCfg)
                  00815e00    00000008     (.common:tx1IntAnaSigMonCfg)
                  00815e08    00000008     (.common:tx2IntAnaSigMonCfg)
                  00815e10    00000004     (.common:contModeEn)
                  00815e14    00000004     (.common:deviceHsiClk)
                  00815e18    00000004     (.common:dynPwrSave)
                  00815e1c    00000004     (.common:lowPowerModeCfg)
                  00815e20    00000004     (.common:progFiltCfg)
                  00815e24    00000004     (.common:rfLdoBypassCfg)
                  00815e28    00000004     (.common:rxGainTempLutReadCfg)
                  00815e2c    00000004     (.common:subFrameTrigCfg)
                  00815e30    00000004     (.common:testSourceEn)
                  00815e34    00000004     (.common:txGainTempLutReadCfg)

.rodata    0    00818558    00000000     UNINITIALIZED

.bss       0    00818558    00000012     UNINITIALIZED
                  00818558    00000004     (.common:adcbufHandle)
                  0081855c    00000004     (.common:gLatentFaultReportReceived)
                  00818560    00000004     (.common:gSensorStopSem)
                  00818564    00000004     (.common:g_MailboxInterruptFunc)
                  00818568    00000001     (.common:deviceVariant)
                  00818569    00000001     (.common:monTestPassFlag)

.neardata 
*          0    0081856c    00000038     
                  0081856c    00000016     dfptest_setup.oe674 (.neardata)
                  00818582    00000002     --HOLE-- [fill = 0]
                  00818584    0000000c     libtestlogger_xwr68xx.ae674 : logger.oe674 (.neardata)
                  00818590    00000007     dfptest_config.oe674 (.neardata)
                  00818597    00000001     --HOLE-- [fill = 0]
                  00818598    00000004     libadcbuf_xwr68xx.ae674 : ADCBuf.oe674 (.neardata)
                  0081859c    00000004     libcrc_xwr68xx.ae674 : crc_xwr68xx.oe674 (.neardata)
                  008185a0    00000004     main_dfp_dss.oe674 (.neardata)

.configFiles 
*          0    20000000    0000bbc0     
                  20000000    00000760     dfptest_config_001.oe674 (.text:dfpTestLoadCfg_001)
                  20000760    00000208     dfptest_config_001.oe674 (.fardata:dynPhaseShiftCfg_001)
                  20000968    00000190     dfptest_config_001.oe674 (.fardata:chirpCfg_001)
                  20000af8    000000d0     dfptest_config_001.oe674 (.fardata:gTestStartStopCfg_001)
                  20000bc8    000000d0     dfptest_config_001.oe674 (.fardata:progFiltCoef_001)
                  20000c98    000000b8     dfptest_config_001.oe674 (.fardata:advFrameCfg_001)
                  20000d50    000000b8     dfptest_config_001.oe674 (.fardata:gTestMiscCfg_001)
                  20000e08    000000b0     dfptest_config_001.oe674 (.fardata:profileCfg_001)
                  20000eb8    000000a0     dfptest_config_001.oe674 (.fardata:bpmChirpCfg_001)
                  20000f58    00000044     dfptest_config_001.oe674 (.fardata:rxGainPhaseMonCfg_001)
                  20000f9c    00000044     dfptest_config_001.oe674 (.fardata:testSourceCfg_001)
                  20000fe0    00000034     dfptest_config_001.oe674 (.fardata:txGainPhMisMatchMonCfg_001)
                  20001014    00000020     dfptest_config_001.oe674 (.fardata:extAnaSigMonCfg_001)
                  20001034    0000001c     dfptest_config_001.oe674 (.fardata:gpAdcCfg_001)
                  20001050    00000018     dfptest_config_001.oe674 (.fardata:frameCfg_001)
                  20001068    00000018     dfptest_config_001.oe674 (.fardata:interRxGainPhCfg_001)
                  20001080    00000018     dfptest_config_001.oe674 (.fardata:synthFreqNonLiveMonCfg_001)
                  20001098    00000014     dfptest_config_001.oe674 (.fardata:contModeCfg_001)
                  200010ac    00000014     dfptest_config_001.oe674 (.fardata:runTimeCalib_001)
                  200010c0    00000014     dfptest_config_001.oe674 (.fardata:rxSatMonCfg_001)
                  200010d4    00000014     dfptest_config_001.oe674 (.fardata:tempMonCfg_001)
                  200010e8    00000010     dfptest_config_001.oe674 (.fardata:bpmCommonCfg_001)
                  200010f8    00000010     dfptest_config_001.oe674 (.fardata:monRxIfStageCfg_001)
                  20001108    00000010     dfptest_config_001.oe674 (.fardata:phaseShiftCfg_001)
                  20001118    00000010     dfptest_config_001.oe674 (.fardata:tx0BpmMonCfg_001)
                  20001128    00000010     dfptest_config_001.oe674 (.fardata:tx0PowMonCfg_001)
                  20001138    00000010     dfptest_config_001.oe674 (.fardata:tx1BpmMonCfg_001)
                  20001148    00000010     dfptest_config_001.oe674 (.fardata:tx1PowMonCfg_001)
                  20001158    00000010     dfptest_config_001.oe674 (.fardata:tx2BpmMonCfg_001)
                  20001168    00000010     dfptest_config_001.oe674 (.fardata:tx2PowMonCfg_001)
                  20001178    0000000c     dfptest_config_001.oe674 (.fardata:allTxBallbreakMonCfg_001)
                  20001184    0000000c     dfptest_config_001.oe674 (.fardata:allTxBpmMonCfg_001)
                  20001190    0000000c     dfptest_config_001.oe674 (.fardata:allTxPowMonCfg_001)
                  2000119c    0000000c     dfptest_config_001.oe674 (.fardata:allTxanaSigMonCfg_001)
                  200011a8    0000000c     dfptest_config_001.oe674 (.fardata:freqLimit_001)
                  200011b4    0000000c     dfptest_config_001.oe674 (.fardata:monDigEnables_001)
                  200011c0    0000000c     dfptest_config_001.oe674 (.fardata:monDigPeriodicCfg_001)
                  200011cc    0000000c     dfptest_config_001.oe674 (.fardata:rfInitCalib_001)
                  200011d8    0000000c     dfptest_config_001.oe674 (.fardata:rxMixInpwrMonCfg_001)
                  200011e4    0000000c     dfptest_config_001.oe674 (.fardata:rxNoiseMonCfg_001)
                  200011f0    0000000c     dfptest_config_001.oe674 (.fardata:sigImgMonCfg_001)
                  200011fc    0000000c     dfptest_config_001.oe674 (.fardata:synthFreqMonCfg_001)
                  20001208    0000000c     dfptest_config_001.oe674 (.fardata:tx0BallBreakMonCfg_001)
                  20001214    0000000c     dfptest_config_001.oe674 (.fardata:tx1BallBreakMonCfg_001)
                  20001220    0000000c     dfptest_config_001.oe674 (.fardata:tx2BallBreakMonCfg_001)
                  2000122c    00000008     dfptest_config_001.oe674 (.fardata:adcOutCfgArgs_001)
                  20001234    00000008     dfptest_config_001.oe674 (.fardata:calMonTimeUnitConf_001)
                  2000123c    00000008     dfptest_config_001.oe674 (.fardata:chCfg_001)
                  20001244    00000008     dfptest_config_001.oe674 (.fardata:dualClkCompMonCfg_001)
                  2000124c    00000008     dfptest_config_001.oe674 (.fardata:gpadcIntAnaSigMonCfg_001)
                  20001254    00000008     dfptest_config_001.oe674 (.fardata:miscCfg_001)
                  2000125c    00000008     dfptest_config_001.oe674 (.fardata:monAnaEnables_001)
                  20001264    00000008     dfptest_config_001.oe674 (.fardata:pllConVoltMonCfg_001)
                  2000126c    00000008     dfptest_config_001.oe674 (.fardata:pmClkLoIntAnaSigMonCfg_001)
                  20001274    00000008     dfptest_config_001.oe674 (.fardata:rxIntAnaSigMonCfg_001)
                  2000127c    00000008     dfptest_config_001.oe674 (.fardata:tx0IntAnaSigMonCfg_001)
                  20001284    00000008     dfptest_config_001.oe674 (.fardata:tx1IntAnaSigMonCfg_001)
                  2000128c    00000008     dfptest_config_001.oe674 (.fardata:tx2IntAnaSigMonCfg_001)
                  20001294    00000004     dfptest_config_001.oe674 (.fardata:contModeEn_001)
                  20001298    00000004     dfptest_config_001.oe674 (.fardata:deviceHsiClk_001)
                  2000129c    00000004     dfptest_config_001.oe674 (.fardata:dynPwrSave_001)
                  200012a0    00000004     dfptest_config_001.oe674 (.fardata:lowPowerModeCfg_001)
                  200012a4    00000004     dfptest_config_001.oe674 (.fardata:progFiltCfg_001)
                  200012a8    00000004     dfptest_config_001.oe674 (.fardata:rfLdoBypassCfg_001)
                  200012ac    00000004     dfptest_config_001.oe674 (.fardata:rxGainTempLutReadCfg_001)
                  200012b0    00000004     dfptest_config_001.oe674 (.fardata:subFrameTrigCfg_001)
                  200012b4    00000004     dfptest_config_001.oe674 (.fardata:testSourceEn_001)
                  200012b8    00000004     dfptest_config_001.oe674 (.fardata:txGainTempLutReadCfg_001)
                  200012bc    00000004     --HOLE-- [fill = 0]
                  200012c0    00000020     rts6740_elf.lib : memcpy64.asm.obj ($Tramp$S$$memcpy)
                  200012e0    00000020                     : strasg.asm.obj ($Tramp$S$$__c6xabi_strasgi_64plus)
                  20001300    00000760     dfptest_config_002.oe674 (.text:dfpTestLoadCfg_002)
                  20001a60    00000208     dfptest_config_002.oe674 (.fardata:dynPhaseShiftCfg_002)
                  20001c68    00000190     dfptest_config_002.oe674 (.fardata:chirpCfg_002)
                  20001df8    000000d0     dfptest_config_002.oe674 (.fardata:gTestStartStopCfg_002)
                  20001ec8    000000d0     dfptest_config_002.oe674 (.fardata:progFiltCoef_002)
                  20001f98    000000b8     dfptest_config_002.oe674 (.fardata:advFrameCfg_002)
                  20002050    000000b8     dfptest_config_002.oe674 (.fardata:gTestMiscCfg_002)
                  20002108    000000b0     dfptest_config_002.oe674 (.fardata:profileCfg_002)
                  200021b8    000000a0     dfptest_config_002.oe674 (.fardata:bpmChirpCfg_002)
                  20002258    00000044     dfptest_config_002.oe674 (.fardata:rxGainPhaseMonCfg_002)
                  2000229c    00000044     dfptest_config_002.oe674 (.fardata:testSourceCfg_002)
                  200022e0    00000034     dfptest_config_002.oe674 (.fardata:txGainPhMisMatchMonCfg_002)
                  20002314    00000020     dfptest_config_002.oe674 (.fardata:extAnaSigMonCfg_002)
                  20002334    0000001c     dfptest_config_002.oe674 (.fardata:gpAdcCfg_002)
                  20002350    00000018     dfptest_config_002.oe674 (.fardata:frameCfg_002)
                  20002368    00000018     dfptest_config_002.oe674 (.fardata:interRxGainPhCfg_002)
                  20002380    00000018     dfptest_config_002.oe674 (.fardata:synthFreqNonLiveMonCfg_002)
                  20002398    00000014     dfptest_config_002.oe674 (.fardata:contModeCfg_002)
                  200023ac    00000014     dfptest_config_002.oe674 (.fardata:runTimeCalib_002)
                  200023c0    00000014     dfptest_config_002.oe674 (.fardata:rxSatMonCfg_002)
                  200023d4    00000014     dfptest_config_002.oe674 (.fardata:tempMonCfg_002)
                  200023e8    00000010     dfptest_config_002.oe674 (.fardata:bpmCommonCfg_002)
                  200023f8    00000010     dfptest_config_002.oe674 (.fardata:monRxIfStageCfg_002)
                  20002408    00000010     dfptest_config_002.oe674 (.fardata:phaseShiftCfg_002)
                  20002418    00000010     dfptest_config_002.oe674 (.fardata:tx0BpmMonCfg_002)
                  20002428    00000010     dfptest_config_002.oe674 (.fardata:tx0PowMonCfg_002)
                  20002438    00000010     dfptest_config_002.oe674 (.fardata:tx1BpmMonCfg_002)
                  20002448    00000010     dfptest_config_002.oe674 (.fardata:tx1PowMonCfg_002)
                  20002458    00000010     dfptest_config_002.oe674 (.fardata:tx2BpmMonCfg_002)
                  20002468    00000010     dfptest_config_002.oe674 (.fardata:tx2PowMonCfg_002)
                  20002478    0000000c     dfptest_config_002.oe674 (.fardata:allTxBallbreakMonCfg_002)
                  20002484    0000000c     dfptest_config_002.oe674 (.fardata:allTxBpmMonCfg_002)
                  20002490    0000000c     dfptest_config_002.oe674 (.fardata:allTxPowMonCfg_002)
                  2000249c    0000000c     dfptest_config_002.oe674 (.fardata:allTxanaSigMonCfg_002)
                  200024a8    0000000c     dfptest_config_002.oe674 (.fardata:freqLimit_002)
                  200024b4    0000000c     dfptest_config_002.oe674 (.fardata:monDigEnables_002)
                  200024c0    0000000c     dfptest_config_002.oe674 (.fardata:monDigPeriodicCfg_002)
                  200024cc    0000000c     dfptest_config_002.oe674 (.fardata:rfInitCalib_002)
                  200024d8    0000000c     dfptest_config_002.oe674 (.fardata:rxMixInpwrMonCfg_002)
                  200024e4    0000000c     dfptest_config_002.oe674 (.fardata:rxNoiseMonCfg_002)
                  200024f0    0000000c     dfptest_config_002.oe674 (.fardata:sigImgMonCfg_002)
                  200024fc    0000000c     dfptest_config_002.oe674 (.fardata:synthFreqMonCfg_002)
                  20002508    0000000c     dfptest_config_002.oe674 (.fardata:tx0BallBreakMonCfg_002)
                  20002514    0000000c     dfptest_config_002.oe674 (.fardata:tx1BallBreakMonCfg_002)
                  20002520    0000000c     dfptest_config_002.oe674 (.fardata:tx2BallBreakMonCfg_002)
                  2000252c    00000008     dfptest_config_002.oe674 (.fardata:adcOutCfgArgs_002)
                  20002534    00000008     dfptest_config_002.oe674 (.fardata:calMonTimeUnitConf_002)
                  2000253c    00000008     dfptest_config_002.oe674 (.fardata:chCfg_002)
                  20002544    00000008     dfptest_config_002.oe674 (.fardata:dualClkCompMonCfg_002)
                  2000254c    00000008     dfptest_config_002.oe674 (.fardata:gpadcIntAnaSigMonCfg_002)
                  20002554    00000008     dfptest_config_002.oe674 (.fardata:miscCfg_002)
                  2000255c    00000008     dfptest_config_002.oe674 (.fardata:monAnaEnables_002)
                  20002564    00000008     dfptest_config_002.oe674 (.fardata:pllConVoltMonCfg_002)
                  2000256c    00000008     dfptest_config_002.oe674 (.fardata:pmClkLoIntAnaSigMonCfg_002)
                  20002574    00000008     dfptest_config_002.oe674 (.fardata:rxIntAnaSigMonCfg_002)
                  2000257c    00000008     dfptest_config_002.oe674 (.fardata:tx0IntAnaSigMonCfg_002)
                  20002584    00000008     dfptest_config_002.oe674 (.fardata:tx1IntAnaSigMonCfg_002)
                  2000258c    00000008     dfptest_config_002.oe674 (.fardata:tx2IntAnaSigMonCfg_002)
                  20002594    00000004     dfptest_config_002.oe674 (.fardata:contModeEn_002)
                  20002598    00000004     dfptest_config_002.oe674 (.fardata:deviceHsiClk_002)
                  2000259c    00000004     dfptest_config_002.oe674 (.fardata:dynPwrSave_002)
                  200025a0    00000004     dfptest_config_002.oe674 (.fardata:lowPowerModeCfg_002)
                  200025a4    00000004     dfptest_config_002.oe674 (.fardata:progFiltCfg_002)
                  200025a8    00000004     dfptest_config_002.oe674 (.fardata:rfLdoBypassCfg_002)
                  200025ac    00000004     dfptest_config_002.oe674 (.fardata:rxGainTempLutReadCfg_002)
                  200025b0    00000004     dfptest_config_002.oe674 (.fardata:subFrameTrigCfg_002)
                  200025b4    00000004     dfptest_config_002.oe674 (.fardata:testSourceEn_002)
                  200025b8    00000004     dfptest_config_002.oe674 (.fardata:txGainTempLutReadCfg_002)
                  200025bc    00000004     --HOLE-- [fill = 0]
                  200025c0    00000760     dfptest_config_003.oe674 (.text:dfpTestLoadCfg_003)
                  20002d20    00000208     dfptest_config_003.oe674 (.fardata:dynPhaseShiftCfg_003)
                  20002f28    00000190     dfptest_config_003.oe674 (.fardata:chirpCfg_003)
                  200030b8    000000d0     dfptest_config_003.oe674 (.fardata:gTestStartStopCfg_003)
                  20003188    000000d0     dfptest_config_003.oe674 (.fardata:progFiltCoef_003)
                  20003258    000000b8     dfptest_config_003.oe674 (.fardata:advFrameCfg_003)
                  20003310    000000b8     dfptest_config_003.oe674 (.fardata:gTestMiscCfg_003)
                  200033c8    000000b0     dfptest_config_003.oe674 (.fardata:profileCfg_003)
                  20003478    000000a0     dfptest_config_003.oe674 (.fardata:bpmChirpCfg_003)
                  20003518    00000044     dfptest_config_003.oe674 (.fardata:rxGainPhaseMonCfg_003)
                  2000355c    00000044     dfptest_config_003.oe674 (.fardata:testSourceCfg_003)
                  200035a0    00000034     dfptest_config_003.oe674 (.fardata:txGainPhMisMatchMonCfg_003)
                  200035d4    00000020     dfptest_config_003.oe674 (.fardata:extAnaSigMonCfg_003)
                  200035f4    0000001c     dfptest_config_003.oe674 (.fardata:gpAdcCfg_003)
                  20003610    00000018     dfptest_config_003.oe674 (.fardata:frameCfg_003)
                  20003628    00000018     dfptest_config_003.oe674 (.fardata:interRxGainPhCfg_003)
                  20003640    00000018     dfptest_config_003.oe674 (.fardata:synthFreqNonLiveMonCfg_003)
                  20003658    00000014     dfptest_config_003.oe674 (.fardata:contModeCfg_003)
                  2000366c    00000014     dfptest_config_003.oe674 (.fardata:runTimeCalib_003)
                  20003680    00000014     dfptest_config_003.oe674 (.fardata:rxSatMonCfg_003)
                  20003694    00000014     dfptest_config_003.oe674 (.fardata:tempMonCfg_003)
                  200036a8    00000010     dfptest_config_003.oe674 (.fardata:bpmCommonCfg_003)
                  200036b8    00000010     dfptest_config_003.oe674 (.fardata:monRxIfStageCfg_003)
                  200036c8    00000010     dfptest_config_003.oe674 (.fardata:phaseShiftCfg_003)
                  200036d8    00000010     dfptest_config_003.oe674 (.fardata:tx0BpmMonCfg_003)
                  200036e8    00000010     dfptest_config_003.oe674 (.fardata:tx0PowMonCfg_003)
                  200036f8    00000010     dfptest_config_003.oe674 (.fardata:tx1BpmMonCfg_003)
                  20003708    00000010     dfptest_config_003.oe674 (.fardata:tx1PowMonCfg_003)
                  20003718    00000010     dfptest_config_003.oe674 (.fardata:tx2BpmMonCfg_003)
                  20003728    00000010     dfptest_config_003.oe674 (.fardata:tx2PowMonCfg_003)
                  20003738    0000000c     dfptest_config_003.oe674 (.fardata:allTxBallbreakMonCfg_003)
                  20003744    0000000c     dfptest_config_003.oe674 (.fardata:allTxBpmMonCfg_003)
                  20003750    0000000c     dfptest_config_003.oe674 (.fardata:allTxPowMonCfg_003)
                  2000375c    0000000c     dfptest_config_003.oe674 (.fardata:allTxanaSigMonCfg_003)
                  20003768    0000000c     dfptest_config_003.oe674 (.fardata:freqLimit_003)
                  20003774    0000000c     dfptest_config_003.oe674 (.fardata:monDigEnables_003)
                  20003780    0000000c     dfptest_config_003.oe674 (.fardata:monDigPeriodicCfg_003)
                  2000378c    0000000c     dfptest_config_003.oe674 (.fardata:rfInitCalib_003)
                  20003798    0000000c     dfptest_config_003.oe674 (.fardata:rxMixInpwrMonCfg_003)
                  200037a4    0000000c     dfptest_config_003.oe674 (.fardata:rxNoiseMonCfg_003)
                  200037b0    0000000c     dfptest_config_003.oe674 (.fardata:sigImgMonCfg_003)
                  200037bc    0000000c     dfptest_config_003.oe674 (.fardata:synthFreqMonCfg_003)
                  200037c8    0000000c     dfptest_config_003.oe674 (.fardata:tx0BallBreakMonCfg_003)
                  200037d4    0000000c     dfptest_config_003.oe674 (.fardata:tx1BallBreakMonCfg_003)
                  200037e0    0000000c     dfptest_config_003.oe674 (.fardata:tx2BallBreakMonCfg_003)
                  200037ec    00000008     dfptest_config_003.oe674 (.fardata:adcOutCfgArgs_003)
                  200037f4    00000008     dfptest_config_003.oe674 (.fardata:calMonTimeUnitConf_003)
                  200037fc    00000008     dfptest_config_003.oe674 (.fardata:chCfg_003)
                  20003804    00000008     dfptest_config_003.oe674 (.fardata:dualClkCompMonCfg_003)
                  2000380c    00000008     dfptest_config_003.oe674 (.fardata:gpadcIntAnaSigMonCfg_003)
                  20003814    00000008     dfptest_config_003.oe674 (.fardata:miscCfg_003)
                  2000381c    00000008     dfptest_config_003.oe674 (.fardata:monAnaEnables_003)
                  20003824    00000008     dfptest_config_003.oe674 (.fardata:pllConVoltMonCfg_003)
                  2000382c    00000008     dfptest_config_003.oe674 (.fardata:pmClkLoIntAnaSigMonCfg_003)
                  20003834    00000008     dfptest_config_003.oe674 (.fardata:rxIntAnaSigMonCfg_003)
                  2000383c    00000008     dfptest_config_003.oe674 (.fardata:tx0IntAnaSigMonCfg_003)
                  20003844    00000008     dfptest_config_003.oe674 (.fardata:tx1IntAnaSigMonCfg_003)
                  2000384c    00000008     dfptest_config_003.oe674 (.fardata:tx2IntAnaSigMonCfg_003)
                  20003854    00000004     dfptest_config_003.oe674 (.fardata:contModeEn_003)
                  20003858    00000004     dfptest_config_003.oe674 (.fardata:deviceHsiClk_003)
                  2000385c    00000004     dfptest_config_003.oe674 (.fardata:dynPwrSave_003)
                  20003860    00000004     dfptest_config_003.oe674 (.fardata:lowPowerModeCfg_003)
                  20003864    00000004     dfptest_config_003.oe674 (.fardata:progFiltCfg_003)
                  20003868    00000004     dfptest_config_003.oe674 (.fardata:rfLdoBypassCfg_003)
                  2000386c    00000004     dfptest_config_003.oe674 (.fardata:rxGainTempLutReadCfg_003)
                  20003870    00000004     dfptest_config_003.oe674 (.fardata:subFrameTrigCfg_003)
                  20003874    00000004     dfptest_config_003.oe674 (.fardata:testSourceEn_003)
                  20003878    00000004     dfptest_config_003.oe674 (.fardata:txGainTempLutReadCfg_003)
                  2000387c    00000004     --HOLE-- [fill = 0]
                  20003880    00000760     dfptest_config_004.oe674 (.text:dfpTestLoadCfg_004)
                  20003fe0    00000208     dfptest_config_004.oe674 (.fardata:dynPhaseShiftCfg_004)
                  200041e8    00000190     dfptest_config_004.oe674 (.fardata:chirpCfg_004)
                  20004378    000000d0     dfptest_config_004.oe674 (.fardata:gTestStartStopCfg_004)
                  20004448    000000d0     dfptest_config_004.oe674 (.fardata:progFiltCoef_004)
                  20004518    000000b8     dfptest_config_004.oe674 (.fardata:advFrameCfg_004)
                  200045d0    000000b8     dfptest_config_004.oe674 (.fardata:gTestMiscCfg_004)
                  20004688    000000b0     dfptest_config_004.oe674 (.fardata:profileCfg_004)
                  20004738    000000a0     dfptest_config_004.oe674 (.fardata:bpmChirpCfg_004)
                  200047d8    00000044     dfptest_config_004.oe674 (.fardata:rxGainPhaseMonCfg_004)
                  2000481c    00000044     dfptest_config_004.oe674 (.fardata:testSourceCfg_004)
                  20004860    00000034     dfptest_config_004.oe674 (.fardata:txGainPhMisMatchMonCfg_004)
                  20004894    00000020     dfptest_config_004.oe674 (.fardata:extAnaSigMonCfg_004)
                  200048b4    0000001c     dfptest_config_004.oe674 (.fardata:gpAdcCfg_004)
                  200048d0    00000018     dfptest_config_004.oe674 (.fardata:frameCfg_004)
                  200048e8    00000018     dfptest_config_004.oe674 (.fardata:interRxGainPhCfg_004)
                  20004900    00000018     dfptest_config_004.oe674 (.fardata:synthFreqNonLiveMonCfg_004)
                  20004918    00000014     dfptest_config_004.oe674 (.fardata:contModeCfg_004)
                  2000492c    00000014     dfptest_config_004.oe674 (.fardata:runTimeCalib_004)
                  20004940    00000014     dfptest_config_004.oe674 (.fardata:rxSatMonCfg_004)
                  20004954    00000014     dfptest_config_004.oe674 (.fardata:tempMonCfg_004)
                  20004968    00000010     dfptest_config_004.oe674 (.fardata:bpmCommonCfg_004)
                  20004978    00000010     dfptest_config_004.oe674 (.fardata:monRxIfStageCfg_004)
                  20004988    00000010     dfptest_config_004.oe674 (.fardata:phaseShiftCfg_004)
                  20004998    00000010     dfptest_config_004.oe674 (.fardata:tx0BpmMonCfg_004)
                  200049a8    00000010     dfptest_config_004.oe674 (.fardata:tx0PowMonCfg_004)
                  200049b8    00000010     dfptest_config_004.oe674 (.fardata:tx1BpmMonCfg_004)
                  200049c8    00000010     dfptest_config_004.oe674 (.fardata:tx1PowMonCfg_004)
                  200049d8    00000010     dfptest_config_004.oe674 (.fardata:tx2BpmMonCfg_004)
                  200049e8    00000010     dfptest_config_004.oe674 (.fardata:tx2PowMonCfg_004)
                  200049f8    0000000c     dfptest_config_004.oe674 (.fardata:allTxBallbreakMonCfg_004)
                  20004a04    0000000c     dfptest_config_004.oe674 (.fardata:allTxBpmMonCfg_004)
                  20004a10    0000000c     dfptest_config_004.oe674 (.fardata:allTxPowMonCfg_004)
                  20004a1c    0000000c     dfptest_config_004.oe674 (.fardata:allTxanaSigMonCfg_004)
                  20004a28    0000000c     dfptest_config_004.oe674 (.fardata:freqLimit_004)
                  20004a34    0000000c     dfptest_config_004.oe674 (.fardata:monDigEnables_004)
                  20004a40    0000000c     dfptest_config_004.oe674 (.fardata:monDigPeriodicCfg_004)
                  20004a4c    0000000c     dfptest_config_004.oe674 (.fardata:rfInitCalib_004)
                  20004a58    0000000c     dfptest_config_004.oe674 (.fardata:rxMixInpwrMonCfg_004)
                  20004a64    0000000c     dfptest_config_004.oe674 (.fardata:rxNoiseMonCfg_004)
                  20004a70    0000000c     dfptest_config_004.oe674 (.fardata:sigImgMonCfg_004)
                  20004a7c    0000000c     dfptest_config_004.oe674 (.fardata:synthFreqMonCfg_004)
                  20004a88    0000000c     dfptest_config_004.oe674 (.fardata:tx0BallBreakMonCfg_004)
                  20004a94    0000000c     dfptest_config_004.oe674 (.fardata:tx1BallBreakMonCfg_004)
                  20004aa0    0000000c     dfptest_config_004.oe674 (.fardata:tx2BallBreakMonCfg_004)
                  20004aac    00000008     dfptest_config_004.oe674 (.fardata:adcOutCfgArgs_004)
                  20004ab4    00000008     dfptest_config_004.oe674 (.fardata:calMonTimeUnitConf_004)
                  20004abc    00000008     dfptest_config_004.oe674 (.fardata:chCfg_004)
                  20004ac4    00000008     dfptest_config_004.oe674 (.fardata:dualClkCompMonCfg_004)
                  20004acc    00000008     dfptest_config_004.oe674 (.fardata:gpadcIntAnaSigMonCfg_004)
                  20004ad4    00000008     dfptest_config_004.oe674 (.fardata:miscCfg_004)
                  20004adc    00000008     dfptest_config_004.oe674 (.fardata:monAnaEnables_004)
                  20004ae4    00000008     dfptest_config_004.oe674 (.fardata:pllConVoltMonCfg_004)
                  20004aec    00000008     dfptest_config_004.oe674 (.fardata:pmClkLoIntAnaSigMonCfg_004)
                  20004af4    00000008     dfptest_config_004.oe674 (.fardata:rxIntAnaSigMonCfg_004)
                  20004afc    00000008     dfptest_config_004.oe674 (.fardata:tx0IntAnaSigMonCfg_004)
                  20004b04    00000008     dfptest_config_004.oe674 (.fardata:tx1IntAnaSigMonCfg_004)
                  20004b0c    00000008     dfptest_config_004.oe674 (.fardata:tx2IntAnaSigMonCfg_004)
                  20004b14    00000004     dfptest_config_004.oe674 (.fardata:contModeEn_004)
                  20004b18    00000004     dfptest_config_004.oe674 (.fardata:deviceHsiClk_004)
                  20004b1c    00000004     dfptest_config_004.oe674 (.fardata:dynPwrSave_004)
                  20004b20    00000004     dfptest_config_004.oe674 (.fardata:lowPowerModeCfg_004)
                  20004b24    00000004     dfptest_config_004.oe674 (.fardata:progFiltCfg_004)
                  20004b28    00000004     dfptest_config_004.oe674 (.fardata:rfLdoBypassCfg_004)
                  20004b2c    00000004     dfptest_config_004.oe674 (.fardata:rxGainTempLutReadCfg_004)
                  20004b30    00000004     dfptest_config_004.oe674 (.fardata:subFrameTrigCfg_004)
                  20004b34    00000004     dfptest_config_004.oe674 (.fardata:testSourceEn_004)
                  20004b38    00000004     dfptest_config_004.oe674 (.fardata:txGainTempLutReadCfg_004)
                  20004b3c    00000004     --HOLE-- [fill = 0]
                  20004b40    00000760     dfptest_config_005.oe674 (.text:dfpTestLoadCfg_005)
                  200052a0    00000208     dfptest_config_005.oe674 (.fardata:dynPhaseShiftCfg_005)
                  200054a8    00000190     dfptest_config_005.oe674 (.fardata:chirpCfg_005)
                  20005638    000000d0     dfptest_config_005.oe674 (.fardata:gTestStartStopCfg_005)
                  20005708    000000d0     dfptest_config_005.oe674 (.fardata:progFiltCoef_005)
                  200057d8    000000b8     dfptest_config_005.oe674 (.fardata:advFrameCfg_005)
                  20005890    000000b8     dfptest_config_005.oe674 (.fardata:gTestMiscCfg_005)
                  20005948    000000b0     dfptest_config_005.oe674 (.fardata:profileCfg_005)
                  200059f8    000000a0     dfptest_config_005.oe674 (.fardata:bpmChirpCfg_005)
                  20005a98    00000044     dfptest_config_005.oe674 (.fardata:rxGainPhaseMonCfg_005)
                  20005adc    00000044     dfptest_config_005.oe674 (.fardata:testSourceCfg_005)
                  20005b20    00000034     dfptest_config_005.oe674 (.fardata:txGainPhMisMatchMonCfg_005)
                  20005b54    00000020     dfptest_config_005.oe674 (.fardata:extAnaSigMonCfg_005)
                  20005b74    0000001c     dfptest_config_005.oe674 (.fardata:gpAdcCfg_005)
                  20005b90    00000018     dfptest_config_005.oe674 (.fardata:frameCfg_005)
                  20005ba8    00000018     dfptest_config_005.oe674 (.fardata:interRxGainPhCfg_005)
                  20005bc0    00000018     dfptest_config_005.oe674 (.fardata:synthFreqNonLiveMonCfg_005)
                  20005bd8    00000014     dfptest_config_005.oe674 (.fardata:contModeCfg_005)
                  20005bec    00000014     dfptest_config_005.oe674 (.fardata:runTimeCalib_005)
                  20005c00    00000014     dfptest_config_005.oe674 (.fardata:rxSatMonCfg_005)
                  20005c14    00000014     dfptest_config_005.oe674 (.fardata:tempMonCfg_005)
                  20005c28    00000010     dfptest_config_005.oe674 (.fardata:bpmCommonCfg_005)
                  20005c38    00000010     dfptest_config_005.oe674 (.fardata:monRxIfStageCfg_005)
                  20005c48    00000010     dfptest_config_005.oe674 (.fardata:phaseShiftCfg_005)
                  20005c58    00000010     dfptest_config_005.oe674 (.fardata:tx0BpmMonCfg_005)
                  20005c68    00000010     dfptest_config_005.oe674 (.fardata:tx0PowMonCfg_005)
                  20005c78    00000010     dfptest_config_005.oe674 (.fardata:tx1BpmMonCfg_005)
                  20005c88    00000010     dfptest_config_005.oe674 (.fardata:tx1PowMonCfg_005)
                  20005c98    00000010     dfptest_config_005.oe674 (.fardata:tx2BpmMonCfg_005)
                  20005ca8    00000010     dfptest_config_005.oe674 (.fardata:tx2PowMonCfg_005)
                  20005cb8    0000000c     dfptest_config_005.oe674 (.fardata:allTxBallbreakMonCfg_005)
                  20005cc4    0000000c     dfptest_config_005.oe674 (.fardata:allTxBpmMonCfg_005)
                  20005cd0    0000000c     dfptest_config_005.oe674 (.fardata:allTxPowMonCfg_005)
                  20005cdc    0000000c     dfptest_config_005.oe674 (.fardata:allTxanaSigMonCfg_005)
                  20005ce8    0000000c     dfptest_config_005.oe674 (.fardata:freqLimit_005)
                  20005cf4    0000000c     dfptest_config_005.oe674 (.fardata:monDigEnables_005)
                  20005d00    0000000c     dfptest_config_005.oe674 (.fardata:monDigPeriodicCfg_005)
                  20005d0c    0000000c     dfptest_config_005.oe674 (.fardata:rfInitCalib_005)
                  20005d18    0000000c     dfptest_config_005.oe674 (.fardata:rxMixInpwrMonCfg_005)
                  20005d24    0000000c     dfptest_config_005.oe674 (.fardata:rxNoiseMonCfg_005)
                  20005d30    0000000c     dfptest_config_005.oe674 (.fardata:sigImgMonCfg_005)
                  20005d3c    0000000c     dfptest_config_005.oe674 (.fardata:synthFreqMonCfg_005)
                  20005d48    0000000c     dfptest_config_005.oe674 (.fardata:tx0BallBreakMonCfg_005)
                  20005d54    0000000c     dfptest_config_005.oe674 (.fardata:tx1BallBreakMonCfg_005)
                  20005d60    0000000c     dfptest_config_005.oe674 (.fardata:tx2BallBreakMonCfg_005)
                  20005d6c    00000008     dfptest_config_005.oe674 (.fardata:adcOutCfgArgs_005)
                  20005d74    00000008     dfptest_config_005.oe674 (.fardata:calMonTimeUnitConf_005)
                  20005d7c    00000008     dfptest_config_005.oe674 (.fardata:chCfg_005)
                  20005d84    00000008     dfptest_config_005.oe674 (.fardata:dualClkCompMonCfg_005)
                  20005d8c    00000008     dfptest_config_005.oe674 (.fardata:gpadcIntAnaSigMonCfg_005)
                  20005d94    00000008     dfptest_config_005.oe674 (.fardata:miscCfg_005)
                  20005d9c    00000008     dfptest_config_005.oe674 (.fardata:monAnaEnables_005)
                  20005da4    00000008     dfptest_config_005.oe674 (.fardata:pllConVoltMonCfg_005)
                  20005dac    00000008     dfptest_config_005.oe674 (.fardata:pmClkLoIntAnaSigMonCfg_005)
                  20005db4    00000008     dfptest_config_005.oe674 (.fardata:rxIntAnaSigMonCfg_005)
                  20005dbc    00000008     dfptest_config_005.oe674 (.fardata:tx0IntAnaSigMonCfg_005)
                  20005dc4    00000008     dfptest_config_005.oe674 (.fardata:tx1IntAnaSigMonCfg_005)
                  20005dcc    00000008     dfptest_config_005.oe674 (.fardata:tx2IntAnaSigMonCfg_005)
                  20005dd4    00000004     dfptest_config_005.oe674 (.fardata:contModeEn_005)
                  20005dd8    00000004     dfptest_config_005.oe674 (.fardata:deviceHsiClk_005)
                  20005ddc    00000004     dfptest_config_005.oe674 (.fardata:dynPwrSave_005)
                  20005de0    00000004     dfptest_config_005.oe674 (.fardata:lowPowerModeCfg_005)
                  20005de4    00000004     dfptest_config_005.oe674 (.fardata:progFiltCfg_005)
                  20005de8    00000004     dfptest_config_005.oe674 (.fardata:rfLdoBypassCfg_005)
                  20005dec    00000004     dfptest_config_005.oe674 (.fardata:rxGainTempLutReadCfg_005)
                  20005df0    00000004     dfptest_config_005.oe674 (.fardata:subFrameTrigCfg_005)
                  20005df4    00000004     dfptest_config_005.oe674 (.fardata:testSourceEn_005)
                  20005df8    00000004     dfptest_config_005.oe674 (.fardata:txGainTempLutReadCfg_005)
                  20005dfc    00000004     --HOLE-- [fill = 0]
                  20005e00    00000760     dfptest_config_006.oe674 (.text:dfpTestLoadCfg_006)
                  20006560    00000208     dfptest_config_006.oe674 (.fardata:dynPhaseShiftCfg_006)
                  20006768    00000190     dfptest_config_006.oe674 (.fardata:chirpCfg_006)
                  200068f8    000000d0     dfptest_config_006.oe674 (.fardata:gTestStartStopCfg_006)
                  200069c8    000000d0     dfptest_config_006.oe674 (.fardata:progFiltCoef_006)
                  20006a98    000000b8     dfptest_config_006.oe674 (.fardata:advFrameCfg_006)
                  20006b50    000000b8     dfptest_config_006.oe674 (.fardata:gTestMiscCfg_006)
                  20006c08    000000b0     dfptest_config_006.oe674 (.fardata:profileCfg_006)
                  20006cb8    000000a0     dfptest_config_006.oe674 (.fardata:bpmChirpCfg_006)
                  20006d58    00000044     dfptest_config_006.oe674 (.fardata:rxGainPhaseMonCfg_006)
                  20006d9c    00000044     dfptest_config_006.oe674 (.fardata:testSourceCfg_006)
                  20006de0    00000034     dfptest_config_006.oe674 (.fardata:txGainPhMisMatchMonCfg_006)
                  20006e14    00000020     dfptest_config_006.oe674 (.fardata:extAnaSigMonCfg_006)
                  20006e34    0000001c     dfptest_config_006.oe674 (.fardata:gpAdcCfg_006)
                  20006e50    00000018     dfptest_config_006.oe674 (.fardata:frameCfg_006)
                  20006e68    00000018     dfptest_config_006.oe674 (.fardata:interRxGainPhCfg_006)
                  20006e80    00000018     dfptest_config_006.oe674 (.fardata:synthFreqNonLiveMonCfg_006)
                  20006e98    00000014     dfptest_config_006.oe674 (.fardata:contModeCfg_006)
                  20006eac    00000014     dfptest_config_006.oe674 (.fardata:runTimeCalib_006)
                  20006ec0    00000014     dfptest_config_006.oe674 (.fardata:rxSatMonCfg_006)
                  20006ed4    00000014     dfptest_config_006.oe674 (.fardata:tempMonCfg_006)
                  20006ee8    00000010     dfptest_config_006.oe674 (.fardata:bpmCommonCfg_006)
                  20006ef8    00000010     dfptest_config_006.oe674 (.fardata:monRxIfStageCfg_006)
                  20006f08    00000010     dfptest_config_006.oe674 (.fardata:phaseShiftCfg_006)
                  20006f18    00000010     dfptest_config_006.oe674 (.fardata:tx0BpmMonCfg_006)
                  20006f28    00000010     dfptest_config_006.oe674 (.fardata:tx0PowMonCfg_006)
                  20006f38    00000010     dfptest_config_006.oe674 (.fardata:tx1BpmMonCfg_006)
                  20006f48    00000010     dfptest_config_006.oe674 (.fardata:tx1PowMonCfg_006)
                  20006f58    00000010     dfptest_config_006.oe674 (.fardata:tx2BpmMonCfg_006)
                  20006f68    00000010     dfptest_config_006.oe674 (.fardata:tx2PowMonCfg_006)
                  20006f78    0000000c     dfptest_config_006.oe674 (.fardata:allTxBallbreakMonCfg_006)
                  20006f84    0000000c     dfptest_config_006.oe674 (.fardata:allTxBpmMonCfg_006)
                  20006f90    0000000c     dfptest_config_006.oe674 (.fardata:allTxPowMonCfg_006)
                  20006f9c    0000000c     dfptest_config_006.oe674 (.fardata:allTxanaSigMonCfg_006)
                  20006fa8    0000000c     dfptest_config_006.oe674 (.fardata:freqLimit_006)
                  20006fb4    0000000c     dfptest_config_006.oe674 (.fardata:monDigEnables_006)
                  20006fc0    0000000c     dfptest_config_006.oe674 (.fardata:monDigPeriodicCfg_006)
                  20006fcc    0000000c     dfptest_config_006.oe674 (.fardata:rfInitCalib_006)
                  20006fd8    0000000c     dfptest_config_006.oe674 (.fardata:rxMixInpwrMonCfg_006)
                  20006fe4    0000000c     dfptest_config_006.oe674 (.fardata:rxNoiseMonCfg_006)
                  20006ff0    0000000c     dfptest_config_006.oe674 (.fardata:sigImgMonCfg_006)
                  20006ffc    0000000c     dfptest_config_006.oe674 (.fardata:synthFreqMonCfg_006)
                  20007008    0000000c     dfptest_config_006.oe674 (.fardata:tx0BallBreakMonCfg_006)
                  20007014    0000000c     dfptest_config_006.oe674 (.fardata:tx1BallBreakMonCfg_006)
                  20007020    0000000c     dfptest_config_006.oe674 (.fardata:tx2BallBreakMonCfg_006)
                  2000702c    00000008     dfptest_config_006.oe674 (.fardata:adcOutCfgArgs_006)
                  20007034    00000008     dfptest_config_006.oe674 (.fardata:calMonTimeUnitConf_006)
                  2000703c    00000008     dfptest_config_006.oe674 (.fardata:chCfg_006)
                  20007044    00000008     dfptest_config_006.oe674 (.fardata:dualClkCompMonCfg_006)
                  2000704c    00000008     dfptest_config_006.oe674 (.fardata:gpadcIntAnaSigMonCfg_006)
                  20007054    00000008     dfptest_config_006.oe674 (.fardata:miscCfg_006)
                  2000705c    00000008     dfptest_config_006.oe674 (.fardata:monAnaEnables_006)
                  20007064    00000008     dfptest_config_006.oe674 (.fardata:pllConVoltMonCfg_006)
                  2000706c    00000008     dfptest_config_006.oe674 (.fardata:pmClkLoIntAnaSigMonCfg_006)
                  20007074    00000008     dfptest_config_006.oe674 (.fardata:rxIntAnaSigMonCfg_006)
                  2000707c    00000008     dfptest_config_006.oe674 (.fardata:tx0IntAnaSigMonCfg_006)
                  20007084    00000008     dfptest_config_006.oe674 (.fardata:tx1IntAnaSigMonCfg_006)
                  2000708c    00000008     dfptest_config_006.oe674 (.fardata:tx2IntAnaSigMonCfg_006)
                  20007094    00000004     dfptest_config_006.oe674 (.fardata:contModeEn_006)
                  20007098    00000004     dfptest_config_006.oe674 (.fardata:deviceHsiClk_006)
                  2000709c    00000004     dfptest_config_006.oe674 (.fardata:dynPwrSave_006)
                  200070a0    00000004     dfptest_config_006.oe674 (.fardata:lowPowerModeCfg_006)
                  200070a4    00000004     dfptest_config_006.oe674 (.fardata:progFiltCfg_006)
                  200070a8    00000004     dfptest_config_006.oe674 (.fardata:rfLdoBypassCfg_006)
                  200070ac    00000004     dfptest_config_006.oe674 (.fardata:rxGainTempLutReadCfg_006)
                  200070b0    00000004     dfptest_config_006.oe674 (.fardata:subFrameTrigCfg_006)
                  200070b4    00000004     dfptest_config_006.oe674 (.fardata:testSourceEn_006)
                  200070b8    00000004     dfptest_config_006.oe674 (.fardata:txGainTempLutReadCfg_006)
                  200070bc    00000004     --HOLE-- [fill = 0]
                  200070c0    00000760     dfptest_config_007.oe674 (.text:dfpTestLoadCfg_007)
                  20007820    00000208     dfptest_config_007.oe674 (.fardata:dynPhaseShiftCfg_007)
                  20007a28    00000190     dfptest_config_007.oe674 (.fardata:chirpCfg_007)
                  20007bb8    000000d0     dfptest_config_007.oe674 (.fardata:gTestStartStopCfg_007)
                  20007c88    000000d0     dfptest_config_007.oe674 (.fardata:progFiltCoef_007)
                  20007d58    000000b8     dfptest_config_007.oe674 (.fardata:advFrameCfg_007)
                  20007e10    000000b8     dfptest_config_007.oe674 (.fardata:gTestMiscCfg_007)
                  20007ec8    000000b0     dfptest_config_007.oe674 (.fardata:profileCfg_007)
                  20007f78    000000a0     dfptest_config_007.oe674 (.fardata:bpmChirpCfg_007)
                  20008018    00000044     dfptest_config_007.oe674 (.fardata:rxGainPhaseMonCfg_007)
                  2000805c    00000044     dfptest_config_007.oe674 (.fardata:testSourceCfg_007)
                  200080a0    00000034     dfptest_config_007.oe674 (.fardata:txGainPhMisMatchMonCfg_007)
                  200080d4    00000020     dfptest_config_007.oe674 (.fardata:extAnaSigMonCfg_007)
                  200080f4    0000001c     dfptest_config_007.oe674 (.fardata:gpAdcCfg_007)
                  20008110    00000018     dfptest_config_007.oe674 (.fardata:frameCfg_007)
                  20008128    00000018     dfptest_config_007.oe674 (.fardata:interRxGainPhCfg_007)
                  20008140    00000018     dfptest_config_007.oe674 (.fardata:synthFreqNonLiveMonCfg_007)
                  20008158    00000014     dfptest_config_007.oe674 (.fardata:contModeCfg_007)
                  2000816c    00000014     dfptest_config_007.oe674 (.fardata:runTimeCalib_007)
                  20008180    00000014     dfptest_config_007.oe674 (.fardata:rxSatMonCfg_007)
                  20008194    00000014     dfptest_config_007.oe674 (.fardata:tempMonCfg_007)
                  200081a8    00000010     dfptest_config_007.oe674 (.fardata:bpmCommonCfg_007)
                  200081b8    00000010     dfptest_config_007.oe674 (.fardata:monRxIfStageCfg_007)
                  200081c8    00000010     dfptest_config_007.oe674 (.fardata:phaseShiftCfg_007)
                  200081d8    00000010     dfptest_config_007.oe674 (.fardata:tx0BpmMonCfg_007)
                  200081e8    00000010     dfptest_config_007.oe674 (.fardata:tx0PowMonCfg_007)
                  200081f8    00000010     dfptest_config_007.oe674 (.fardata:tx1BpmMonCfg_007)
                  20008208    00000010     dfptest_config_007.oe674 (.fardata:tx1PowMonCfg_007)
                  20008218    00000010     dfptest_config_007.oe674 (.fardata:tx2BpmMonCfg_007)
                  20008228    00000010     dfptest_config_007.oe674 (.fardata:tx2PowMonCfg_007)
                  20008238    0000000c     dfptest_config_007.oe674 (.fardata:allTxBallbreakMonCfg_007)
                  20008244    0000000c     dfptest_config_007.oe674 (.fardata:allTxBpmMonCfg_007)
                  20008250    0000000c     dfptest_config_007.oe674 (.fardata:allTxPowMonCfg_007)
                  2000825c    0000000c     dfptest_config_007.oe674 (.fardata:allTxanaSigMonCfg_007)
                  20008268    0000000c     dfptest_config_007.oe674 (.fardata:freqLimit_007)
                  20008274    0000000c     dfptest_config_007.oe674 (.fardata:monDigEnables_007)
                  20008280    0000000c     dfptest_config_007.oe674 (.fardata:monDigPeriodicCfg_007)
                  2000828c    0000000c     dfptest_config_007.oe674 (.fardata:rfInitCalib_007)
                  20008298    0000000c     dfptest_config_007.oe674 (.fardata:rxMixInpwrMonCfg_007)
                  200082a4    0000000c     dfptest_config_007.oe674 (.fardata:rxNoiseMonCfg_007)
                  200082b0    0000000c     dfptest_config_007.oe674 (.fardata:sigImgMonCfg_007)
                  200082bc    0000000c     dfptest_config_007.oe674 (.fardata:synthFreqMonCfg_007)
                  200082c8    0000000c     dfptest_config_007.oe674 (.fardata:tx0BallBreakMonCfg_007)
                  200082d4    0000000c     dfptest_config_007.oe674 (.fardata:tx1BallBreakMonCfg_007)
                  200082e0    0000000c     dfptest_config_007.oe674 (.fardata:tx2BallBreakMonCfg_007)
                  200082ec    00000008     dfptest_config_007.oe674 (.fardata:adcOutCfgArgs_007)
                  200082f4    00000008     dfptest_config_007.oe674 (.fardata:calMonTimeUnitConf_007)
                  200082fc    00000008     dfptest_config_007.oe674 (.fardata:chCfg_007)
                  20008304    00000008     dfptest_config_007.oe674 (.fardata:dualClkCompMonCfg_007)
                  2000830c    00000008     dfptest_config_007.oe674 (.fardata:gpadcIntAnaSigMonCfg_007)
                  20008314    00000008     dfptest_config_007.oe674 (.fardata:miscCfg_007)
                  2000831c    00000008     dfptest_config_007.oe674 (.fardata:monAnaEnables_007)
                  20008324    00000008     dfptest_config_007.oe674 (.fardata:pllConVoltMonCfg_007)
                  2000832c    00000008     dfptest_config_007.oe674 (.fardata:pmClkLoIntAnaSigMonCfg_007)
                  20008334    00000008     dfptest_config_007.oe674 (.fardata:rxIntAnaSigMonCfg_007)
                  2000833c    00000008     dfptest_config_007.oe674 (.fardata:tx0IntAnaSigMonCfg_007)
                  20008344    00000008     dfptest_config_007.oe674 (.fardata:tx1IntAnaSigMonCfg_007)
                  2000834c    00000008     dfptest_config_007.oe674 (.fardata:tx2IntAnaSigMonCfg_007)
                  20008354    00000004     dfptest_config_007.oe674 (.fardata:contModeEn_007)
                  20008358    00000004     dfptest_config_007.oe674 (.fardata:deviceHsiClk_007)
                  2000835c    00000004     dfptest_config_007.oe674 (.fardata:dynPwrSave_007)
                  20008360    00000004     dfptest_config_007.oe674 (.fardata:lowPowerModeCfg_007)
                  20008364    00000004     dfptest_config_007.oe674 (.fardata:progFiltCfg_007)
                  20008368    00000004     dfptest_config_007.oe674 (.fardata:rfLdoBypassCfg_007)
                  2000836c    00000004     dfptest_config_007.oe674 (.fardata:rxGainTempLutReadCfg_007)
                  20008370    00000004     dfptest_config_007.oe674 (.fardata:subFrameTrigCfg_007)
                  20008374    00000004     dfptest_config_007.oe674 (.fardata:testSourceEn_007)
                  20008378    00000004     dfptest_config_007.oe674 (.fardata:txGainTempLutReadCfg_007)
                  2000837c    00000004     --HOLE-- [fill = 0]
                  20008380    00000760     dfptest_config_008.oe674 (.text:dfpTestLoadCfg_008)
                  20008ae0    00000208     dfptest_config_008.oe674 (.fardata:dynPhaseShiftCfg_008)
                  20008ce8    00000190     dfptest_config_008.oe674 (.fardata:chirpCfg_008)
                  20008e78    000000d0     dfptest_config_008.oe674 (.fardata:gTestStartStopCfg_008)
                  20008f48    000000d0     dfptest_config_008.oe674 (.fardata:progFiltCoef_008)
                  20009018    000000b8     dfptest_config_008.oe674 (.fardata:advFrameCfg_008)
                  200090d0    000000b8     dfptest_config_008.oe674 (.fardata:gTestMiscCfg_008)
                  20009188    000000b0     dfptest_config_008.oe674 (.fardata:profileCfg_008)
                  20009238    000000a0     dfptest_config_008.oe674 (.fardata:bpmChirpCfg_008)
                  200092d8    00000044     dfptest_config_008.oe674 (.fardata:rxGainPhaseMonCfg_008)
                  2000931c    00000044     dfptest_config_008.oe674 (.fardata:testSourceCfg_008)
                  20009360    00000034     dfptest_config_008.oe674 (.fardata:txGainPhMisMatchMonCfg_008)
                  20009394    00000020     dfptest_config_008.oe674 (.fardata:extAnaSigMonCfg_008)
                  200093b4    0000001c     dfptest_config_008.oe674 (.fardata:gpAdcCfg_008)
                  200093d0    00000018     dfptest_config_008.oe674 (.fardata:frameCfg_008)
                  200093e8    00000018     dfptest_config_008.oe674 (.fardata:interRxGainPhCfg_008)
                  20009400    00000018     dfptest_config_008.oe674 (.fardata:synthFreqNonLiveMonCfg_008)
                  20009418    00000014     dfptest_config_008.oe674 (.fardata:contModeCfg_008)
                  2000942c    00000014     dfptest_config_008.oe674 (.fardata:runTimeCalib_008)
                  20009440    00000014     dfptest_config_008.oe674 (.fardata:rxSatMonCfg_008)
                  20009454    00000014     dfptest_config_008.oe674 (.fardata:tempMonCfg_008)
                  20009468    00000010     dfptest_config_008.oe674 (.fardata:bpmCommonCfg_008)
                  20009478    00000010     dfptest_config_008.oe674 (.fardata:monRxIfStageCfg_008)
                  20009488    00000010     dfptest_config_008.oe674 (.fardata:phaseShiftCfg_008)
                  20009498    00000010     dfptest_config_008.oe674 (.fardata:tx0BpmMonCfg_008)
                  200094a8    00000010     dfptest_config_008.oe674 (.fardata:tx0PowMonCfg_008)
                  200094b8    00000010     dfptest_config_008.oe674 (.fardata:tx1BpmMonCfg_008)
                  200094c8    00000010     dfptest_config_008.oe674 (.fardata:tx1PowMonCfg_008)
                  200094d8    00000010     dfptest_config_008.oe674 (.fardata:tx2BpmMonCfg_008)
                  200094e8    00000010     dfptest_config_008.oe674 (.fardata:tx2PowMonCfg_008)
                  200094f8    0000000c     dfptest_config_008.oe674 (.fardata:allTxBallbreakMonCfg_008)
                  20009504    0000000c     dfptest_config_008.oe674 (.fardata:allTxBpmMonCfg_008)
                  20009510    0000000c     dfptest_config_008.oe674 (.fardata:allTxPowMonCfg_008)
                  2000951c    0000000c     dfptest_config_008.oe674 (.fardata:allTxanaSigMonCfg_008)
                  20009528    0000000c     dfptest_config_008.oe674 (.fardata:freqLimit_008)
                  20009534    0000000c     dfptest_config_008.oe674 (.fardata:monDigEnables_008)
                  20009540    0000000c     dfptest_config_008.oe674 (.fardata:monDigPeriodicCfg_008)
                  2000954c    0000000c     dfptest_config_008.oe674 (.fardata:rfInitCalib_008)
                  20009558    0000000c     dfptest_config_008.oe674 (.fardata:rxMixInpwrMonCfg_008)
                  20009564    0000000c     dfptest_config_008.oe674 (.fardata:rxNoiseMonCfg_008)
                  20009570    0000000c     dfptest_config_008.oe674 (.fardata:sigImgMonCfg_008)
                  2000957c    0000000c     dfptest_config_008.oe674 (.fardata:synthFreqMonCfg_008)
                  20009588    0000000c     dfptest_config_008.oe674 (.fardata:tx0BallBreakMonCfg_008)
                  20009594    0000000c     dfptest_config_008.oe674 (.fardata:tx1BallBreakMonCfg_008)
                  200095a0    0000000c     dfptest_config_008.oe674 (.fardata:tx2BallBreakMonCfg_008)
                  200095ac    00000008     dfptest_config_008.oe674 (.fardata:adcOutCfgArgs_008)
                  200095b4    00000008     dfptest_config_008.oe674 (.fardata:calMonTimeUnitConf_008)
                  200095bc    00000008     dfptest_config_008.oe674 (.fardata:chCfg_008)
                  200095c4    00000008     dfptest_config_008.oe674 (.fardata:dualClkCompMonCfg_008)
                  200095cc    00000008     dfptest_config_008.oe674 (.fardata:gpadcIntAnaSigMonCfg_008)
                  200095d4    00000008     dfptest_config_008.oe674 (.fardata:miscCfg_008)
                  200095dc    00000008     dfptest_config_008.oe674 (.fardata:monAnaEnables_008)
                  200095e4    00000008     dfptest_config_008.oe674 (.fardata:pllConVoltMonCfg_008)
                  200095ec    00000008     dfptest_config_008.oe674 (.fardata:pmClkLoIntAnaSigMonCfg_008)
                  200095f4    00000008     dfptest_config_008.oe674 (.fardata:rxIntAnaSigMonCfg_008)
                  200095fc    00000008     dfptest_config_008.oe674 (.fardata:tx0IntAnaSigMonCfg_008)
                  20009604    00000008     dfptest_config_008.oe674 (.fardata:tx1IntAnaSigMonCfg_008)
                  2000960c    00000008     dfptest_config_008.oe674 (.fardata:tx2IntAnaSigMonCfg_008)
                  20009614    00000004     dfptest_config_008.oe674 (.fardata:contModeEn_008)
                  20009618    00000004     dfptest_config_008.oe674 (.fardata:deviceHsiClk_008)
                  2000961c    00000004     dfptest_config_008.oe674 (.fardata:dynPwrSave_008)
                  20009620    00000004     dfptest_config_008.oe674 (.fardata:lowPowerModeCfg_008)
                  20009624    00000004     dfptest_config_008.oe674 (.fardata:progFiltCfg_008)
                  20009628    00000004     dfptest_config_008.oe674 (.fardata:rfLdoBypassCfg_008)
                  2000962c    00000004     dfptest_config_008.oe674 (.fardata:rxGainTempLutReadCfg_008)
                  20009630    00000004     dfptest_config_008.oe674 (.fardata:subFrameTrigCfg_008)
                  20009634    00000004     dfptest_config_008.oe674 (.fardata:testSourceEn_008)
                  20009638    00000004     dfptest_config_008.oe674 (.fardata:txGainTempLutReadCfg_008)
                  2000963c    00000004     --HOLE-- [fill = 0]
                  20009640    00000760     dfptest_config_009.oe674 (.text:dfpTestLoadCfg_009)
                  20009da0    00000208     dfptest_config_009.oe674 (.fardata:dynPhaseShiftCfg_009)
                  20009fa8    00000190     dfptest_config_009.oe674 (.fardata:chirpCfg_009)
                  2000a138    000000d0     dfptest_config_009.oe674 (.fardata:gTestStartStopCfg_009)
                  2000a208    000000d0     dfptest_config_009.oe674 (.fardata:progFiltCoef_009)
                  2000a2d8    000000b8     dfptest_config_009.oe674 (.fardata:advFrameCfg_009)
                  2000a390    000000b8     dfptest_config_009.oe674 (.fardata:gTestMiscCfg_009)
                  2000a448    000000b0     dfptest_config_009.oe674 (.fardata:profileCfg_009)
                  2000a4f8    000000a0     dfptest_config_009.oe674 (.fardata:bpmChirpCfg_009)
                  2000a598    00000044     dfptest_config_009.oe674 (.fardata:rxGainPhaseMonCfg_009)
                  2000a5dc    00000044     dfptest_config_009.oe674 (.fardata:testSourceCfg_009)
                  2000a620    00000034     dfptest_config_009.oe674 (.fardata:txGainPhMisMatchMonCfg_009)
                  2000a654    00000020     dfptest_config_009.oe674 (.fardata:extAnaSigMonCfg_009)
                  2000a674    0000001c     dfptest_config_009.oe674 (.fardata:gpAdcCfg_009)
                  2000a690    00000018     dfptest_config_009.oe674 (.fardata:frameCfg_009)
                  2000a6a8    00000018     dfptest_config_009.oe674 (.fardata:interRxGainPhCfg_009)
                  2000a6c0    00000018     dfptest_config_009.oe674 (.fardata:synthFreqNonLiveMonCfg_009)
                  2000a6d8    00000014     dfptest_config_009.oe674 (.fardata:contModeCfg_009)
                  2000a6ec    00000014     dfptest_config_009.oe674 (.fardata:runTimeCalib_009)
                  2000a700    00000014     dfptest_config_009.oe674 (.fardata:rxSatMonCfg_009)
                  2000a714    00000014     dfptest_config_009.oe674 (.fardata:tempMonCfg_009)
                  2000a728    00000010     dfptest_config_009.oe674 (.fardata:bpmCommonCfg_009)
                  2000a738    00000010     dfptest_config_009.oe674 (.fardata:monRxIfStageCfg_009)
                  2000a748    00000010     dfptest_config_009.oe674 (.fardata:phaseShiftCfg_009)
                  2000a758    00000010     dfptest_config_009.oe674 (.fardata:tx0BpmMonCfg_009)
                  2000a768    00000010     dfptest_config_009.oe674 (.fardata:tx0PowMonCfg_009)
                  2000a778    00000010     dfptest_config_009.oe674 (.fardata:tx1BpmMonCfg_009)
                  2000a788    00000010     dfptest_config_009.oe674 (.fardata:tx1PowMonCfg_009)
                  2000a798    00000010     dfptest_config_009.oe674 (.fardata:tx2BpmMonCfg_009)
                  2000a7a8    00000010     dfptest_config_009.oe674 (.fardata:tx2PowMonCfg_009)
                  2000a7b8    0000000c     dfptest_config_009.oe674 (.fardata:allTxBallbreakMonCfg_009)
                  2000a7c4    0000000c     dfptest_config_009.oe674 (.fardata:allTxBpmMonCfg_009)
                  2000a7d0    0000000c     dfptest_config_009.oe674 (.fardata:allTxPowMonCfg_009)
                  2000a7dc    0000000c     dfptest_config_009.oe674 (.fardata:allTxanaSigMonCfg_009)
                  2000a7e8    0000000c     dfptest_config_009.oe674 (.fardata:freqLimit_009)
                  2000a7f4    0000000c     dfptest_config_009.oe674 (.fardata:monDigEnables_009)
                  2000a800    0000000c     dfptest_config_009.oe674 (.fardata:monDigPeriodicCfg_009)
                  2000a80c    0000000c     dfptest_config_009.oe674 (.fardata:rfInitCalib_009)
                  2000a818    0000000c     dfptest_config_009.oe674 (.fardata:rxMixInpwrMonCfg_009)
                  2000a824    0000000c     dfptest_config_009.oe674 (.fardata:rxNoiseMonCfg_009)
                  2000a830    0000000c     dfptest_config_009.oe674 (.fardata:sigImgMonCfg_009)
                  2000a83c    0000000c     dfptest_config_009.oe674 (.fardata:synthFreqMonCfg_009)
                  2000a848    0000000c     dfptest_config_009.oe674 (.fardata:tx0BallBreakMonCfg_009)
                  2000a854    0000000c     dfptest_config_009.oe674 (.fardata:tx1BallBreakMonCfg_009)
                  2000a860    0000000c     dfptest_config_009.oe674 (.fardata:tx2BallBreakMonCfg_009)
                  2000a86c    00000008     dfptest_config_009.oe674 (.fardata:adcOutCfgArgs_009)
                  2000a874    00000008     dfptest_config_009.oe674 (.fardata:calMonTimeUnitConf_009)
                  2000a87c    00000008     dfptest_config_009.oe674 (.fardata:chCfg_009)
                  2000a884    00000008     dfptest_config_009.oe674 (.fardata:dualClkCompMonCfg_009)
                  2000a88c    00000008     dfptest_config_009.oe674 (.fardata:gpadcIntAnaSigMonCfg_009)
                  2000a894    00000008     dfptest_config_009.oe674 (.fardata:miscCfg_009)
                  2000a89c    00000008     dfptest_config_009.oe674 (.fardata:monAnaEnables_009)
                  2000a8a4    00000008     dfptest_config_009.oe674 (.fardata:pllConVoltMonCfg_009)
                  2000a8ac    00000008     dfptest_config_009.oe674 (.fardata:pmClkLoIntAnaSigMonCfg_009)
                  2000a8b4    00000008     dfptest_config_009.oe674 (.fardata:rxIntAnaSigMonCfg_009)
                  2000a8bc    00000008     dfptest_config_009.oe674 (.fardata:tx0IntAnaSigMonCfg_009)
                  2000a8c4    00000008     dfptest_config_009.oe674 (.fardata:tx1IntAnaSigMonCfg_009)
                  2000a8cc    00000008     dfptest_config_009.oe674 (.fardata:tx2IntAnaSigMonCfg_009)
                  2000a8d4    00000004     dfptest_config_009.oe674 (.fardata:contModeEn_009)
                  2000a8d8    00000004     dfptest_config_009.oe674 (.fardata:deviceHsiClk_009)
                  2000a8dc    00000004     dfptest_config_009.oe674 (.fardata:dynPwrSave_009)
                  2000a8e0    00000004     dfptest_config_009.oe674 (.fardata:lowPowerModeCfg_009)
                  2000a8e4    00000004     dfptest_config_009.oe674 (.fardata:progFiltCfg_009)
                  2000a8e8    00000004     dfptest_config_009.oe674 (.fardata:rfLdoBypassCfg_009)
                  2000a8ec    00000004     dfptest_config_009.oe674 (.fardata:rxGainTempLutReadCfg_009)
                  2000a8f0    00000004     dfptest_config_009.oe674 (.fardata:subFrameTrigCfg_009)
                  2000a8f4    00000004     dfptest_config_009.oe674 (.fardata:testSourceEn_009)
                  2000a8f8    00000004     dfptest_config_009.oe674 (.fardata:txGainTempLutReadCfg_009)
                  2000a8fc    00000004     --HOLE-- [fill = 0]
                  2000a900    00000760     dfptest_config_010.oe674 (.text:dfpTestLoadCfg_010)
                  2000b060    00000208     dfptest_config_010.oe674 (.fardata:dynPhaseShiftCfg_010)
                  2000b268    00000190     dfptest_config_010.oe674 (.fardata:chirpCfg_010)
                  2000b3f8    000000d0     dfptest_config_010.oe674 (.fardata:gTestStartStopCfg_010)
                  2000b4c8    000000d0     dfptest_config_010.oe674 (.fardata:progFiltCoef_010)
                  2000b598    000000b8     dfptest_config_010.oe674 (.fardata:advFrameCfg_010)
                  2000b650    000000b8     dfptest_config_010.oe674 (.fardata:gTestMiscCfg_010)
                  2000b708    000000b0     dfptest_config_010.oe674 (.fardata:profileCfg_010)
                  2000b7b8    000000a0     dfptest_config_010.oe674 (.fardata:bpmChirpCfg_010)
                  2000b858    00000044     dfptest_config_010.oe674 (.fardata:rxGainPhaseMonCfg_010)
                  2000b89c    00000044     dfptest_config_010.oe674 (.fardata:testSourceCfg_010)
                  2000b8e0    00000034     dfptest_config_010.oe674 (.fardata:txGainPhMisMatchMonCfg_010)
                  2000b914    00000020     dfptest_config_010.oe674 (.fardata:extAnaSigMonCfg_010)
                  2000b934    0000001c     dfptest_config_010.oe674 (.fardata:gpAdcCfg_010)
                  2000b950    00000018     dfptest_config_010.oe674 (.fardata:frameCfg_010)
                  2000b968    00000018     dfptest_config_010.oe674 (.fardata:interRxGainPhCfg_010)
                  2000b980    00000018     dfptest_config_010.oe674 (.fardata:synthFreqNonLiveMonCfg_010)
                  2000b998    00000014     dfptest_config_010.oe674 (.fardata:contModeCfg_010)
                  2000b9ac    00000014     dfptest_config_010.oe674 (.fardata:runTimeCalib_010)
                  2000b9c0    00000014     dfptest_config_010.oe674 (.fardata:rxSatMonCfg_010)
                  2000b9d4    00000014     dfptest_config_010.oe674 (.fardata:tempMonCfg_010)
                  2000b9e8    00000010     dfptest_config_010.oe674 (.fardata:bpmCommonCfg_010)
                  2000b9f8    00000010     dfptest_config_010.oe674 (.fardata:monRxIfStageCfg_010)
                  2000ba08    00000010     dfptest_config_010.oe674 (.fardata:phaseShiftCfg_010)
                  2000ba18    00000010     dfptest_config_010.oe674 (.fardata:tx0BpmMonCfg_010)
                  2000ba28    00000010     dfptest_config_010.oe674 (.fardata:tx0PowMonCfg_010)
                  2000ba38    00000010     dfptest_config_010.oe674 (.fardata:tx1BpmMonCfg_010)
                  2000ba48    00000010     dfptest_config_010.oe674 (.fardata:tx1PowMonCfg_010)
                  2000ba58    00000010     dfptest_config_010.oe674 (.fardata:tx2BpmMonCfg_010)
                  2000ba68    00000010     dfptest_config_010.oe674 (.fardata:tx2PowMonCfg_010)
                  2000ba78    0000000c     dfptest_config_010.oe674 (.fardata:allTxBallbreakMonCfg_010)
                  2000ba84    0000000c     dfptest_config_010.oe674 (.fardata:allTxBpmMonCfg_010)
                  2000ba90    0000000c     dfptest_config_010.oe674 (.fardata:allTxPowMonCfg_010)
                  2000ba9c    0000000c     dfptest_config_010.oe674 (.fardata:allTxanaSigMonCfg_010)
                  2000baa8    0000000c     dfptest_config_010.oe674 (.fardata:freqLimit_010)
                  2000bab4    0000000c     dfptest_config_010.oe674 (.fardata:monDigEnables_010)
                  2000bac0    0000000c     dfptest_config_010.oe674 (.fardata:monDigPeriodicCfg_010)
                  2000bacc    0000000c     dfptest_config_010.oe674 (.fardata:rfInitCalib_010)
                  2000bad8    0000000c     dfptest_config_010.oe674 (.fardata:rxMixInpwrMonCfg_010)
                  2000bae4    0000000c     dfptest_config_010.oe674 (.fardata:rxNoiseMonCfg_010)
                  2000baf0    0000000c     dfptest_config_010.oe674 (.fardata:sigImgMonCfg_010)
                  2000bafc    0000000c     dfptest_config_010.oe674 (.fardata:synthFreqMonCfg_010)
                  2000bb08    0000000c     dfptest_config_010.oe674 (.fardata:tx0BallBreakMonCfg_010)
                  2000bb14    0000000c     dfptest_config_010.oe674 (.fardata:tx1BallBreakMonCfg_010)
                  2000bb20    0000000c     dfptest_config_010.oe674 (.fardata:tx2BallBreakMonCfg_010)
                  2000bb2c    00000008     dfptest_config_010.oe674 (.fardata:adcOutCfgArgs_010)
                  2000bb34    00000008     dfptest_config_010.oe674 (.fardata:calMonTimeUnitConf_010)
                  2000bb3c    00000008     dfptest_config_010.oe674 (.fardata:chCfg_010)
                  2000bb44    00000008     dfptest_config_010.oe674 (.fardata:dualClkCompMonCfg_010)
                  2000bb4c    00000008     dfptest_config_010.oe674 (.fardata:gpadcIntAnaSigMonCfg_010)
                  2000bb54    00000008     dfptest_config_010.oe674 (.fardata:miscCfg_010)
                  2000bb5c    00000008     dfptest_config_010.oe674 (.fardata:monAnaEnables_010)
                  2000bb64    00000008     dfptest_config_010.oe674 (.fardata:pllConVoltMonCfg_010)
                  2000bb6c    00000008     dfptest_config_010.oe674 (.fardata:pmClkLoIntAnaSigMonCfg_010)
                  2000bb74    00000008     dfptest_config_010.oe674 (.fardata:rxIntAnaSigMonCfg_010)
                  2000bb7c    00000008     dfptest_config_010.oe674 (.fardata:tx0IntAnaSigMonCfg_010)
                  2000bb84    00000008     dfptest_config_010.oe674 (.fardata:tx1IntAnaSigMonCfg_010)
                  2000bb8c    00000008     dfptest_config_010.oe674 (.fardata:tx2IntAnaSigMonCfg_010)
                  2000bb94    00000004     dfptest_config_010.oe674 (.fardata:contModeEn_010)
                  2000bb98    00000004     dfptest_config_010.oe674 (.fardata:deviceHsiClk_010)
                  2000bb9c    00000004     dfptest_config_010.oe674 (.fardata:dynPwrSave_010)
                  2000bba0    00000004     dfptest_config_010.oe674 (.fardata:lowPowerModeCfg_010)
                  2000bba4    00000004     dfptest_config_010.oe674 (.fardata:progFiltCfg_010)
                  2000bba8    00000004     dfptest_config_010.oe674 (.fardata:rfLdoBypassCfg_010)
                  2000bbac    00000004     dfptest_config_010.oe674 (.fardata:rxGainTempLutReadCfg_010)
                  2000bbb0    00000004     dfptest_config_010.oe674 (.fardata:subFrameTrigCfg_010)
                  2000bbb4    00000004     dfptest_config_010.oe674 (.fardata:testSourceEn_010)
                  2000bbb8    00000004     dfptest_config_010.oe674 (.fardata:txGainTempLutReadCfg_010)
                  2000bbbc    00000004     --HOLE-- [fill = 00000000]

.fardata   0    00815e38    000013a2     
                  00815e38    00000400     dss_pe674.oe674 (.fardata:ti_sysbios_family_c64p_EventCombiner_Module__state__V)
                  00816238    000002d0     dfptest_setup.oe674 (.fardata:gMonDataAeStrct)
                  00816508    000001e8     libmmwavelink_xwr68xx.ae674 : rl_driver.oe674 (.fardata:rl_driverData)
                  008166f0    000001e0     rts6740_elf.lib : defs.c.obj (.fardata:_ftable)
                  008168d0    00000100     libmmwavelink_xwr68xx.ae674 : rl_driver.oe674 (.fardata:rl_rxMsg)
                  008169d0    00000100                                 : rl_driver.oe674 (.fardata:rl_txMsg)
                  00816ad0    000000a0     rts6740_elf.lib : write.c.obj (.fardata:_stream)
                  00816b70    00000080     dss_pe674.oe674 (.fardata:ti_sysbios_knl_Swi_Module_State_0_readyQ__A)
                  00816bf0    00000080     dss_pe674.oe674 (.fardata:ti_sysbios_knl_Task_Module_State_0_readyQ__A)
                  00816c70    00000078     rts6740_elf.lib : write.c.obj (.fardata:_device)
                  00816ce8    0000006c     dss_pe674.oe674 (.fardata:ti_sysbios_family_c64p_Hwi_Module__state__V)
                  00816d54    00000004     rts6740_elf.lib : _lock.c.obj (.fardata:_lock)
                  00816d58    0000005c     dss_pe674.oe674 (.fardata:ti_sysbios_knl_Task_Object__table__V)
                  00816db4    00000050     libmailbox_xwr68xx.ae674 : mailbox.oe674 (.fardata:gMailboxMCB)
                  00816e04    00000004     rts6740_elf.lib : _lock.c.obj (.fardata:_unlock)
                  00816e08    00000050     dfptest_verify.oe674 (.fardata:monAeCnt)
                  00816e58    00000048     dfptest_setup.oe674 (.fardata:rcvGpAdcData)
                  00816ea0    00000048     dss_pe674.oe674 (.fardata:ti_sysbios_knl_Task_Module__state__V)
                  00816ee8    00000040     dss_pe674.oe674 (.fardata:ti_sysbios_gates_GateMutex_Object__table__V)
                  00816f28    0000003c     dss_pe674.oe674 (.fardata:ti_sysbios_timers_rti_Timer_Object__table__V)
                  00816f64    00000030     dss_pe674.oe674 (.fardata:ti_sysbios_family_c64p_Exception_Module__state__V)
                  00816f94    00000004     dfptest_setup.oe674 (.fardata:retryNegativeTestCfg)
                  00816f98    00000030     dss_pe674.oe674 (.fardata:ti_sysbios_knl_Swi_Object__table__V)
                  00816fc8    0000002c     dss_pe674.oe674 (.fardata:ti_sysbios_knl_Clock_Module__state__V)
                  00816ff4    00000024     dss_pe674.oe674 (.fardata:ti_sysbios_BIOS_Module__state__V)
                  00817018    00000020     libsoc_xwr68xx.ae674 : soc_xwr68xx_dss.oe674 (.fardata:gSOCHwAttrib)
                  00817038    00000020     dss_pe674.oe674 (.fardata:xdc_runtime_Error_IgnoreBlock)
                  00817058    00000020     dss_pe674.oe674 (.fardata:xdc_runtime_System_Module_State_0_atexitHandlers__A)
                  00817078    0000001c     dss_pe674.oe674 (.fardata:ti_sysbios_knl_Swi_Module__state__V)
                  00817094    00000004     rts6740_elf.lib : defs.c.obj (.fardata)
                  00817098    00000018     libadcbuf_xwr68xx.ae674 : adcbuf_xwr1xxx.oe674 (.fardata:ADCBuf_config)
                  008170b0    00000018     libmailbox_xwr68xx.ae674 : mailbox_xwr68xx.oe674 (.fardata:gMailboxDssBssHwCfg)
                  008170c8    00000018                              : mailbox_xwr68xx.oe674 (.fardata:gMailboxDssMssHwCfg)
                  008170e0    00000018     dss_pe674.oe674 (.fardata:ti_sysbios_family_c64p_Hwi_Object__table__V)
                  008170f8    00000018     dss_pe674.oe674 (.fardata:ti_sysbios_heaps_HeapMem_Object__table__V)
                  00817110    00000018     dss_pe674.oe674 (.fardata:ti_sysbios_timers_rti_Timer_Module_State_0_device__A)
                  00817128    00000010     dss_pe674.oe674 (.fardata:ti_sysbios_timers_rti_Timer_Module_State_0_intFreqs__A)
                  00817138    00000010     dss_pe674.oe674 (.fardata:ti_sysbios_timers_rti_Timer_Module__state__V)
                  00817148    0000000c     dfptest_setup.oe674 (.fardata:rfDevCfg)
                  00817154    0000000c     rts6740_elf.lib : exit.c.obj (.fardata)
                  00817160    00000008     dss_pe674.oe674 (.fardata:ti_sysbios_family_c64p_Hwi_Module__root__V)
                  00817168    00000008     dss_pe674.oe674 (.fardata:ti_sysbios_gates_GateHwi_Module__root__V)
                  00817170    00000008     dss_pe674.oe674 (.fardata:ti_sysbios_gates_GateMutex_Module__root__V)
                  00817178    00000008     dss_pe674.oe674 (.fardata:ti_sysbios_hal_Hwi_Object__table__V)
                  00817180    00000008     dss_pe674.oe674 (.fardata:ti_sysbios_heaps_HeapMem_Module__root__V)
                  00817188    00000008     dss_pe674.oe674 (.fardata:ti_sysbios_knl_Queue_Module__root__V)
                  00817190    00000008     dss_pe674.oe674 (.fardata:ti_sysbios_knl_Semaphore_Module__root__V)
                  00817198    00000008     dss_pe674.oe674 (.fardata:ti_sysbios_knl_Task_Module__root__V)
                  008171a0    00000008     dss_pe674.oe674 (.fardata:ti_sysbios_timers_rti_Timer_Module_State_0_handles__A)
                  008171a8    00000008     dss_pe674.oe674 (.fardata:xdc_runtime_Registry_Module__state__V)
                  008171b0    00000008     dss_pe674.oe674 (.fardata:xdc_runtime_Startup_Module__state__V)
                  008171b8    00000008     dss_pe674.oe674 (.fardata:xdc_runtime_System_Module__state__V)
                  008171c0    00000004     rts6740_elf.lib : errno.c.obj (.fardata)
                  008171c4    00000004     dss_pe674.oe674 (.fardata:ti_sysbios_family_c64p_Cache_Module__state__V)
                  008171c8    00000004     dss_pe674.oe674 (.fardata:ti_sysbios_gates_GateHwi_Object__table__V)
                  008171cc    00000004     dss_pe674.oe674 (.fardata:ti_sysbios_heaps_HeapBuf_Module__state__V)
                  008171d0    00000004     dss_pe674.oe674 (.fardata:ti_sysbios_knl_Task_Module_State_0_idleTask__A)
                  008171d4    00000004     dss_pe674.oe674 (.fardata:xdc_runtime_Memory_Module__state__V)
                  008171d8    00000002     dss_pe674.oe674 (.fardata:xdc_runtime_Error_Module__state__V)

.switch    0    008181e0    00000254     
                  008181e0    000000c8     dfptest_setup.oe674 (.switch:MmwaveLink_asyncEventHandler)
                  008182a8    00000074     dfptest_verify.oe674 (.switch:MmwaveLink_verifyReportCount)
                  0081831c    00000048     libadcbuf_xwr68xx.ae674 : adcbuf_mmwave.oe674 (.switch:ADCBUF_MMWave_control)
                  00818364    00000038     rts6740_elf.lib : _printfi.c.obj (.switch:__TI_printfi)
                  0081839c    00000028     libadcbuf_xwr68xx.ae674 : adcbuf_mmwave.oe674 (.switch:ADCBUFCmdParamCheck)
                  008183c4    00000028     dfptest_common.oe674 (.switch:MmwaveLink_loadConfig)
                  008183ec    0000001c     libsoc_xwr68xx.ae674 : soc_xwr68xx.oe674 (.switch:SOC_gateClock)
                  00818408    0000001c                          : soc_xwr68xx.oe674 (.switch:SOC_ungateClock)
                  00818424    00000010     libadcbuf_xwr68xx.ae674 : adcbuf_mmwave.oe674 (.switch:ADCBUF_MMWave_getChanBufAddr)

.cio       0    00818438    00000120     UNINITIALIZED
                  00818438    00000120     rts6740_elf.lib : trgmsg.c.obj (.cio)

MODULE SUMMARY

       Module                     code     ro data   rw data
       ------                     ----     -------   -------
    /home/gtbldadm/nightlybuilds/mmwave_sdk/ti/control/mmwavelink/dfptest/xwr68xx/dss_configPkg_xwr68xx/package/cfg/
       dss_pe674.oe674            4864     8320      36982  
    +--+--------------------------+--------+---------+---------+
       Total:                     4864     8320      36982  
                                                            
    obj_xwr68xx/
       dfptest_verify.oe674       15520    10892     81     
       dfptest_setup.oe674        8864     5916      858    
       main_dfp_dss.oe674         960      508       9224   
       dfptest_monitoring.oe674   4256     1380      4      
       dfptest_config_001.oe674   1904     0         2908   
       dfptest_config_002.oe674   1904     0         2908   
       dfptest_config_003.oe674   1904     0         2908   
       dfptest_config_004.oe674   1904     0         2908   
       dfptest_config_005.oe674   1904     0         2908   
       dfptest_config_006.oe674   1904     0         2908   
       dfptest_config_007.oe674   1904     0         2908   
       dfptest_config_008.oe674   1904     0         2908   
       dfptest_config_009.oe674   1904     0         2908   
       dfptest_config_010.oe674   1904     0         2908   
       dfptest_common.oe674       3488     1128      16     
       dfptest_config.oe674       0        0         2916   
       osi_tirtos.oe674           384      0         0      
    +--+--------------------------+--------+---------+---------+
       Total:                     52512    19824     42179  
                                                            
    /home/gtbldadm/nightlybuilds/mmwave_sdk/scripts/jenkins/../../ti/control/mmwavelink/lib/libmmwavelink_xwr68xx.ae674
       rl_driver.oe674            9536     220       1000   
       rl_monitoring.oe674        3136     1088      0      
       rl_sensor.oe674            3936     280       0      
       rl_device.oe674            1088     0         0      
       rl_controller.oe674        480      0         0      
    +--+--------------------------+--------+---------+---------+
       Total:                     18176    1588      1000   
                                                            
    /home/gtbldadm/nightlybuilds/mmwave_sdk/scripts/jenkins/../../ti/drivers/adcbuf/lib/libadcbuf_xwr68xx.ae674
       adcbuf_mmwave.oe674        3296     168       0      
       ADCBuf.oe674               288      16        4      
       adcbuf_xwr1xxx.oe674       0        16        24     
    +--+--------------------------+--------+---------+---------+
       Total:                     3584     200       28     
                                                            
    /home/gtbldadm/nightlybuilds/mmwave_sdk/scripts/jenkins/../../ti/drivers/crc/lib/libcrc_xwr68xx.ae674
       crc.oe674                  2560     12        0      
       crc_xwr68xx.oe674          0        0         4      
    +--+--------------------------+--------+---------+---------+
       Total:                     2560     12        4      
                                                            
    /home/gtbldadm/nightlybuilds/mmwave_sdk/scripts/jenkins/../../ti/drivers/mailbox/lib/libmailbox_xwr68xx.ae674
       mailbox.oe674              3936     112       80     
       mailbox_xwr68xx.oe674      0        0         48     
    +--+--------------------------+--------+---------+---------+
       Total:                     3936     112       128    
                                                            
    /home/gtbldadm/nightlybuilds/mmwave_sdk/scripts/jenkins/../../ti/drivers/osal/lib/libosal_xwr68xx.ae674
       HwiP_tirtos.oe674          288      28        0      
       SemaphoreP_tirtos.oe674    256      32        0      
       MemoryP_tirtos.oe674       64       0         0      
       DebugP_tirtos.oe674        32       0         0      
    +--+--------------------------+--------+---------+---------+
       Total:                     640      60        0      
                                                            
    /home/gtbldadm/nightlybuilds/mmwave_sdk/scripts/jenkins/../../ti/drivers/soc/lib/libsoc_xwr68xx.ae674
       soc.oe674                  1056     0         0      
       soc_xwr68xx.oe674          768      56        0      
       soc_xwr68xx_dss.oe674      320      60        32     
    +--+--------------------------+--------+---------+---------+
       Total:                     2144     116       32     
                                                            
    /home/gtbldadm/nightlybuilds/mmwave_sdk/scripts/jenkins/../../ti/utils/testlogger/lib/libtestlogger_xwr68xx.ae674
       logger.oe674               704      148       12     
    +--+--------------------------+--------+---------+---------+
       Total:                     704      148       12     
                                                            
    /home/gtbldadm/nightlybuilds/mmwave_sdk/ti/control/mmwavelink/dfptest/xwr68xx/dss_configPkg_xwr68xx/package/cfg/dss_pe674.src/sysbios/sysbios.ae674
       BIOS.obj                   33248    1304      0      
       c64p_Hwi_disp_always.obj   512      0         0      
       c64p_Exception_asm.obj     384      0         0      
       c62_TaskSupport_asm.obj    224      0         0      
       c64p_Hwi_asm_switch.obj    192      0         0      
       c64p_Hwi_asm.obj           160      0         0      
    +--+--------------------------+--------+---------+---------+
       Total:                     34720    1304      0      
                                                            
    /opt/ti/bios_6_73_01_01/packages/ti/targets/rts6000/lib/boot.ae674
       autoinit.oe674             288      0         0      
       boot.oe674                 160      0         0      
    +--+--------------------------+--------+---------+---------+
       Total:                     448      0         0      
                                                            
    /opt/ti/bios_6_73_01_01/packages/ti/targets/rts6000/lib/ti.targets.rts6000.ae674
       System.oe674               3232     24        0      
       Text.oe674                 1824     64        0      
       Error.oe674                1152     88        0      
       Startup.oe674              896      44        0      
       Core-mem.oe674             896      0         0      
       Memory.oe674               448      0         0      
       Core-smem.oe674            416      0         0      
       SysStd.oe674               224      0         0      
       Assert.oe674               192      4         0      
       Core-params.oe674          160      0         0      
       Core-label.oe674           128      0         0      
       Gate.oe674                 64       0         0      
       Registry.oe674             64       0         0      
    +--+--------------------------+--------+---------+---------+
       Total:                     9696     224       0      
                                                            
    /opt/ti/ti-cgt-c6000_8.3.3/lib/rts6740_elf.lib
       _printfi.c.obj             13440    92        0      
       divd.c.obj                 1536     0         0      
       defs.c.obj                 0        0         804    
       fputs.c.obj                800      0         0      
       imath64.c.obj              704      0         0      
       trgmsg.c.obj               224      0         288    
       fputc.c.obj                480      0         0      
       frexp.c.obj                448      0         0      
       getdevice.c.obj            448      0         0      
       imath40.c.obj              448      0         0      
       ldexp.c.obj                448      0         0      
       setvbuf.c.obj              448      0         0      
       fflush.c.obj               416      0         0      
       hostrename.c.obj           416      0         0      
       write.c.obj                96       0         280    
       snprintf.c.obj             320      0         0      
       printf.c.obj               288      0         0      
       exit.c.obj                 256      0         12     
       ctype.c.obj                0        257       0      
       atoi.c.obj                 256      0         0      
       fclose.c.obj               256      0         0      
       fseek.c.obj                256      0         0      
       hostopen.c.obj             224      0         8      
       _io_perm.c.obj             224      0         0      
       _ltoa.c.obj                224      0         0      
       close.c.obj                224      0         0      
       divi.asm.obj               224      0         0      
       hostlseek.c.obj            224      0         0      
       hostwrite.c.obj            224      0         0      
       llshift.c.obj              224      0         0      
       memset.c.obj               224      0         0      
       divu.asm.obj               192      0         0      
       hostread.c.obj             192      0         0      
       hostunlink.c.obj           192      0         0      
       memcpy64.asm.obj           192      0         0      
       remi.asm.obj               192      0         0      
       sprintf.c.obj              192      0         0      
       tls.c.obj                  192      0         0      
       fopen.c.obj                160      0         0      
       hostclose.c.obj            160      0         0      
       remu.asm.obj               160      0         0      
       unlink.c.obj               128      0         0      
       _lock.c.obj                96       0         8      
       lseek.c.obj                96       0         0      
       memccpy.c.obj              96       0         0      
       strasg.asm.obj             96       0         0      
       args_main.c.obj            64       0         0      
       frcmpyd_div.c.obj          64       0         0      
       isinf.c.obj                64       0         0      
       push.asm.obj               64       0         0      
       wcslen.c.obj               64       0         0      
       errno.c.obj                32       0         4      
       signbit.c.obj              32       0         0      
    +--+--------------------------+--------+---------+---------+
       Total:                     26720    349       1404   
                                                            
       Stack:                     0        0         4096   
    +--+--------------------------+--------+---------+---------+
       Grand Total:               160704   32257     85865  


FAR CALL TRAMPOLINES

callee name               trampoline name
   callee addr  tramp addr   call addr  call info
--------------  -----------  ---------  ----------------
$.text:dfpTestLoadCfg_001:dfptest_config_001.oe674$0x0  $Tramp$S$$dfpTestLoadCfg_001
   20000000     007fff60     007f5284   dfptest_common.oe674 (.text:MmwaveLink_loadConfig)
$.text:dfpTestLoadCfg_002:dfptest_config_002.oe674$0x0  $Tramp$S$$dfpTestLoadCfg_002
   20001300     007fff70     007f527c   dfptest_common.oe674 (.text:MmwaveLink_loadConfig)
$.text:dfpTestLoadCfg_003:dfptest_config_003.oe674$0x0  $Tramp$S$$dfpTestLoadCfg_003
   200025c0     007fff80     007f5274   dfptest_common.oe674 (.text:MmwaveLink_loadConfig)
$.text:dfpTestLoadCfg_004:dfptest_config_004.oe674$0x0  $Tramp$S$$dfpTestLoadCfg_004
   20003880     007fff90     007f526c   dfptest_common.oe674 (.text:MmwaveLink_loadConfig)
$.text:dfpTestLoadCfg_005:dfptest_config_005.oe674$0x0  $Tramp$S$$dfpTestLoadCfg_005
   20004b40     007fffa0     007f5264   dfptest_common.oe674 (.text:MmwaveLink_loadConfig)
$.text:dfpTestLoadCfg_006:dfptest_config_006.oe674$0x0  $Tramp$S$$dfpTestLoadCfg_006
   20005e00     007fffb0     007f525c   dfptest_common.oe674 (.text:MmwaveLink_loadConfig)
$.text:dfpTestLoadCfg_007:dfptest_config_007.oe674$0x0  $Tramp$S$$dfpTestLoadCfg_007
   200070c0     007fffc0     007f5254   dfptest_common.oe674 (.text:MmwaveLink_loadConfig)
$.text:dfpTestLoadCfg_008:dfptest_config_008.oe674$0x0  $Tramp$S$$dfpTestLoadCfg_008
   20008380     007fffd0     007f524c   dfptest_common.oe674 (.text:MmwaveLink_loadConfig)
$.text:dfpTestLoadCfg_009:dfptest_config_009.oe674$0x0  $Tramp$S$$dfpTestLoadCfg_009
   20009640     007fffe0     007f5244   dfptest_common.oe674 (.text:MmwaveLink_loadConfig)
$.text:dfpTestLoadCfg_010:dfptest_config_010.oe674$0x0  $Tramp$S$$dfpTestLoadCfg_010
   2000a900     007ffff0     007f5238   dfptest_common.oe674 (.text:MmwaveLink_loadConfig)
$.text:memcpy:rts6740_elf.lib<memcpy64.asm.obj>$0x0  $Tramp$S$$memcpy
   007fc720     200012c0     200000a8   dfptest_config_001.oe674 (.text:dfpTestLoadCfg_001)
                             200000c8   dfptest_config_001.oe674 (.text:dfpTestLoadCfg_001)
                             20000240   dfptest_config_001.oe674 (.text:dfpTestLoadCfg_001)
                             20000654   dfptest_config_001.oe674 (.text:dfpTestLoadCfg_001)
                             200006c4   dfptest_config_001.oe674 (.text:dfpTestLoadCfg_001)
                             200013a8   dfptest_config_002.oe674 (.text:dfpTestLoadCfg_002)
                             200013c8   dfptest_config_002.oe674 (.text:dfpTestLoadCfg_002)
                             20001540   dfptest_config_002.oe674 (.text:dfpTestLoadCfg_002)
                             20001954   dfptest_config_002.oe674 (.text:dfpTestLoadCfg_002)
                             200019c4   dfptest_config_002.oe674 (.text:dfpTestLoadCfg_002)
                             20002668   dfptest_config_003.oe674 (.text:dfpTestLoadCfg_003)
                             20002688   dfptest_config_003.oe674 (.text:dfpTestLoadCfg_003)
                             20002800   dfptest_config_003.oe674 (.text:dfpTestLoadCfg_003)
                             20002c14   dfptest_config_003.oe674 (.text:dfpTestLoadCfg_003)
                             20002c84   dfptest_config_003.oe674 (.text:dfpTestLoadCfg_003)
                             20003928   dfptest_config_004.oe674 (.text:dfpTestLoadCfg_004)
                             20003948   dfptest_config_004.oe674 (.text:dfpTestLoadCfg_004)
                             20003ac0   dfptest_config_004.oe674 (.text:dfpTestLoadCfg_004)
                             20003ed4   dfptest_config_004.oe674 (.text:dfpTestLoadCfg_004)
                             20003f44   dfptest_config_004.oe674 (.text:dfpTestLoadCfg_004)
                             20004be8   dfptest_config_005.oe674 (.text:dfpTestLoadCfg_005)
                             20004c08   dfptest_config_005.oe674 (.text:dfpTestLoadCfg_005)
                             20004d80   dfptest_config_005.oe674 (.text:dfpTestLoadCfg_005)
                             20005194   dfptest_config_005.oe674 (.text:dfpTestLoadCfg_005)
                             20005204   dfptest_config_005.oe674 (.text:dfpTestLoadCfg_005)
                             20005ea8   dfptest_config_006.oe674 (.text:dfpTestLoadCfg_006)
                             20005ec8   dfptest_config_006.oe674 (.text:dfpTestLoadCfg_006)
                             20006040   dfptest_config_006.oe674 (.text:dfpTestLoadCfg_006)
                             20006454   dfptest_config_006.oe674 (.text:dfpTestLoadCfg_006)
                             200064c4   dfptest_config_006.oe674 (.text:dfpTestLoadCfg_006)
                             20007168   dfptest_config_007.oe674 (.text:dfpTestLoadCfg_007)
                             20007188   dfptest_config_007.oe674 (.text:dfpTestLoadCfg_007)
                             20007300   dfptest_config_007.oe674 (.text:dfpTestLoadCfg_007)
                             20007714   dfptest_config_007.oe674 (.text:dfpTestLoadCfg_007)
                             20007784   dfptest_config_007.oe674 (.text:dfpTestLoadCfg_007)
                             20008428   dfptest_config_008.oe674 (.text:dfpTestLoadCfg_008)
                             20008448   dfptest_config_008.oe674 (.text:dfpTestLoadCfg_008)
                             200085c0   dfptest_config_008.oe674 (.text:dfpTestLoadCfg_008)
                             200089d4   dfptest_config_008.oe674 (.text:dfpTestLoadCfg_008)
                             20008a44   dfptest_config_008.oe674 (.text:dfpTestLoadCfg_008)
                             200096e8   dfptest_config_009.oe674 (.text:dfpTestLoadCfg_009)
                             20009708   dfptest_config_009.oe674 (.text:dfpTestLoadCfg_009)
                             20009880   dfptest_config_009.oe674 (.text:dfpTestLoadCfg_009)
                             20009c94   dfptest_config_009.oe674 (.text:dfpTestLoadCfg_009)
                             20009d04   dfptest_config_009.oe674 (.text:dfpTestLoadCfg_009)
                             2000a9a8   dfptest_config_010.oe674 (.text:dfpTestLoadCfg_010)
                             2000a9c8   dfptest_config_010.oe674 (.text:dfpTestLoadCfg_010)
                             2000ab40   dfptest_config_010.oe674 (.text:dfpTestLoadCfg_010)
                             2000af54   dfptest_config_010.oe674 (.text:dfpTestLoadCfg_010)
                             2000afc4   dfptest_config_010.oe674 (.text:dfpTestLoadCfg_010)
$.text:__strasgi_64plus:rts6740_elf.lib<strasg.asm.obj>$0x0  $Tramp$S$$__c6xabi_strasgi_64plus
   0080b640     200012e0     20000010   dfptest_config_001.oe674 (.text:dfpTestLoadCfg_001)
                             20000030   dfptest_config_001.oe674 (.text:dfpTestLoadCfg_001)
                             20000204   dfptest_config_001.oe674 (.text:dfpTestLoadCfg_001)
                             20000320   dfptest_config_001.oe674 (.text:dfpTestLoadCfg_001)
                             20000448   dfptest_config_001.oe674 (.text:dfpTestLoadCfg_001)
                             20000700   dfptest_config_001.oe674 (.text:dfpTestLoadCfg_001)
                             20001310   dfptest_config_002.oe674 (.text:dfpTestLoadCfg_002)
                             20001330   dfptest_config_002.oe674 (.text:dfpTestLoadCfg_002)
                             20001504   dfptest_config_002.oe674 (.text:dfpTestLoadCfg_002)
                             20001620   dfptest_config_002.oe674 (.text:dfpTestLoadCfg_002)
                             20001748   dfptest_config_002.oe674 (.text:dfpTestLoadCfg_002)
                             20001a00   dfptest_config_002.oe674 (.text:dfpTestLoadCfg_002)
                             200025d0   dfptest_config_003.oe674 (.text:dfpTestLoadCfg_003)
                             200025f0   dfptest_config_003.oe674 (.text:dfpTestLoadCfg_003)
                             200027c4   dfptest_config_003.oe674 (.text:dfpTestLoadCfg_003)
                             200028e0   dfptest_config_003.oe674 (.text:dfpTestLoadCfg_003)
                             20002a08   dfptest_config_003.oe674 (.text:dfpTestLoadCfg_003)
                             20002cc0   dfptest_config_003.oe674 (.text:dfpTestLoadCfg_003)
                             20003890   dfptest_config_004.oe674 (.text:dfpTestLoadCfg_004)
                             200038b0   dfptest_config_004.oe674 (.text:dfpTestLoadCfg_004)
                             20003a84   dfptest_config_004.oe674 (.text:dfpTestLoadCfg_004)
                             20003ba0   dfptest_config_004.oe674 (.text:dfpTestLoadCfg_004)
                             20003cc8   dfptest_config_004.oe674 (.text:dfpTestLoadCfg_004)
                             20003f80   dfptest_config_004.oe674 (.text:dfpTestLoadCfg_004)
                             20004b50   dfptest_config_005.oe674 (.text:dfpTestLoadCfg_005)
                             20004b70   dfptest_config_005.oe674 (.text:dfpTestLoadCfg_005)
                             20004d44   dfptest_config_005.oe674 (.text:dfpTestLoadCfg_005)
                             20004e60   dfptest_config_005.oe674 (.text:dfpTestLoadCfg_005)
                             20004f88   dfptest_config_005.oe674 (.text:dfpTestLoadCfg_005)
                             20005240   dfptest_config_005.oe674 (.text:dfpTestLoadCfg_005)
                             20005e10   dfptest_config_006.oe674 (.text:dfpTestLoadCfg_006)
                             20005e30   dfptest_config_006.oe674 (.text:dfpTestLoadCfg_006)
                             20006004   dfptest_config_006.oe674 (.text:dfpTestLoadCfg_006)
                             20006120   dfptest_config_006.oe674 (.text:dfpTestLoadCfg_006)
                             20006248   dfptest_config_006.oe674 (.text:dfpTestLoadCfg_006)
                             20006500   dfptest_config_006.oe674 (.text:dfpTestLoadCfg_006)
                             200070d0   dfptest_config_007.oe674 (.text:dfpTestLoadCfg_007)
                             200070f0   dfptest_config_007.oe674 (.text:dfpTestLoadCfg_007)
                             200072c4   dfptest_config_007.oe674 (.text:dfpTestLoadCfg_007)
                             200073e0   dfptest_config_007.oe674 (.text:dfpTestLoadCfg_007)
                             20007508   dfptest_config_007.oe674 (.text:dfpTestLoadCfg_007)
                             200077c0   dfptest_config_007.oe674 (.text:dfpTestLoadCfg_007)
                             20008390   dfptest_config_008.oe674 (.text:dfpTestLoadCfg_008)
                             200083b0   dfptest_config_008.oe674 (.text:dfpTestLoadCfg_008)
                             20008584   dfptest_config_008.oe674 (.text:dfpTestLoadCfg_008)
                             200086a0   dfptest_config_008.oe674 (.text:dfpTestLoadCfg_008)
                             200087c8   dfptest_config_008.oe674 (.text:dfpTestLoadCfg_008)
                             20008a80   dfptest_config_008.oe674 (.text:dfpTestLoadCfg_008)
                             20009650   dfptest_config_009.oe674 (.text:dfpTestLoadCfg_009)
                             20009670   dfptest_config_009.oe674 (.text:dfpTestLoadCfg_009)
                             20009844   dfptest_config_009.oe674 (.text:dfpTestLoadCfg_009)
                             20009960   dfptest_config_009.oe674 (.text:dfpTestLoadCfg_009)
                             20009a88   dfptest_config_009.oe674 (.text:dfpTestLoadCfg_009)
                             20009d40   dfptest_config_009.oe674 (.text:dfpTestLoadCfg_009)
                             2000a910   dfptest_config_010.oe674 (.text:dfpTestLoadCfg_010)
                             2000a930   dfptest_config_010.oe674 (.text:dfpTestLoadCfg_010)
                             2000ab04   dfptest_config_010.oe674 (.text:dfpTestLoadCfg_010)
                             2000ac20   dfptest_config_010.oe674 (.text:dfpTestLoadCfg_010)
                             2000ad48   dfptest_config_010.oe674 (.text:dfpTestLoadCfg_010)
                             2000b000   dfptest_config_010.oe674 (.text:dfpTestLoadCfg_010)

[12 trampolines]
[120 trampoline calls]


GLOBAL SYMBOLS: SORTED ALPHABETICALLY BY Name 

address   name                                                         
-------   ----                                                         
007fcea0  ADCBUF_MMWave_close                                          
007e4da0  ADCBUF_MMWave_control                                        
007f77c0  ADCBUF_MMWave_getChanBufAddr                                 
007fff40  ADCBUF_MMWave_init                                           
007f2dc0  ADCBUF_MMWave_open                                           
0080bf80  ADCBuf_Params_init                                           
00817098  ADCBuf_config                                                
0080bfa0  ADCBuf_control                                               
00814610  ADCBuf_defaultParams                                         
007fcf20  ADCBuf_init                                                  
007ff0a0  ADCBuf_open                                                  
0080c4c0  C$$EXIT                                                      
007ff4b8  C$$IO$$                                                      
007ecde0  CRC_computeSignature                                         
007fac20  CRC_getSignature                                             
007f9800  CRC_getTransactionId                                         
0080bfc0  CRC_initConfigParams                                         
007ea660  CRC_open                                                     
007fbbe0  HOSTclose                                                    
007f98e0  HOSTlseek                                                    
007f99c0  HOSTopen                                                     
007face0  HOSTread                                                     
007f2f60  HOSTrename                                                   
007fada0  HOSTunlink                                                   
007f9aa0  HOSTwrite                                                    
0080bfe0  HwiP_Params_init                                             
0080b3c0  HwiP_create                                                  
0080b400  HwiP_delete                                                  
0080c000  HwiP_disable                                                 
0080c020  HwiP_disableInterrupt                                        
0080c040  HwiP_enableInterrupt                                         
0080c060  HwiP_restore                                                 
00818588  MCPI_FailSignature                                           
0080b440  MCPI_Initialize                                              
00818584  MCPI_Result                                                  
00808000  MCPI_logMessage                                              
007ee000  MCPI_setFeatureTestResult                                    
0080c080  MCPI_setTestResult                                           
007ff280  Mailbox_Config_init                                          
007f4f00  Mailbox_close                                                
008141f8  Mailbox_defaultCfg                                           
007f9c60  Mailbox_init                                                 
007e7fc0  Mailbox_open                                                 
007f1e00  Mailbox_read                                                 
007f8300  Mailbox_readFlush                                            
007f0060  Mailbox_write                                                
007fcfa0  Mailbox_writeReset                                           
0080c0a0  MemoryP_ctrlAlloc                                            
0080c0c0  MemoryP_ctrlFree                                             
007e6c60  MmwaveLinkTest_initConfig                                    
007fd020  MmwaveLink_RxMixerInPwrConfig                                
007f5060  MmwaveLink_adcBufConfig                                      
007f1fc0  MmwaveLink_checkStatusFlag                                   
007fd0a0  MmwaveLink_checkTxGainPhaseVal                               
007f6500  MmwaveLink_genLatentFaultRep                                 
007f8400  MmwaveLink_getAdvFrameConfig                                 
007f6640  MmwaveLink_getFrameConfig                                    
007ec2e0  MmwaveLink_getProfileConfig                                  
007fd120  MmwaveLink_getRfBootupStatus                                 
007f4600  MmwaveLink_getVersion                                        
007ed080  MmwaveLink_initLink                                          
007f51c0  MmwaveLink_loadConfig                                        
007ed320  MmwaveLink_monFeatureCfg                                     
0080c160  MmwaveLink_monitorReportCountInit                            
007fbe60  MmwaveLink_rfCalibration                                     
007fd1a0  MmwaveLink_rfSetLdoBypassConfig                              
007fd220  MmwaveLink_rlRfDigMonPeriodicConfig                          
007eba40  MmwaveLink_runDfpTest                                        
007fbf00  MmwaveLink_sensorStart                                       
007fd2a0  MmwaveLink_setAdcOutConfig                                   
007fd320  MmwaveLink_setAdvFrameConfig                                 
007f9e20  MmwaveLink_setBpmChirpConfig                                 
007fd3a0  MmwaveLink_setBpmCommonConfig                                
007fbfa0  MmwaveLink_setCalMonConfig                                   
007fd420  MmwaveLink_setChannelConfig                                  
007fafe0  MmwaveLink_setChirpConfig                                    
007fd4a0  MmwaveLink_setFrameConfig                                    
007fc040  MmwaveLink_setGpAdcConfig                                    
007fd520  MmwaveLink_setHsiClk                                         
007fd5a0  MmwaveLink_setInitTimeCalibConfig                            
007fd620  MmwaveLink_setLowPowerModeConfig                             
007fc0e0  MmwaveLink_setProfileConfig                                  
007fd6a0  MmwaveLink_setRfAnaMonConfig                                 
007fd720  MmwaveLink_setRfDevCfg                                       
007fd7a0  MmwaveLink_setRfDualClkCompMonConfig                         
007fd820  MmwaveLink_setRfExtAnaSignalsMonConfig                       
007fd8a0  MmwaveLink_setRfGpadcIntAnaSignalsMonConfig                  
007fd920  MmwaveLink_setRfPllContrlVoltMonConfig                       
007fd9a0  MmwaveLink_setRfPmClkLoIntAnaSignalsMonConfig                
007fda20  MmwaveLink_setRfRxGainPhaMonConfig                           
007fdaa0  MmwaveLink_setRfRxIfSatMonConfig                             
007fdb20  MmwaveLink_setRfRxIfStageMonConfig                           
007fdba0  MmwaveLink_setRfRxIntAnaSignalMonConfig                      
007fdc20  MmwaveLink_setRfRxNoiseMonConfig                             
007fdca0  MmwaveLink_setRfRxSigImgMonConfig                            
007fdd20  MmwaveLink_setRfSynthFreqMonConfig                           
007fc180  MmwaveLink_setRfSynthFreqNonLiveMonConfig                    
007fdda0  MmwaveLink_setRfTempMonConfig                                
007fde20  MmwaveLink_setRfTxBallbreakMonConfig                         
007fdea0  MmwaveLink_setRfTxBpmMonConfig                               
007fdf20  MmwaveLink_setRfTxGainPhaseMismatchMonConfig                 
007fdfa0  MmwaveLink_setRfTxIntAnaSignalMonConfig                      
007fe020  MmwaveLink_setRfTxPowMonConfig                               
007fe0a0  MmwaveLink_setRunTimeCalibConfig                             
007e83e0  MmwaveLink_startDfpTest                                      
0080c1a0  MmwaveLink_unmaskHostIRQ                                     
007f8600  MmwaveLink_verifyDccClockFreqRep                             
007f8700  MmwaveLink_verifyDigLatFaultRep                              
007f8800  MmwaveLink_verifyDigPeriodicRep                              
007f06c0  MmwaveLink_verifyExtAnalogSigRep                             
007f4780  MmwaveLink_verifyIntGpadcSigRep                              
007f9f00  MmwaveLink_verifyIntPmClkLoSigRep                            
007e9f60  MmwaveLink_verifyPllControlRep                               
007fe120  MmwaveLink_verifyRepHeader                                   
007e21e0  MmwaveLink_verifyReportCount                                 
007ea2e0  MmwaveLink_verifyRfSynthFreqNonLiveRep                       
007ef2e0  MmwaveLink_verifyRfSynthFreqRep                              
007f08c0  MmwaveLink_verifyRfTxIntAnaSignals                           
007f9fe0  MmwaveLink_verifyRunTimeCalibRep                             
007e87e0  MmwaveLink_verifyRxGainPhRep                                 
007ea9c0  MmwaveLink_verifyRxIfStageRep                                
007f6780  MmwaveLink_verifyRxIntAnaSigRep                              
007ec5a0  MmwaveLink_verifyRxMixInpPowerRep                            
007f3100  MmwaveLink_verifyRxNoiseFigRep                               
007f0ac0  MmwaveLink_verifyTemperatureRep                              
007f12c0  MmwaveLink_verifyTxBallBreak                                 
007edb00  MmwaveLink_verifyTxBpm                                       
007e93e0  MmwaveLink_verifyTxGainPhaseRep                              
007eb3e0  MmwaveLink_verifyTxPower                                     
0080c1c0  Mmwavelink_chirpAvailInterrupCallBackFunc                    
0080c1e0  Mmwavelink_frameInterrupCallBackFunc                         
007ff340  Osal_mutexCreate                                             
0080c200  Osal_mutexDelete                                             
0080c220  Osal_mutexLock                                               
0080c240  Osal_mutexUnlock                                             
007ff3a0  Osal_semCreate                                               
0080c260  Osal_semDelete                                               
0080c280  Osal_semSignal                                               
0080c2a0  Osal_semWait                                                 
007fc220  SOC_SystemISR                                                
007f8900  SOC_deviceInit                                               
007f78e0  SOC_gateClock                                                
007f68c0  SOC_init                                                     
007f5320  SOC_registerSysIntListener                                   
007f5480  SOC_ungateClock                                              
007ff400  SOC_unhaltBSS                                                
0080c2c0  SemaphoreP_Params_init                                       
007fe1a0  SemaphoreP_create                                            
0080c2e0  SemaphoreP_delete                                            
0080c300  SemaphoreP_pend                                              
0080c320  SemaphoreP_post                                              
0080c320  SemaphoreP_postFromClock                                     
0080c320  SemaphoreP_postFromISR                                       
0080c340  _DebugP_assert                                               
00000000  __ASM__                                                      
00818438  __CIOBUF_                                                    
00000088  __ISA__                                                      
000000a0  __PLAT__                                                     
000000c0  __TARG__                                                     
UNDEFED   __TI_CINIT_Base                                              
UNDEFED   __TI_CINIT_Limit                                             
UNDEFED   __TI_Handler_Table_Base                                      
UNDEFED   __TI_Handler_Table_Limit                                     
UNDEFED   __TI_INITARRAY_Base                                          
UNDEFED   __TI_INITARRAY_Limit                                         
008181e0  __TI_STACK_END                                               
00001000  __TI_STACK_SIZE                                              
00818558  __TI_STATIC_BASE                                             
UNDEFED   __TI_TLS_INIT_Base                                           
UNDEFED   __TI_TLS_INIT_Limit                                          
007fc2c0  __TI_cleanup                                                 
00817154  __TI_cleanup_ptr                                             
007f8a00  __TI_closefile                                               
007fc360  __TI_doflush                                                 
00817158  __TI_dtors_ptr                                               
0081715c  __TI_enable_exit_profile_output                              
0080b580  __TI_frcmpyd_div                                             
00817094  __TI_ft_end                                                  
007fa0c0  __TI_ltoa                                                    
ffffffff  __TI_pprof_out_hndl                                          
007e0200  __TI_printfi                                                 
ffffffff  __TI_prof_data_size                                          
ffffffff  __TI_prof_data_start                                         
007fe220  __TI_readmsg                                                 
007fb9a0  __TI_tls_init                                                
00815508  __TI_tmpnams                                                 
007ff460  __TI_writemsg                                                
007fa1a0  __TI_wrt_ok                                                  
000000e8  __TRDR__                                                     
ffffffff  __binit__                                                    
007e60a0  __c6xabi_divd                                                
007fa280  __c6xabi_divi                                                
007fb160  __c6xabi_divu                                                
007f2180  __c6xabi_divul                                               
007ee260  __c6xabi_divull                                              
0080c360  __c6xabi_errno_addr                                          
0080b5c0  __c6xabi_isinf                                               
007fe2a0  __c6xabi_llshl                                               
007ff4c0  __c6xabi_llshru                                              
0080c380  __c6xabi_pop_rts                                             
0080c3a0  __c6xabi_push_rts                                            
007fb220  __c6xabi_remi                                                
007fc400  __c6xabi_remu                                                
0080b640  __c6xabi_strasgi_64plus                                      
ffffffff  __c_args__                                                   
007fa280  __divi                                                       
007fb160  __divu                                                       
008171c0  __errno                                                      
0080c380  __pop_rts                                                    
0080c3a0  __push_rts                                                   
007fb220  __remi                                                       
007fc400  __remu                                                       
0080b640  __strasgi_64plus                                             
0080b680  _args_main                                                   
007f7a00  _auto_init_elf                                               
007fc4a0  _c_int00                                                     
00813798  _ctypes_                                                     
00816c70  _device                                                      
008166f0  _ftable                                                      
00816d54  _lock                                                        
0080c3c0  _nop                                                         
0080c440  _register_lock                                               
0080c460  _register_unlock                                             
0080c480  _signbit                                                     
008171e0  _stack                                                       
00816ad0  _stream                                                      
007ff520  _subcull                                                     
00816e04  _unlock                                                      
0080c4c0  abort                                                        
00815da0  adcOutCfgArgs                                                
2000122c  adcOutCfgArgs_001                                            
2000252c  adcOutCfgArgs_002                                            
200037ec  adcOutCfgArgs_003                                            
20004aac  adcOutCfgArgs_004                                            
20005d6c  adcOutCfgArgs_005                                            
2000702c  adcOutCfgArgs_006                                            
200082ec  adcOutCfgArgs_007                                            
200095ac  adcOutCfgArgs_008                                            
2000a86c  adcOutCfgArgs_009                                            
2000bb2c  adcOutCfgArgs_010                                            
00818558  adcbufHandle                                                 
008157e8  advFrameCfg                                                  
20000c98  advFrameCfg_001                                              
20001f98  advFrameCfg_002                                              
20003258  advFrameCfg_003                                              
20004518  advFrameCfg_004                                              
200057d8  advFrameCfg_005                                              
20006a98  advFrameCfg_006                                              
20007d58  advFrameCfg_007                                              
20009018  advFrameCfg_008                                              
2000a2d8  advFrameCfg_009                                              
2000b598  advFrameCfg_010                                              
00815ce0  allTxBallbreakMonCfg                                         
20001178  allTxBallbreakMonCfg_001                                     
20002478  allTxBallbreakMonCfg_002                                     
20003738  allTxBallbreakMonCfg_003                                     
200049f8  allTxBallbreakMonCfg_004                                     
20005cb8  allTxBallbreakMonCfg_005                                     
20006f78  allTxBallbreakMonCfg_006                                     
20008238  allTxBallbreakMonCfg_007                                     
200094f8  allTxBallbreakMonCfg_008                                     
2000a7b8  allTxBallbreakMonCfg_009                                     
2000ba78  allTxBallbreakMonCfg_010                                     
00815cec  allTxBpmMonCfg                                               
20001184  allTxBpmMonCfg_001                                           
20002484  allTxBpmMonCfg_002                                           
20003744  allTxBpmMonCfg_003                                           
20004a04  allTxBpmMonCfg_004                                           
20005cc4  allTxBpmMonCfg_005                                           
20006f84  allTxBpmMonCfg_006                                           
20008244  allTxBpmMonCfg_007                                           
20009504  allTxBpmMonCfg_008                                           
2000a7c4  allTxBpmMonCfg_009                                           
2000ba84  allTxBpmMonCfg_010                                           
00815cf8  allTxPowMonCfg                                               
20001190  allTxPowMonCfg_001                                           
20002490  allTxPowMonCfg_002                                           
20003750  allTxPowMonCfg_003                                           
20004a10  allTxPowMonCfg_004                                           
20005cd0  allTxPowMonCfg_005                                           
20006f90  allTxPowMonCfg_006                                           
20008250  allTxPowMonCfg_007                                           
20009510  allTxPowMonCfg_008                                           
2000a7d0  allTxPowMonCfg_009                                           
2000ba90  allTxPowMonCfg_010                                           
00815d04  allTxanaSigMonCfg                                            
2000119c  allTxanaSigMonCfg_001                                        
2000249c  allTxanaSigMonCfg_002                                        
2000375c  allTxanaSigMonCfg_003                                        
20004a1c  allTxanaSigMonCfg_004                                        
20005cdc  allTxanaSigMonCfg_005                                        
20006f9c  allTxanaSigMonCfg_006                                        
2000825c  allTxanaSigMonCfg_007                                        
2000951c  allTxanaSigMonCfg_008                                        
2000a7dc  allTxanaSigMonCfg_009                                        
2000ba9c  allTxanaSigMonCfg_010                                        
007f8c00  atoi                                                         
ffffffff  binit                                                        
00815a08  bpmChirpCfg                                                  
20000eb8  bpmChirpCfg_001                                              
200021b8  bpmChirpCfg_002                                              
20003478  bpmChirpCfg_003                                              
20004738  bpmChirpCfg_004                                              
200059f8  bpmChirpCfg_005                                              
20006cb8  bpmChirpCfg_006                                              
20007f78  bpmChirpCfg_007                                              
20009238  bpmChirpCfg_008                                              
2000a4f8  bpmChirpCfg_009                                              
2000b7b8  bpmChirpCfg_010                                              
00815c50  bpmCommonCfg                                                 
200010e8  bpmCommonCfg_001                                             
200023e8  bpmCommonCfg_002                                             
200036a8  bpmCommonCfg_003                                             
20004968  bpmCommonCfg_004                                             
20005c28  bpmCommonCfg_005                                             
20006ee8  bpmCommonCfg_006                                             
200081a8  bpmCommonCfg_007                                             
20009468  bpmCommonCfg_008                                             
2000a728  bpmCommonCfg_009                                             
2000b9e8  bpmCommonCfg_010                                             
00815da8  calMonTimeUnitConf                                           
20001234  calMonTimeUnitConf_001                                       
20002534  calMonTimeUnitConf_002                                       
200037f4  calMonTimeUnitConf_003                                       
20004ab4  calMonTimeUnitConf_004                                       
20005d74  calMonTimeUnitConf_005                                       
20007034  calMonTimeUnitConf_006                                       
200082f4  calMonTimeUnitConf_007                                       
200095b4  calMonTimeUnitConf_008                                       
2000a874  calMonTimeUnitConf_009                                       
2000bb34  calMonTimeUnitConf_010                                       
00815db0  chCfg                                                        
2000123c  chCfg_001                                                    
2000253c  chCfg_002                                                    
200037fc  chCfg_003                                                    
20004abc  chCfg_004                                                    
20005d7c  chCfg_005                                                    
2000703c  chCfg_006                                                    
200082fc  chCfg_007                                                    
200095bc  chCfg_008                                                    
2000a87c  chCfg_009                                                    
2000bb3c  chCfg_010                                                    
00815378  chirpCfg                                                     
20000968  chirpCfg_001                                                 
20001c68  chirpCfg_002                                                 
20002f28  chirpCfg_003                                                 
200041e8  chirpCfg_004                                                 
200054a8  chirpCfg_005                                                 
20006768  chirpCfg_006                                                 
20007a28  chirpCfg_007                                                 
20008ce8  chirpCfg_008                                                 
20009fa8  chirpCfg_009                                                 
2000b268  chirpCfg_010                                                 
007fa360  close                                                        
00815c00  contModeCfg                                                  
20001098  contModeCfg_001                                              
20002398  contModeCfg_002                                              
20003658  contModeCfg_003                                              
20004918  contModeCfg_004                                              
20005bd8  contModeCfg_005                                              
20006e98  contModeCfg_006                                              
20008158  contModeCfg_007                                              
20009418  contModeCfg_008                                              
2000a6d8  contModeCfg_009                                              
2000b998  contModeCfg_010                                              
00815e10  contModeEn                                                   
20001294  contModeEn_001                                               
20002594  contModeEn_002                                               
20003854  contModeEn_003                                               
20004b14  contModeEn_004                                               
20005dd4  contModeEn_005                                               
20007094  contModeEn_006                                               
20008354  contModeEn_007                                               
20009614  contModeEn_008                                               
2000a8d4  contModeEn_009                                               
2000bb94  contModeEn_010                                               
00818581  cpTestStatus                                                 
00818580  cqTestStatus                                                 
00815e14  deviceHsiClk                                                 
20001298  deviceHsiClk_001                                             
20002598  deviceHsiClk_002                                             
20003858  deviceHsiClk_003                                             
20004b18  deviceHsiClk_004                                             
20005dd8  deviceHsiClk_005                                             
20007098  deviceHsiClk_006                                             
20008358  deviceHsiClk_007                                             
20009618  deviceHsiClk_008                                             
2000a8d8  deviceHsiClk_009                                             
2000bb98  deviceHsiClk_010                                             
00818568  deviceVariant                                                
20000000  dfpTestLoadCfg_001                                           
20001300  dfpTestLoadCfg_002                                           
200025c0  dfpTestLoadCfg_003                                           
20003880  dfpTestLoadCfg_004                                           
20004b40  dfpTestLoadCfg_005                                           
20005e00  dfpTestLoadCfg_006                                           
200070c0  dfpTestLoadCfg_007                                           
20008380  dfpTestLoadCfg_008                                           
20009640  dfpTestLoadCfg_009                                           
2000a900  dfpTestLoadCfg_010                                           
00815db8  dualClkCompMonCfg                                            
20001244  dualClkCompMonCfg_001                                        
20002544  dualClkCompMonCfg_002                                        
20003804  dualClkCompMonCfg_003                                        
20004ac4  dualClkCompMonCfg_004                                        
20005d84  dualClkCompMonCfg_005                                        
20007044  dualClkCompMonCfg_006                                        
20008304  dualClkCompMonCfg_007                                        
200095c4  dualClkCompMonCfg_008                                        
2000a884  dualClkCompMonCfg_009                                        
2000bb44  dualClkCompMonCfg_010                                        
00815170  dynPhaseShiftCfg                                             
20000760  dynPhaseShiftCfg_001                                         
20001a60  dynPhaseShiftCfg_002                                         
20002d20  dynPhaseShiftCfg_003                                         
20003fe0  dynPhaseShiftCfg_004                                         
200052a0  dynPhaseShiftCfg_005                                         
20006560  dynPhaseShiftCfg_006                                         
20007820  dynPhaseShiftCfg_007                                         
20008ae0  dynPhaseShiftCfg_008                                         
20009da0  dynPhaseShiftCfg_009                                         
2000b060  dynPhaseShiftCfg_010                                         
00815e18  dynPwrSave                                                   
2000129c  dynPwrSave_001                                               
2000259c  dynPwrSave_002                                               
2000385c  dynPwrSave_003                                               
20004b1c  dynPwrSave_004                                               
20005ddc  dynPwrSave_005                                               
2000709c  dynPwrSave_006                                               
2000835c  dynPwrSave_007                                               
2000961c  dynPwrSave_008                                               
2000a8dc  dynPwrSave_009                                               
2000bb9c  dynPwrSave_010                                               
0081857d  eDMADataTransferDone                                         
008171c0  errno                                                        
007fa440  exit                                                         
00815b64  extAnaSigMonCfg                                              
20001014  extAnaSigMonCfg_001                                          
20002314  extAnaSigMonCfg_002                                          
200035d4  extAnaSigMonCfg_003                                          
20004894  extAnaSigMonCfg_004                                          
20005b54  extAnaSigMonCfg_005                                          
20006e14  extAnaSigMonCfg_006                                          
200080d4  extAnaSigMonCfg_007                                          
20009394  extAnaSigMonCfg_008                                          
2000a654  extAnaSigMonCfg_009                                          
2000b914  extAnaSigMonCfg_010                                          
007f8d00  fflush                                                       
007fc680  finddevice                                                   
007f2340  fputc                                                        
007eb720  fputs                                                        
00815ba0  frameCfg                                                     
20001050  frameCfg_001                                                 
20002350  frameCfg_002                                                 
20003610  frameCfg_003                                                 
200048d0  frameCfg_004                                                 
20005b90  frameCfg_005                                                 
20006e50  frameCfg_006                                                 
20008110  frameCfg_007                                                 
200093d0  frameCfg_008                                                 
2000a690  frameCfg_009                                                 
2000b950  frameCfg_010                                                 
0080b780  free                                                         
00815d10  freqLimit                                                    
200011a8  freqLimit_001                                                
200024a8  freqLimit_002                                                
20003768  freqLimit_003                                                
20004a28  freqLimit_004                                                
20005ce8  freqLimit_005                                                
20006fa8  freqLimit_006                                                
20008268  freqLimit_007                                                
20009528  freqLimit_008                                                
2000a7e8  freqLimit_009                                                
2000baa8  freqLimit_010                                                
007f2500  frexp                                                        
007f2500  frexpl                                                       
007f8e00  fseek                                                        
0081446c  gADCBufFxnTable                                              
00814620  gADCBufHwCfg                                                 
0081859c  gCRCRegister                                                 
00818570  gFrameStartStatus                                            
0081856c  gInitTimeCalibStatus                                         
00818596  gIwrDeviceFlag                                               
0081855c  gLatentFaultReportReceived                                   
008185a0  gMCPILogMessageSize                                          
008170b0  gMailboxDssBssHwCfg                                          
008170c8  gMailboxDssMssHwCfg                                          
00816db4  gMailboxMCB                                                  
00815bb8  gMmwaveLinkMCB                                               
00818574  gMmwlChecksumFailAsyncEvent                                  
00818578  gMmwlCrcFailAsyncEvent                                       
00816238  gMonDataAeStrct                                              
00818594  gNumberOfFrames                                              
00817018  gSOCHwAttrib                                                 
00818560  gSensorStopSem                                               
00815d1c  gTestMCB                                                     
008158a0  gTestMiscCfg                                                 
20000d50  gTestMiscCfg_001                                             
20002050  gTestMiscCfg_002                                             
20003310  gTestMiscCfg_003                                             
200045d0  gTestMiscCfg_004                                             
20005890  gTestMiscCfg_005                                             
20006b50  gTestMiscCfg_006                                             
20007e10  gTestMiscCfg_007                                             
200090d0  gTestMiscCfg_008                                             
2000a390  gTestMiscCfg_009                                             
2000b650  gTestMiscCfg_010                                             
00818590  gTestNumber                                                  
00815648  gTestStartStopCfg                                            
20000af8  gTestStartStopCfg_001                                        
20001df8  gTestStartStopCfg_002                                        
200030b8  gTestStartStopCfg_003                                        
20004378  gTestStartStopCfg_004                                        
20005638  gTestStartStopCfg_005                                        
200068f8  gTestStartStopCfg_006                                        
20007bb8  gTestStartStopCfg_007                                        
20008e78  gTestStartStopCfg_008                                        
2000a138  gTestStartStopCfg_009                                        
2000b3f8  gTestStartStopCfg_010                                        
00818564  g_MailboxInterruptFunc                                       
007f7c40  getdevice                                                    
00815b84  gpAdcCfg                                                     
20001034  gpAdcCfg_001                                                 
20002334  gpAdcCfg_002                                                 
200035f4  gpAdcCfg_003                                                 
200048b4  gpAdcCfg_004                                                 
20005b74  gpAdcCfg_005                                                 
20006e34  gpAdcCfg_006                                                 
200080f4  gpAdcCfg_007                                                 
200093b4  gpAdcCfg_008                                                 
2000a674  gpAdcCfg_009                                                 
2000b934  gpAdcCfg_010                                                 
00815dc0  gpadcIntAnaSigMonCfg                                         
2000124c  gpadcIntAnaSigMonCfg_001                                     
2000254c  gpadcIntAnaSigMonCfg_002                                     
2000380c  gpadcIntAnaSigMonCfg_003                                     
20004acc  gpadcIntAnaSigMonCfg_004                                     
20005d8c  gpadcIntAnaSigMonCfg_005                                     
2000704c  gpadcIntAnaSigMonCfg_006                                     
2000830c  gpadcIntAnaSigMonCfg_007                                     
200095cc  gpadcIntAnaSigMonCfg_008                                     
2000a88c  gpadcIntAnaSigMonCfg_009                                     
2000bb4c  gpadcIntAnaSigMonCfg_010                                     
0081857e  hit_count                                                    
00815bd0  interRxGainPhCfg                                             
20001068  interRxGainPhCfg_001                                         
20002368  interRxGainPhCfg_002                                         
20003628  interRxGainPhCfg_003                                         
200048e8  interRxGainPhCfg_004                                         
20005ba8  interRxGainPhCfg_005                                         
20006e68  interRxGainPhCfg_006                                         
20008128  interRxGainPhCfg_007                                         
200093e8  interRxGainPhCfg_008                                         
2000a6a8  interRxGainPhCfg_009                                         
2000b968  interRxGainPhCfg_010                                         
0081857c  isGetGpAdcMeasData                                           
007f26c0  ldexp                                                        
007f26c0  ldexpl                                                       
00815e1c  lowPowerModeCfg                                              
200012a0  lowPowerModeCfg_001                                          
200025a0  lowPowerModeCfg_002                                          
20003860  lowPowerModeCfg_003                                          
20004b20  lowPowerModeCfg_004                                          
20005de0  lowPowerModeCfg_005                                          
200070a0  lowPowerModeCfg_006                                          
20008360  lowPowerModeCfg_007                                          
20009620  lowPowerModeCfg_008                                          
2000a8e0  lowPowerModeCfg_009                                          
2000bba0  lowPowerModeCfg_010                                          
007ff640  lseek                                                        
007ee4c0  main                                                         
007fec20  malloc                                                       
007ff6a0  memccpy                                                      
007fc720  memcpy                                                       
007fa520  memset                                                       
00815dc8  miscCfg                                                      
20001254  miscCfg_001                                                  
20002554  miscCfg_002                                                  
20003814  miscCfg_003                                                  
20004ad4  miscCfg_004                                                  
20005d94  miscCfg_005                                                  
20007054  miscCfg_006                                                  
20008314  miscCfg_007                                                  
200095d4  miscCfg_008                                                  
2000a894  miscCfg_009                                                  
2000bb54  miscCfg_010                                                  
00816e08  monAeCnt                                                     
00815dd0  monAnaEnables                                                
2000125c  monAnaEnables_001                                            
2000255c  monAnaEnables_002                                            
2000381c  monAnaEnables_003                                            
20004adc  monAnaEnables_004                                            
20005d9c  monAnaEnables_005                                            
2000705c  monAnaEnables_006                                            
2000831c  monAnaEnables_007                                            
200095dc  monAnaEnables_008                                            
2000a89c  monAnaEnables_009                                            
2000bb5c  monAnaEnables_010                                            
00815d28  monDigEnables                                                
200011b4  monDigEnables_001                                            
200024b4  monDigEnables_002                                            
20003774  monDigEnables_003                                            
20004a34  monDigEnables_004                                            
20005cf4  monDigEnables_005                                            
20006fb4  monDigEnables_006                                            
20008274  monDigEnables_007                                            
20009534  monDigEnables_008                                            
2000a7f4  monDigEnables_009                                            
2000bab4  monDigEnables_010                                            
00815d34  monDigPeriodicCfg                                            
200011c0  monDigPeriodicCfg_001                                        
200024c0  monDigPeriodicCfg_002                                        
20003780  monDigPeriodicCfg_003                                        
20004a40  monDigPeriodicCfg_004                                        
20005d00  monDigPeriodicCfg_005                                        
20006fc0  monDigPeriodicCfg_006                                        
20008280  monDigPeriodicCfg_007                                        
20009540  monDigPeriodicCfg_008                                        
2000a800  monDigPeriodicCfg_009                                        
2000bac0  monDigPeriodicCfg_010                                        
00815c60  monRxIfStageCfg                                              
200010f8  monRxIfStageCfg_001                                          
200023f8  monRxIfStageCfg_002                                          
200036b8  monRxIfStageCfg_003                                          
20004978  monRxIfStageCfg_004                                          
20005c38  monRxIfStageCfg_005                                          
20006ef8  monRxIfStageCfg_006                                          
200081b8  monRxIfStageCfg_007                                          
20009478  monRxIfStageCfg_008                                          
2000a738  monRxIfStageCfg_009                                          
2000b9f8  monRxIfStageCfg_010                                          
00818569  monTestPassFlag                                              
00815dd8  parmbuf                                                      
00815c70  phaseShiftCfg                                                
20001108  phaseShiftCfg_001                                            
20002408  phaseShiftCfg_002                                            
200036c8  phaseShiftCfg_003                                            
20004988  phaseShiftCfg_004                                            
20005c48  phaseShiftCfg_005                                            
20006f08  phaseShiftCfg_006                                            
200081c8  phaseShiftCfg_007                                            
20009488  phaseShiftCfg_008                                            
2000a748  phaseShiftCfg_009                                            
2000ba08  phaseShiftCfg_010                                            
00815de0  pllConVoltMonCfg                                             
20001264  pllConVoltMonCfg_001                                         
20002564  pllConVoltMonCfg_002                                         
20003824  pllConVoltMonCfg_003                                         
20004ae4  pllConVoltMonCfg_004                                         
20005da4  pllConVoltMonCfg_005                                         
20007064  pllConVoltMonCfg_006                                         
20008324  pllConVoltMonCfg_007                                         
200095e4  pllConVoltMonCfg_008                                         
2000a8a4  pllConVoltMonCfg_009                                         
2000bb64  pllConVoltMonCfg_010                                         
00815de8  pmClkLoIntAnaSigMonCfg                                       
2000126c  pmClkLoIntAnaSigMonCfg_001                                   
2000256c  pmClkLoIntAnaSigMonCfg_002                                   
2000382c  pmClkLoIntAnaSigMonCfg_003                                   
20004aec  pmClkLoIntAnaSigMonCfg_004                                   
20005dac  pmClkLoIntAnaSigMonCfg_005                                   
2000706c  pmClkLoIntAnaSigMonCfg_006                                   
2000832c  pmClkLoIntAnaSigMonCfg_007                                   
200095ec  pmClkLoIntAnaSigMonCfg_008                                   
2000a8ac  pmClkLoIntAnaSigMonCfg_009                                   
2000bb6c  pmClkLoIntAnaSigMonCfg_010                                   
007fa600  printf                                                       
00815958  profileCfg                                                   
20000e08  profileCfg_001                                               
20002108  profileCfg_002                                               
200033c8  profileCfg_003                                               
20004688  profileCfg_004                                               
20005948  profileCfg_005                                               
20006c08  profileCfg_006                                               
20007ec8  profileCfg_007                                               
20009188  profileCfg_008                                               
2000a448  profileCfg_009                                               
2000b708  profileCfg_010                                               
00815e20  progFiltCfg                                                  
200012a4  progFiltCfg_001                                              
200025a4  progFiltCfg_002                                              
20003864  progFiltCfg_003                                              
20004b24  progFiltCfg_004                                              
20005de4  progFiltCfg_005                                              
200070a4  progFiltCfg_006                                              
20008364  progFiltCfg_007                                              
20009624  progFiltCfg_008                                              
2000a8e4  progFiltCfg_009                                              
2000bba4  progFiltCfg_010                                              
00815718  progFiltCoef                                                 
20000bc8  progFiltCoef_001                                             
20001ec8  progFiltCoef_002                                             
20003188  progFiltCoef_003                                             
20004448  progFiltCoef_004                                             
20005708  progFiltCoef_005                                             
200069c8  progFiltCoef_006                                             
20007c88  progFiltCoef_007                                             
20008f48  progFiltCoef_008                                             
2000a208  progFiltCoef_009                                             
2000b4c8  progFiltCoef_010                                             
007f2340  putc                                                         
0080c4e0  putchar                                                      
00816e58  rcvGpAdcData                                                 
007fed20  remove                                                       
00816f94  retryNegativeTestCfg                                         
00817148  rfDevCfg                                                     
00815d40  rfInitCalib                                                  
200011cc  rfInitCalib_001                                              
200024cc  rfInitCalib_002                                              
2000378c  rfInitCalib_003                                              
20004a4c  rfInitCalib_004                                              
20005d0c  rfInitCalib_005                                              
20006fcc  rfInitCalib_006                                              
2000828c  rfInitCalib_007                                              
2000954c  rfInitCalib_008                                              
2000a80c  rfInitCalib_009                                              
2000bacc  rfInitCalib_010                                              
00815e24  rfLdoBypassCfg                                               
200012a8  rfLdoBypassCfg_001                                           
200025a8  rfLdoBypassCfg_002                                           
20003868  rfLdoBypassCfg_003                                           
20004b28  rfLdoBypassCfg_004                                           
20005de8  rfLdoBypassCfg_005                                           
200070a8  rfLdoBypassCfg_006                                           
20008368  rfLdoBypassCfg_007                                           
20009628  rfLdoBypassCfg_008                                           
2000a8e8  rfLdoBypassCfg_009                                           
2000bba8  rfLdoBypassCfg_010                                           
0080b7c0  rlAppendDummy                                                
007fc7c0  rlAppendSubBlock                                             
007ff700  rlDeviceGetMssVersion                                        
0080b800  rlDeviceGetRfVersion                                         
007f8f00  rlDeviceGetVersion                                           
007fe420  rlDeviceIdentifyCmdDir                                       
007f9000  rlDevicePowerOff                                             
007f6a00  rlDevicePowerOn                                              
007ff760  rlDeviceSetHsiClk                                            
007f7d60  rlDriverAsyncEventHandler                                    
007fb2e0  rlDriverCalChkSum                                            
007ec860  rlDriverCmdInvoke                                            
007ebd20  rlDriverCmdSendRetry                                         
007ff7c0  rlDriverConstructInMsg                                       
0080c500  rlDriverConstructOutMsg                                      
007f32a0  rlDriverDeInit                                               
007fb3a0  rlDriverExecuteGetApi                                        
007fb460  rlDriverExecuteSetApi                                        
0080b840  rlDriverFillPayload                                          
0080c520  rlDriverGetHandle                                            
0080c540  rlDriverGetPlatformId                                        
007fa6e0  rlDriverHostIrqHandler                                       
007ee720  rlDriverInit                                                 
0080c560  rlDriverIsDeviceMapValid                                     
007f2880  rlDriverMsgCmdReply                                          
007ead20  rlDriverMsgRead                                              
007f55e0  rlDriverMsgReadCmdCtx                                        
007f6b40  rlDriverMsgReadSpawnCtx                                      
007f3440  rlDriverMsgWrite                                             
007fe4a0  rlDriverOsiInit                                              
007f7e80  rlDriverProcRdMsg                                            
007f14a0  rlDriverRdVerifyMsg                                          
007e8fe0  rlDriverRxHdrRead                                            
007fa7c0  rlDriverValidateHdr                                          
007fc860  rlDriverVerifyCRC                                            
007f5740  rlDriverWaitForResponse                                      
007f58a0  rlGetAdvFrameConfig                                          
007f35e0  rlGetFrameConfig                                             
007f6c80  rlGetProfileConfig                                           
0080b880  rlGetRfBootupStatus                                          
007fb520  rlGetSubBlock                                                
0080c580  rlGetSubBlockId                                              
0080c5a0  rlGetSubBlockLen                                             
007ff820  rlRfAnaMonConfig                                             
007ff880  rlRfDigMonEnableConfig                                       
007ff8e0  rlRfDigMonPeriodicConfig                                     
007ff940  rlRfDualClkCompMonConfig                                     
007ff9a0  rlRfExtAnaSignalsMonConfig                                   
007ffa00  rlRfGpadcIntAnaSignalsMonConfig                              
0080b8c0  rlRfInit                                                     
007ffa60  rlRfInitCalibConfig                                          
007ffac0  rlRfPllContrlVoltMonConfig                                   
007ffb20  rlRfPmClkLoIntAnaSignalsMonConfig                            
007ffb80  rlRfRunTimeCalibConfig                                       
007ffbe0  rlRfRxGainPhMonConfig                                        
007ffc40  rlRfRxIfSatMonConfig                                         
007ffca0  rlRfRxIfStageMonConfig                                       
007ffd00  rlRfRxIntAnaSignalsMonConfig                                 
007ffd60  rlRfRxMixerInPwrConfig                                       
007ffdc0  rlRfRxNoiseMonConfig                                         
007ffe20  rlRfRxSigImgMonConfig                                        
007ffe80  rlRfSetCalMonFreqLimitConfig                                 
007ffee0  rlRfSetCalMonTimeUnitConfig                                  
0080a400  rlRfSetDeviceCfg                                             
0080a460  rlRfSetLdoBypassConfig                                       
0080a4c0  rlRfSynthFreqMonConfig                                       
0080a520  rlRfTempMonConfig                                            
007f5a00  rlRfTxBallbreakMonConfig                                     
007f5b60  rlRfTxBpmMonConfig                                           
0080a580  rlRfTxGainPhaseMismatchMonConfig                             
007f5cc0  rlRfTxIntAnaSignalsMonConfig                                 
007f5e20  rlRfTxPowrMonConfig                                          
0080a5e0  rlSensorStart                                                
0080a640  rlSetAdcOutConfig                                            
007f6dc0  rlSetAdvFrameConfig                                          
0080a6a0  rlSetBpmChirpConfig                                          
0080a700  rlSetBpmCommonConfig                                         
0080a760  rlSetChannelConfig                                           
007f3780  rlSetChirpConfig                                             
007f5f80  rlSetFrameConfig                                             
0080a7c0  rlSetGpAdcConfig                                             
0080a820  rlSetLowPowerModeConfig                                      
007f4900  rlSetProfileConfig                                           
008168d0  rl_rxMsg                                                     
008169d0  rl_txMsg                                                     
00815c14  runTimeCalib                                                 
200010ac  runTimeCalib_001                                             
200023ac  runTimeCalib_002                                             
2000366c  runTimeCalib_003                                             
2000492c  runTimeCalib_004                                             
20005bec  runTimeCalib_005                                             
20006eac  runTimeCalib_006                                             
2000816c  runTimeCalib_007                                             
2000942c  runTimeCalib_008                                             
2000a6ec  runTimeCalib_009                                             
2000b9ac  runTimeCalib_010                                             
00815aa8  rxGainPhaseMonCfg                                            
20000f58  rxGainPhaseMonCfg_001                                        
20002258  rxGainPhaseMonCfg_002                                        
20003518  rxGainPhaseMonCfg_003                                        
200047d8  rxGainPhaseMonCfg_004                                        
20005a98  rxGainPhaseMonCfg_005                                        
20006d58  rxGainPhaseMonCfg_006                                        
20008018  rxGainPhaseMonCfg_007                                        
200092d8  rxGainPhaseMonCfg_008                                        
2000a598  rxGainPhaseMonCfg_009                                        
2000b858  rxGainPhaseMonCfg_010                                        
00815e28  rxGainTempLutReadCfg                                         
200012ac  rxGainTempLutReadCfg_001                                     
200025ac  rxGainTempLutReadCfg_002                                     
2000386c  rxGainTempLutReadCfg_003                                     
20004b2c  rxGainTempLutReadCfg_004                                     
20005dec  rxGainTempLutReadCfg_005                                     
200070ac  rxGainTempLutReadCfg_006                                     
2000836c  rxGainTempLutReadCfg_007                                     
2000962c  rxGainTempLutReadCfg_008                                     
2000a8ec  rxGainTempLutReadCfg_009                                     
2000bbac  rxGainTempLutReadCfg_010                                     
00815df0  rxIntAnaSigMonCfg                                            
20001274  rxIntAnaSigMonCfg_001                                        
20002574  rxIntAnaSigMonCfg_002                                        
20003834  rxIntAnaSigMonCfg_003                                        
20004af4  rxIntAnaSigMonCfg_004                                        
20005db4  rxIntAnaSigMonCfg_005                                        
20007074  rxIntAnaSigMonCfg_006                                        
20008334  rxIntAnaSigMonCfg_007                                        
200095f4  rxIntAnaSigMonCfg_008                                        
2000a8b4  rxIntAnaSigMonCfg_009                                        
2000bb74  rxIntAnaSigMonCfg_010                                        
00815d4c  rxMixInpwrMonCfg                                             
200011d8  rxMixInpwrMonCfg_001                                         
200024d8  rxMixInpwrMonCfg_002                                         
20003798  rxMixInpwrMonCfg_003                                         
20004a58  rxMixInpwrMonCfg_004                                         
20005d18  rxMixInpwrMonCfg_005                                         
20006fd8  rxMixInpwrMonCfg_006                                         
20008298  rxMixInpwrMonCfg_007                                         
20009558  rxMixInpwrMonCfg_008                                         
2000a818  rxMixInpwrMonCfg_009                                         
2000bad8  rxMixInpwrMonCfg_010                                         
00815d58  rxNoiseMonCfg                                                
200011e4  rxNoiseMonCfg_001                                            
200024e4  rxNoiseMonCfg_002                                            
200037a4  rxNoiseMonCfg_003                                            
20004a64  rxNoiseMonCfg_004                                            
20005d24  rxNoiseMonCfg_005                                            
20006fe4  rxNoiseMonCfg_006                                            
200082a4  rxNoiseMonCfg_007                                            
20009564  rxNoiseMonCfg_008                                            
2000a824  rxNoiseMonCfg_009                                            
2000bae4  rxNoiseMonCfg_010                                            
00815c28  rxSatMonCfg                                                  
200010c0  rxSatMonCfg_001                                              
200023c0  rxSatMonCfg_002                                              
20003680  rxSatMonCfg_003                                              
20004940  rxSatMonCfg_004                                              
20005c00  rxSatMonCfg_005                                              
20006ec0  rxSatMonCfg_006                                              
20008180  rxSatMonCfg_007                                              
20009440  rxSatMonCfg_008                                              
2000a700  rxSatMonCfg_009                                              
2000b9c0  rxSatMonCfg_010                                              
007f26c0  scalbn                                                       
007f26c0  scalbnl                                                      
007f2a40  setvbuf                                                      
00815d64  sigImgMonCfg                                                 
200011f0  sigImgMonCfg_001                                             
200024f0  sigImgMonCfg_002                                             
200037b0  sigImgMonCfg_003                                             
20004a70  sigImgMonCfg_004                                             
20005d30  sigImgMonCfg_005                                             
20006ff0  sigImgMonCfg_006                                             
200082b0  sigImgMonCfg_007                                             
20009570  sigImgMonCfg_008                                             
2000a830  sigImgMonCfg_009                                             
2000baf0  sigImgMonCfg_010                                             
007fe520  snprintf                                                     
0080a880  sprintf                                                      
00815e2c  subFrameTrigCfg                                              
200012b0  subFrameTrigCfg_001                                          
200025b0  subFrameTrigCfg_002                                          
20003870  subFrameTrigCfg_003                                          
20004b30  subFrameTrigCfg_004                                          
20005df0  subFrameTrigCfg_005                                          
200070b0  subFrameTrigCfg_006                                          
20008370  subFrameTrigCfg_007                                          
20009630  subFrameTrigCfg_008                                          
2000a8f0  subFrameTrigCfg_009                                          
2000bbb0  subFrameTrigCfg_010                                          
00815d70  synthFreqMonCfg                                              
200011fc  synthFreqMonCfg_001                                          
200024fc  synthFreqMonCfg_002                                          
200037bc  synthFreqMonCfg_003                                          
20004a7c  synthFreqMonCfg_004                                          
20005d3c  synthFreqMonCfg_005                                          
20006ffc  synthFreqMonCfg_006                                          
200082bc  synthFreqMonCfg_007                                          
2000957c  synthFreqMonCfg_008                                          
2000a83c  synthFreqMonCfg_009                                          
2000bafc  synthFreqMonCfg_010                                          
00815be8  synthFreqNonLiveMonCfg                                       
20001080  synthFreqNonLiveMonCfg_001                                   
20002380  synthFreqNonLiveMonCfg_002                                   
20003640  synthFreqNonLiveMonCfg_003                                   
20004900  synthFreqNonLiveMonCfg_004                                   
20005bc0  synthFreqNonLiveMonCfg_005                                   
20006e80  synthFreqNonLiveMonCfg_006                                   
20008140  synthFreqNonLiveMonCfg_007                                   
20009400  synthFreqNonLiveMonCfg_008                                   
2000a6c0  synthFreqNonLiveMonCfg_009                                   
2000b980  synthFreqNonLiveMonCfg_010                                   
00815c3c  tempMonCfg                                                   
200010d4  tempMonCfg_001                                               
200023d4  tempMonCfg_002                                               
20003694  tempMonCfg_003                                               
20004954  tempMonCfg_004                                               
20005c14  tempMonCfg_005                                               
20006ed4  tempMonCfg_006                                               
20008194  tempMonCfg_007                                               
20009454  tempMonCfg_008                                               
2000a714  tempMonCfg_009                                               
2000b9d4  tempMonCfg_010                                               
00815aec  testSourceCfg                                                
20000f9c  testSourceCfg_001                                            
2000229c  testSourceCfg_002                                            
2000355c  testSourceCfg_003                                            
2000481c  testSourceCfg_004                                            
20005adc  testSourceCfg_005                                            
20006d9c  testSourceCfg_006                                            
2000805c  testSourceCfg_007                                            
2000931c  testSourceCfg_008                                            
2000a5dc  testSourceCfg_009                                            
2000b89c  testSourceCfg_010                                            
00815e30  testSourceEn                                                 
200012b4  testSourceEn_001                                             
200025b4  testSourceEn_002                                             
20003874  testSourceEn_003                                             
20004b34  testSourceEn_004                                             
20005df4  testSourceEn_005                                             
200070b4  testSourceEn_006                                             
20008374  testSourceEn_007                                             
20009634  testSourceEn_008                                             
2000a8f4  testSourceEn_009                                             
2000bbb4  testSourceEn_010                                             
00816ff4  ti_sysbios_BIOS_Module__state__V                             
0080bac0  ti_sysbios_BIOS_RtsGateProxy_Handle__label__S                
0080c5c0  ti_sysbios_BIOS_RtsGateProxy_enter__E                        
0080c5e0  ti_sysbios_BIOS_RtsGateProxy_leave__E                        
0080c880  ti_sysbios_BIOS_RtsGateProxy_query__E                        
007fe5a0  ti_sysbios_BIOS_atExitFunc__I                                
0080a8e0  ti_sysbios_BIOS_errorRaiseHook__I                            
0080b900  ti_sysbios_BIOS_exitFunc__I                                  
0080c600  ti_sysbios_BIOS_exit__E                                      
0080c620  ti_sysbios_BIOS_linkedWithIncorrectBootLibrary__E            
0080c640  ti_sysbios_BIOS_nullFunc__I                                  
007fe620  ti_sysbios_BIOS_registerRTSLock__I                           
0080a940  ti_sysbios_BIOS_removeRTSLock__I                             
0080b940  ti_sysbios_BIOS_rtsLock__I                                   
0080b980  ti_sysbios_BIOS_rtsUnlock__I                                 
0080c660  ti_sysbios_BIOS_setThreadType__E                             
0080a9a0  ti_sysbios_BIOS_startFunc__I                                 
0080c680  ti_sysbios_BIOS_start__E                                     
0080c6a0  ti_sysbios_family_c62_TaskSupport_Module__startupDone__S     
0080b740  ti_sysbios_family_c62_TaskSupport_buildTaskStack             
0080c6c0  ti_sysbios_family_c62_TaskSupport_checkStack__E              
0080c6e0  ti_sysbios_family_c62_TaskSupport_getStackAlignment__E       
0080c4a0  ti_sysbios_family_c62_TaskSupport_glue                       
0081469c  ti_sysbios_family_c62_TaskSupport_stackAlignment__C          
0080aa00  ti_sysbios_family_c62_TaskSupport_start__E                   
007fe3a0  ti_sysbios_family_c62_TaskSupport_swap__E                    
008146b8  ti_sysbios_family_c64p_Cache_EMIFA_BASE__C                   
008146bc  ti_sysbios_family_c64p_Cache_EMIFA_CFG__C                    
008146c0  ti_sysbios_family_c64p_Cache_EMIFA_LENGTH__C                 
008146c4  ti_sysbios_family_c64p_Cache_EMIFB_BASE__C                   
008146c8  ti_sysbios_family_c64p_Cache_EMIFB_CFG__C                    
008146cc  ti_sysbios_family_c64p_Cache_EMIFB_LENGTH__C                 
008146d0  ti_sysbios_family_c64p_Cache_EMIFC_BASE__C                   
008146d4  ti_sysbios_family_c64p_Cache_EMIFC_CFG__C                    
008146d8  ti_sysbios_family_c64p_Cache_EMIFC_LENGTH__C                 
008146dc  ti_sysbios_family_c64p_Cache_E_invalidL1CacheSize__C         
008146e0  ti_sysbios_family_c64p_Cache_E_invalidL2CacheSize__C         
008146e4  ti_sysbios_family_c64p_Cache_MAR0_31__C                      
008146e8  ti_sysbios_family_c64p_Cache_MAR128_159__C                   
008146ec  ti_sysbios_family_c64p_Cache_MAR160_191__C                   
008146f0  ti_sysbios_family_c64p_Cache_MAR192_223__C                   
008146f4  ti_sysbios_family_c64p_Cache_MAR224_255__C                   
008146f8  ti_sysbios_family_c64p_Cache_MAR32_63__C                     
008146fc  ti_sysbios_family_c64p_Cache_MAR64_95__C                     
00814700  ti_sysbios_family_c64p_Cache_MAR96_127__C                    
00811196  ti_sysbios_family_c64p_Cache_Module__id__C                   
008171c4  ti_sysbios_family_c64p_Cache_Module__state__V                
007edd80  ti_sysbios_family_c64p_Cache_Module_startup__E               
007ee980  ti_sysbios_family_c64p_Cache_block__I                        
007f6f00  ti_sysbios_family_c64p_Cache_getL1DInitSize__I               
007f7040  ti_sysbios_family_c64p_Cache_getL1PInitSize__I               
007f3920  ti_sysbios_family_c64p_Cache_getL2InitSize__I                
007fe6a0  ti_sysbios_family_c64p_Cache_invL1pAll__E                    
00004000  ti_sysbios_family_c64p_Cache_l1dSize                         
00004000  ti_sysbios_family_c64p_Cache_l1pSize                         
00000000  ti_sysbios_family_c64p_Cache_l2Size                          
0080aa60  ti_sysbios_family_c64p_Cache_setMar__E                       
0080c700  ti_sysbios_family_c64p_Cache_wbInv__E                        
00814704  ti_sysbios_family_c64p_EventCombiner_A_invalidEventId__C     
00814630  ti_sysbios_family_c64p_EventCombiner_EVTMASK__C              
00814708  ti_sysbios_family_c64p_EventCombiner_EVTRegs__C              
0081470c  ti_sysbios_family_c64p_EventCombiner_E_unpluggedEvent__C     
00814710  ti_sysbios_family_c64p_EventCombiner_Module__diagsEnabled__C 
00814714  ti_sysbios_family_c64p_EventCombiner_Module__diagsIncluded__C
00814718  ti_sysbios_family_c64p_EventCombiner_Module__diagsMask__C    
0081389a  ti_sysbios_family_c64p_EventCombiner_Module__id__C           
00815e38  ti_sysbios_family_c64p_EventCombiner_Module__state__V        
0080aac0  ti_sysbios_family_c64p_EventCombiner_Module_startup__E       
007f3ac0  ti_sysbios_family_c64p_EventCombiner_disableEvent__E         
007f1680  ti_sysbios_family_c64p_EventCombiner_dispatchPlug__E         
007ef520  ti_sysbios_family_c64p_EventCombiner_dispatch__E             
007f3c60  ti_sysbios_family_c64p_EventCombiner_enableEvent__E          
0080ab20  ti_sysbios_family_c64p_EventCombiner_unused__E               
0081471c  ti_sysbios_family_c64p_Exception_E_exceptionMax__C           
00814456  ti_sysbios_family_c64p_Exception_Module__id__C               
00816f64  ti_sysbios_family_c64p_Exception_Module__state__V            
007fc900  ti_sysbios_family_c64p_Exception_Module_startup__E           
007f4a80  ti_sysbios_family_c64p_Exception_dispatch__E                 
00814720  ti_sysbios_family_c64p_Exception_exceptionHook__C            
00814724  ti_sysbios_family_c64p_Exception_externalHook__C             
007e4620  ti_sysbios_family_c64p_Exception_handler__I                  
007ef760  ti_sysbios_family_c64p_Exception_internalHandler__I          
00814728  ti_sysbios_family_c64p_Exception_internalHook__C             
0081472c  ti_sysbios_family_c64p_Exception_nmiHook__C                  
0081493c  ti_sysbios_family_c64p_Exception_useInternalBuffer__C        
007e0000  ti_sysbios_family_c64p_Hwi0                                  
00814730  ti_sysbios_family_c64p_Hwi_E_alreadyDefined__C               
00814734  ti_sysbios_family_c64p_Hwi_E_handleNotFound__C               
00814738  ti_sysbios_family_c64p_Hwi_E_invalidIntNum__C                
0081473c  ti_sysbios_family_c64p_Hwi_INTRMUX1Address__C                
007f9300  ti_sysbios_family_c64p_Hwi_Instance_finalize__E              
007f7fa0  ti_sysbios_family_c64p_Hwi_Instance_init__E                  
00814740  ti_sysbios_family_c64p_Hwi_LD_end__C                         
00814744  ti_sysbios_family_c64p_Hwi_LM_begin__C                       
00814748  ti_sysbios_family_c64p_Hwi_Module__diagsEnabled__C           
0081474c  ti_sysbios_family_c64p_Hwi_Module__diagsIncluded__C          
00814750  ti_sysbios_family_c64p_Hwi_Module__diagsMask__C              
0081493e  ti_sysbios_family_c64p_Hwi_Module__id__C                     
00814940  ti_sysbios_family_c64p_Hwi_Module__loggerDefined__C          
00814754  ti_sysbios_family_c64p_Hwi_Module__loggerFxn1__C             
00814758  ti_sysbios_family_c64p_Hwi_Module__loggerFxn8__C             
0081475c  ti_sysbios_family_c64p_Hwi_Module__loggerObj__C              
00817160  ti_sysbios_family_c64p_Hwi_Module__root__V                   
0080c720  ti_sysbios_family_c64p_Hwi_Module__startupDone__F            
0080c720  ti_sysbios_family_c64p_Hwi_Module__startupDone__S            
00816ce8  ti_sysbios_family_c64p_Hwi_Module__state__V                  
007f60e0  ti_sysbios_family_c64p_Hwi_Module_startup__E                 
008142cc  ti_sysbios_family_c64p_Hwi_Object__DESC__C                   
008140f8  ti_sysbios_family_c64p_Hwi_Object__PARAMS__C                 
008170e0  ti_sysbios_family_c64p_Hwi_Object__table__V                  
0080c740  ti_sysbios_family_c64p_Hwi_Params__init__S                   
0080c760  ti_sysbios_family_c64p_Hwi_clearInterrupt__E                 
007fb5e0  ti_sysbios_family_c64p_Hwi_create                            
0080b9c0  ti_sysbios_family_c64p_Hwi_disableInterrupt__E               
007f0ec0  ti_sysbios_family_c64p_Hwi_dispatchAlways                    
007fc9a0  ti_sysbios_family_c64p_Hwi_dispatchC__I                      
007eebe0  ti_sysbios_family_c64p_Hwi_dispatchCore__I                   
0080ba00  ti_sysbios_family_c64p_Hwi_enableInterrupt__E                
007fca40  ti_sysbios_family_c64p_Hwi_eventMap__E                       
007fcae0  ti_sysbios_family_c64p_Hwi_getStackInfo__E                   
007e0000  ti_sysbios_family_c64p_Hwi_int0                              
007e0020  ti_sysbios_family_c64p_Hwi_int1                              
007e0140  ti_sysbios_family_c64p_Hwi_int10                             
007e0160  ti_sysbios_family_c64p_Hwi_int11                             
007e0180  ti_sysbios_family_c64p_Hwi_int12                             
007e01a0  ti_sysbios_family_c64p_Hwi_int13                             
007e01c0  ti_sysbios_family_c64p_Hwi_int14                             
007e01e0  ti_sysbios_family_c64p_Hwi_int15                             
007e0040  ti_sysbios_family_c64p_Hwi_int2                              
007e0060  ti_sysbios_family_c64p_Hwi_int3                              
007e0080  ti_sysbios_family_c64p_Hwi_int4                              
007e00a0  ti_sysbios_family_c64p_Hwi_int5                              
007e00c0  ti_sysbios_family_c64p_Hwi_int6                              
007e00e0  ti_sysbios_family_c64p_Hwi_int7                              
007e0100  ti_sysbios_family_c64p_Hwi_int8                              
007e0120  ti_sysbios_family_c64p_Hwi_int9                              
007fc5e0  ti_sysbios_family_c64p_Hwi_plug__E                           
007f0280  ti_sysbios_family_c64p_Hwi_reconfig__E                       
0080c780  ti_sysbios_family_c64p_Hwi_startup__E                        
007ff580  ti_sysbios_family_c64p_Hwi_switchAndDispatch__I              
0080c7a0  ti_sysbios_family_c64p_Hwi_switchFromBootStack__E            
0080c7c0  ti_sysbios_family_c64p_Hwi_unPluggedInterrupt__I             
007ff5e0  ti_sysbios_family_xxx_Hwi_switchAndRunFunc                   
0080ba40  ti_sysbios_gates_GateHwi_Handle__label__S                    
0080c7e0  ti_sysbios_gates_GateHwi_Instance_init__E                    
0081421c  ti_sysbios_gates_GateHwi_Module__FXNS__C                     
00817168  ti_sysbios_gates_GateHwi_Module__root__V                     
008142ec  ti_sysbios_gates_GateHwi_Object__DESC__C                     
008143f8  ti_sysbios_gates_GateHwi_Object__PARAMS__C                   
007fe720  ti_sysbios_gates_GateHwi_Object__create__S                   
0080ba80  ti_sysbios_gates_GateHwi_Object__delete__S                   
008171c8  ti_sysbios_gates_GateHwi_Object__table__V                    
0080c800  ti_sysbios_gates_GateHwi_enter__E                            
0080c820  ti_sysbios_gates_GateHwi_leave__E                            
0080c840  ti_sysbios_gates_GateHwi_query__E                            
00814760  ti_sysbios_gates_GateMutex_A_badContext__C                   
0080bac0  ti_sysbios_gates_GateMutex_Handle__label__S                  
00814764  ti_sysbios_gates_GateMutex_Instance_State_sem__O             
0080c860  ti_sysbios_gates_GateMutex_Instance_finalize__E              
0080bb00  ti_sysbios_gates_GateMutex_Instance_init__E                  
00814240  ti_sysbios_gates_GateMutex_Module__FXNS__C                   
00814768  ti_sysbios_gates_GateMutex_Module__diagsEnabled__C           
0081476c  ti_sysbios_gates_GateMutex_Module__diagsIncluded__C          
00814770  ti_sysbios_gates_GateMutex_Module__diagsMask__C              
00814942  ti_sysbios_gates_GateMutex_Module__id__C                     
00817170  ti_sysbios_gates_GateMutex_Module__root__V                   
0081430c  ti_sysbios_gates_GateMutex_Object__DESC__C                   
00814410  ti_sysbios_gates_GateMutex_Object__PARAMS__C                 
007fe7a0  ti_sysbios_gates_GateMutex_Object__create__S                 
0080ab80  ti_sysbios_gates_GateMutex_Object__delete__S                 
00816ee8  ti_sysbios_gates_GateMutex_Object__table__V                  
007f1860  ti_sysbios_gates_GateMutex_enter__E                          
0080bb40  ti_sysbios_gates_GateMutex_leave__E                          
0080c880  ti_sysbios_gates_GateMutex_query__E                          
00814774  ti_sysbios_hal_Hwi_E_stackOverflow__C                        
0080c720  ti_sysbios_hal_Hwi_HwiProxy_Module__startupDone__S           
0080c740  ti_sysbios_hal_Hwi_HwiProxy_Params__init__S                  
0080c760  ti_sysbios_hal_Hwi_HwiProxy_clearInterrupt__E                
0080b9c0  ti_sysbios_hal_Hwi_HwiProxy_disableInterrupt__E              
0080ba00  ti_sysbios_hal_Hwi_HwiProxy_enableInterrupt__E               
007fcae0  ti_sysbios_hal_Hwi_HwiProxy_getStackInfo__E                  
0080c780  ti_sysbios_hal_Hwi_HwiProxy_startup__E                       
0080c7a0  ti_sysbios_hal_Hwi_HwiProxy_switchFromBootStack__E           
00814944  ti_sysbios_hal_Hwi_Module__id__C                             
0080c8a0  ti_sysbios_hal_Hwi_Module_startup__E                         
00817178  ti_sysbios_hal_Hwi_Object__table__V                          
007fe820  ti_sysbios_hal_Hwi_checkStack                                
0080c760  ti_sysbios_hal_Hwi_clearInterrupt__E                         
0080b9c0  ti_sysbios_hal_Hwi_disableInterrupt__E                       
0080ba00  ti_sysbios_hal_Hwi_enableInterrupt__E                        
007fcae0  ti_sysbios_hal_Hwi_getStackInfo__E                           
0080abe0  ti_sysbios_hal_Hwi_initStack                                 
0080c780  ti_sysbios_hal_Hwi_startup__E                                
0080c7a0  ti_sysbios_hal_Hwi_switchFromBootStack__E                    
00814778  ti_sysbios_heaps_HeapBuf_Instance_State_freeList__O          
008171cc  ti_sysbios_heaps_HeapBuf_Module__state__V                    
007f3e00  ti_sysbios_heaps_HeapBuf_Module_startup__E                   
0081477c  ti_sysbios_heaps_HeapBuf_Object__count__C                    
0080c8c0  ti_sysbios_heaps_HeapBuf_Object__get__S                      
00814780  ti_sysbios_heaps_HeapBuf_numConstructedHeaps__C              
00814784  ti_sysbios_heaps_HeapMem_A_align__C                          
00814788  ti_sysbios_heaps_HeapMem_A_heapSize__C                       
0081478c  ti_sysbios_heaps_HeapMem_A_invalidFree__C                    
00814790  ti_sysbios_heaps_HeapMem_A_zeroBlock__C                      
00814794  ti_sysbios_heaps_HeapMem_E_memory__C                         
0080bb80  ti_sysbios_heaps_HeapMem_Handle__label__S                    
00800000  ti_sysbios_heaps_HeapMem_Instance_State_0_buf__A             
007ec000  ti_sysbios_heaps_HeapMem_Instance_init__E                    
0080bac0  ti_sysbios_heaps_HeapMem_Module_GateProxy_Handle__label__S   
0080c8e0  ti_sysbios_heaps_HeapMem_Module_GateProxy_enter__E           
0080c900  ti_sysbios_heaps_HeapMem_Module_GateProxy_leave__E           
0080c880  ti_sysbios_heaps_HeapMem_Module_GateProxy_query__E           
008141ac  ti_sysbios_heaps_HeapMem_Module__FXNS__C                     
00814798  ti_sysbios_heaps_HeapMem_Module__diagsEnabled__C             
0081479c  ti_sysbios_heaps_HeapMem_Module__diagsIncluded__C            
008147a0  ti_sysbios_heaps_HeapMem_Module__diagsMask__C                
008147a4  ti_sysbios_heaps_HeapMem_Module__gateObj__C                  
00814946  ti_sysbios_heaps_HeapMem_Module__id__C                       
00817180  ti_sysbios_heaps_HeapMem_Module__root__V                     
0081432c  ti_sysbios_heaps_HeapMem_Object__DESC__C                     
00814264  ti_sysbios_heaps_HeapMem_Object__PARAMS__C                   
008147a8  ti_sysbios_heaps_HeapMem_Object__count__C                    
007fe8a0  ti_sysbios_heaps_HeapMem_Object__create__S                   
0080bbc0  ti_sysbios_heaps_HeapMem_Object__delete__S                   
0080bc00  ti_sysbios_heaps_HeapMem_Object__get__S                      
008170f8  ti_sysbios_heaps_HeapMem_Object__table__V                    
007e5a80  ti_sysbios_heaps_HeapMem_allocUnprotected__E                 
007fa8a0  ti_sysbios_heaps_HeapMem_alloc__E                            
007e66a0  ti_sysbios_heaps_HeapMem_freeUnprotected__E                  
0080ac40  ti_sysbios_heaps_HeapMem_free__E                             
007fb6a0  ti_sysbios_heaps_HeapMem_getStats__E                         
007fe920  ti_sysbios_heaps_HeapMem_init__I                             
0080c920  ti_sysbios_heaps_HeapMem_isBlocking__E                       
008147ac  ti_sysbios_heaps_HeapMem_reqAlign__C                         
008147b0  ti_sysbios_knl_Clock_LM_begin__C                             
008147b4  ti_sysbios_knl_Clock_LM_tick__C                              
008147b8  ti_sysbios_knl_Clock_LW_delayed__C                           
008147bc  ti_sysbios_knl_Clock_Module_State_clockQ__O                  
008147c0  ti_sysbios_knl_Clock_Module__diagsEnabled__C                 
008147c4  ti_sysbios_knl_Clock_Module__diagsIncluded__C                
008147c8  ti_sysbios_knl_Clock_Module__diagsMask__C                    
00814948  ti_sysbios_knl_Clock_Module__id__C                           
0081494a  ti_sysbios_knl_Clock_Module__loggerDefined__C                
008147cc  ti_sysbios_knl_Clock_Module__loggerFxn1__C                   
008147d0  ti_sysbios_knl_Clock_Module__loggerFxn2__C                   
008147d4  ti_sysbios_knl_Clock_Module__loggerObj__C                    
00816fc8  ti_sysbios_knl_Clock_Module__state__V                        
0080aca0  ti_sysbios_knl_Clock_Module_startup__E                       
0080cae0  ti_sysbios_knl_Clock_TimerProxy_Module__startupDone__S       
0080c940  ti_sysbios_knl_Clock_TimerProxy_getMaxTicks__E               
007f4140  ti_sysbios_knl_Clock_TimerProxy_startup__E                   
007fe9a0  ti_sysbios_knl_Clock_doTick__I                               
007fb760  ti_sysbios_knl_Clock_logTick__E                              
007ecb20  ti_sysbios_knl_Clock_workFunc__E                             
008147d8  ti_sysbios_knl_Idle_funcList__A                              
00814694  ti_sysbios_knl_Idle_funcList__C                              
0080c960  ti_sysbios_knl_Idle_loop__E                                  
007fea20  ti_sysbios_knl_Idle_run__E                                   
0080c980  ti_sysbios_knl_Queue_Instance_init__E                        
00817188  ti_sysbios_knl_Queue_Module__root__V                         
0081434c  ti_sysbios_knl_Queue_Object__DESC__C                         
00814428  ti_sysbios_knl_Queue_Object__PARAMS__C                       
0080c9a0  ti_sysbios_knl_Queue_Object__get__S                          
0080ad00  ti_sysbios_knl_Queue_construct                               
0080c9c0  ti_sysbios_knl_Queue_destruct                                
0080c9e0  ti_sysbios_knl_Queue_empty__E                                
008147dc  ti_sysbios_knl_Semaphore_A_badContext__C                     
008147e0  ti_sysbios_knl_Semaphore_A_noEvents__C                       
008147e4  ti_sysbios_knl_Semaphore_A_overflow__C                       
008147e8  ti_sysbios_knl_Semaphore_A_pendTaskDisabled__C               
008147ec  ti_sysbios_knl_Semaphore_Instance_State_pendQ__O             
0080ca00  ti_sysbios_knl_Semaphore_Instance_finalize__E                
007f7180  ti_sysbios_knl_Semaphore_Instance_init__E                    
008147f0  ti_sysbios_knl_Semaphore_LM_pend__C                          
008147f4  ti_sysbios_knl_Semaphore_LM_post__C                          
008147f8  ti_sysbios_knl_Semaphore_Module__diagsEnabled__C             
008147fc  ti_sysbios_knl_Semaphore_Module__diagsIncluded__C            
00814800  ti_sysbios_knl_Semaphore_Module__diagsMask__C                
0081494c  ti_sysbios_knl_Semaphore_Module__id__C                       
0081494e  ti_sysbios_knl_Semaphore_Module__loggerDefined__C            
00814804  ti_sysbios_knl_Semaphore_Module__loggerFxn2__C               
00814808  ti_sysbios_knl_Semaphore_Module__loggerFxn4__C               
0081480c  ti_sysbios_knl_Semaphore_Module__loggerObj__C                
00817190  ti_sysbios_knl_Semaphore_Module__root__V                     
0081436c  ti_sysbios_knl_Semaphore_Object__DESC__C                     
00814288  ti_sysbios_knl_Semaphore_Object__PARAMS__C                   
0080ad60  ti_sysbios_knl_Semaphore_Object__delete__S                   
0080ca20  ti_sysbios_knl_Semaphore_Params__init__S                     
0080adc0  ti_sysbios_knl_Semaphore_construct                           
007feaa0  ti_sysbios_knl_Semaphore_create                              
0080ca40  ti_sysbios_knl_Semaphore_delete                              
0080bc40  ti_sysbios_knl_Semaphore_destruct                            
007feb20  ti_sysbios_knl_Semaphore_pendTimeout__I                      
007e3e60  ti_sysbios_knl_Semaphore_pend__E                             
007eb080  ti_sysbios_knl_Semaphore_post__E                             
00814810  ti_sysbios_knl_Swi_LD_end__C                                 
00814814  ti_sysbios_knl_Swi_LM_begin__C                               
00814818  ti_sysbios_knl_Swi_LM_post__C                                
00816b70  ti_sysbios_knl_Swi_Module_State_0_readyQ__A                  
0081481c  ti_sysbios_knl_Swi_Module__diagsEnabled__C                   
00814820  ti_sysbios_knl_Swi_Module__diagsIncluded__C                  
00814824  ti_sysbios_knl_Swi_Module__diagsMask__C                      
00814950  ti_sysbios_knl_Swi_Module__id__C                             
00814952  ti_sysbios_knl_Swi_Module__loggerDefined__C                  
00814828  ti_sysbios_knl_Swi_Module__loggerFxn1__C                     
0081482c  ti_sysbios_knl_Swi_Module__loggerFxn4__C                     
00814830  ti_sysbios_knl_Swi_Module__loggerObj__C                      
00817078  ti_sysbios_knl_Swi_Module__state__V                          
0080ae20  ti_sysbios_knl_Swi_Module_startup__E                         
00814834  ti_sysbios_knl_Swi_Object__count__C                          
0080bc80  ti_sysbios_knl_Swi_Object__get__S                            
00816f98  ti_sysbios_knl_Swi_Object__table__V                          
0080ca60  ti_sysbios_knl_Swi_disable__E                                
007f6240  ti_sysbios_knl_Swi_post__E                                   
007f80c0  ti_sysbios_knl_Swi_restoreHwi__E                             
007fa980  ti_sysbios_knl_Swi_runLoop__I                                
007f04a0  ti_sysbios_knl_Swi_run__I                                    
007f9400  ti_sysbios_knl_Swi_schedule__I                               
007faa60  ti_sysbios_knl_Swi_startup__E                                
00814838  ti_sysbios_knl_Task_A_badPriority__C                         
0081483c  ti_sysbios_knl_Task_A_badTaskState__C                        
00814840  ti_sysbios_knl_Task_A_badThreadType__C                       
00814844  ti_sysbios_knl_Task_A_badTimeout__C                          
00814848  ti_sysbios_knl_Task_A_noPendElem__C                          
0081484c  ti_sysbios_knl_Task_A_sleepTaskDisabled__C                   
00814850  ti_sysbios_knl_Task_E_spOutOfBounds__C                       
00814854  ti_sysbios_knl_Task_E_stackOverflow__C                       
00814970  ti_sysbios_knl_Task_Instance_State_0_stack__A                
007e7180  ti_sysbios_knl_Task_Instance_finalize__E                     
007e9ba0  ti_sysbios_knl_Task_Instance_init__E                         
00814858  ti_sysbios_knl_Task_LD_block__C                              
0081485c  ti_sysbios_knl_Task_LD_exit__C                               
00814860  ti_sysbios_knl_Task_LD_ready__C                              
00814864  ti_sysbios_knl_Task_LM_sleep__C                              
00814868  ti_sysbios_knl_Task_LM_switch__C                             
008171d0  ti_sysbios_knl_Task_Module_State_0_idleTask__A               
00816bf0  ti_sysbios_knl_Task_Module_State_0_readyQ__A                 
0081486c  ti_sysbios_knl_Task_Module_State_inactiveQ__O                
00814870  ti_sysbios_knl_Task_Module__diagsEnabled__C                  
00814874  ti_sysbios_knl_Task_Module__diagsIncluded__C                 
00814878  ti_sysbios_knl_Task_Module__diagsMask__C                     
00814954  ti_sysbios_knl_Task_Module__id__C                            
00814956  ti_sysbios_knl_Task_Module__loggerDefined__C                 
0081487c  ti_sysbios_knl_Task_Module__loggerFxn2__C                    
00814880  ti_sysbios_knl_Task_Module__loggerFxn4__C                    
00814884  ti_sysbios_knl_Task_Module__loggerObj__C                     
00817198  ti_sysbios_knl_Task_Module__root__V                          
00816ea0  ti_sysbios_knl_Task_Module__state__V                         
007e97c0  ti_sysbios_knl_Task_Module_startup__E                        
0081438c  ti_sysbios_knl_Task_Object__DESC__C                          
00814038  ti_sysbios_knl_Task_Object__PARAMS__C                        
00814888  ti_sysbios_knl_Task_Object__count__C                         
0080bcc0  ti_sysbios_knl_Task_Object__get__S                           
00816d58  ti_sysbios_knl_Task_Object__table__V                         
0080ca80  ti_sysbios_knl_Task_Params__init__S                          
0080c6a0  ti_sysbios_knl_Task_SupportProxy_Module__startupDone__S      
0080c6c0  ti_sysbios_knl_Task_SupportProxy_checkStack__E               
0080c6e0  ti_sysbios_knl_Task_SupportProxy_getStackAlignment__E        
0080aa00  ti_sysbios_knl_Task_SupportProxy_start__E                    
007fe3a0  ti_sysbios_knl_Task_SupportProxy_swap__E                     
0081488c  ti_sysbios_knl_Task_allBlockedFunc__C                        
007fb820  ti_sysbios_knl_Task_allBlockedFunction__I                    
007f72c0  ti_sysbios_knl_Task_blockI__E                                
007f2c00  ti_sysbios_knl_Task_checkStacks__E                           
007fb8e0  ti_sysbios_knl_Task_create                                   
00814890  ti_sysbios_knl_Task_defaultStackHeap__C                      
00814894  ti_sysbios_knl_Task_defaultStackSize__C                      
0080caa0  ti_sysbios_knl_Task_disable__E                               
0080ae80  ti_sysbios_knl_Task_enter__I                                 
007f1a40  ti_sysbios_knl_Task_exit__E                                  
00814898  ti_sysbios_knl_Task_numConstructedTasks__C                   
007f4c00  ti_sysbios_knl_Task_postInit__I                              
007feba0  ti_sysbios_knl_Task_processVitalTaskFlag__I                  
007f3fa0  ti_sysbios_knl_Task_schedule__I                              
0080bd00  ti_sysbios_knl_Task_sleepTimeout__I                          
007e76a0  ti_sysbios_knl_Task_sleep__E                                 
007f4d80  ti_sysbios_knl_Task_startCore__E                             
0080cac0  ti_sysbios_knl_Task_startup__E                               
007f81e0  ti_sysbios_knl_Task_unblockI__E                              
0081489c  ti_sysbios_timers_rti_Timer_E_cannotSupport__C               
00817110  ti_sysbios_timers_rti_Timer_Module_State_0_device__A         
008171a0  ti_sysbios_timers_rti_Timer_Module_State_0_handles__A        
00817128  ti_sysbios_timers_rti_Timer_Module_State_0_intFreqs__A       
008148a0  ti_sysbios_timers_rti_Timer_Module__diagsEnabled__C          
008148a4  ti_sysbios_timers_rti_Timer_Module__diagsIncluded__C         
008148a8  ti_sysbios_timers_rti_Timer_Module__diagsMask__C             
00814958  ti_sysbios_timers_rti_Timer_Module__id__C                    
0080cae0  ti_sysbios_timers_rti_Timer_Module__startupDone__F           
0080cae0  ti_sysbios_timers_rti_Timer_Module__startupDone__S           
00817138  ti_sysbios_timers_rti_Timer_Module__state__V                 
007e7b80  ti_sysbios_timers_rti_Timer_Module_startup__E                
00816f28  ti_sysbios_timers_rti_Timer_Object__table__V                 
0081495a  ti_sysbios_timers_rti_Timer_continueOnSuspend__C             
007ef9a0  ti_sysbios_timers_rti_Timer_getFreq__E                       
0080cb00  ti_sysbios_timers_rti_Timer_getMaxTicks__E                   
007f7400  ti_sysbios_timers_rti_Timer_initDevice__I                    
008148ac  ti_sysbios_timers_rti_Timer_numTimerDevices__C               
0080bd40  ti_sysbios_timers_rti_Timer_periodicStub__E                  
008148b0  ti_sysbios_timers_rti_Timer_startupNeeded__C                 
007f4140  ti_sysbios_timers_rti_Timer_startup__E                       
007feca0  ti_sysbios_timers_rti_Timer_stop__E                          
00815d7c  tx0BallBreakMonCfg                                           
20001208  tx0BallBreakMonCfg_001                                       
20002508  tx0BallBreakMonCfg_002                                       
200037c8  tx0BallBreakMonCfg_003                                       
20004a88  tx0BallBreakMonCfg_004                                       
20005d48  tx0BallBreakMonCfg_005                                       
20007008  tx0BallBreakMonCfg_006                                       
200082c8  tx0BallBreakMonCfg_007                                       
20009588  tx0BallBreakMonCfg_008                                       
2000a848  tx0BallBreakMonCfg_009                                       
2000bb08  tx0BallBreakMonCfg_010                                       
00815c80  tx0BpmMonCfg                                                 
20001118  tx0BpmMonCfg_001                                             
20002418  tx0BpmMonCfg_002                                             
200036d8  tx0BpmMonCfg_003                                             
20004998  tx0BpmMonCfg_004                                             
20005c58  tx0BpmMonCfg_005                                             
20006f18  tx0BpmMonCfg_006                                             
200081d8  tx0BpmMonCfg_007                                             
20009498  tx0BpmMonCfg_008                                             
2000a758  tx0BpmMonCfg_009                                             
2000ba18  tx0BpmMonCfg_010                                             
00815df8  tx0IntAnaSigMonCfg                                           
2000127c  tx0IntAnaSigMonCfg_001                                       
2000257c  tx0IntAnaSigMonCfg_002                                       
2000383c  tx0IntAnaSigMonCfg_003                                       
20004afc  tx0IntAnaSigMonCfg_004                                       
20005dbc  tx0IntAnaSigMonCfg_005                                       
2000707c  tx0IntAnaSigMonCfg_006                                       
2000833c  tx0IntAnaSigMonCfg_007                                       
200095fc  tx0IntAnaSigMonCfg_008                                       
2000a8bc  tx0IntAnaSigMonCfg_009                                       
2000bb7c  tx0IntAnaSigMonCfg_010                                       
00815c90  tx0PowMonCfg                                                 
20001128  tx0PowMonCfg_001                                             
20002428  tx0PowMonCfg_002                                             
200036e8  tx0PowMonCfg_003                                             
200049a8  tx0PowMonCfg_004                                             
20005c68  tx0PowMonCfg_005                                             
20006f28  tx0PowMonCfg_006                                             
200081e8  tx0PowMonCfg_007                                             
200094a8  tx0PowMonCfg_008                                             
2000a768  tx0PowMonCfg_009                                             
2000ba28  tx0PowMonCfg_010                                             
00815d88  tx1BallBreakMonCfg                                           
20001214  tx1BallBreakMonCfg_001                                       
20002514  tx1BallBreakMonCfg_002                                       
200037d4  tx1BallBreakMonCfg_003                                       
20004a94  tx1BallBreakMonCfg_004                                       
20005d54  tx1BallBreakMonCfg_005                                       
20007014  tx1BallBreakMonCfg_006                                       
200082d4  tx1BallBreakMonCfg_007                                       
20009594  tx1BallBreakMonCfg_008                                       
2000a854  tx1BallBreakMonCfg_009                                       
2000bb14  tx1BallBreakMonCfg_010                                       
00815ca0  tx1BpmMonCfg                                                 
20001138  tx1BpmMonCfg_001                                             
20002438  tx1BpmMonCfg_002                                             
200036f8  tx1BpmMonCfg_003                                             
200049b8  tx1BpmMonCfg_004                                             
20005c78  tx1BpmMonCfg_005                                             
20006f38  tx1BpmMonCfg_006                                             
200081f8  tx1BpmMonCfg_007                                             
200094b8  tx1BpmMonCfg_008                                             
2000a778  tx1BpmMonCfg_009                                             
2000ba38  tx1BpmMonCfg_010                                             
00815e00  tx1IntAnaSigMonCfg                                           
20001284  tx1IntAnaSigMonCfg_001                                       
20002584  tx1IntAnaSigMonCfg_002                                       
20003844  tx1IntAnaSigMonCfg_003                                       
20004b04  tx1IntAnaSigMonCfg_004                                       
20005dc4  tx1IntAnaSigMonCfg_005                                       
20007084  tx1IntAnaSigMonCfg_006                                       
20008344  tx1IntAnaSigMonCfg_007                                       
20009604  tx1IntAnaSigMonCfg_008                                       
2000a8c4  tx1IntAnaSigMonCfg_009                                       
2000bb84  tx1IntAnaSigMonCfg_010                                       
00815cb0  tx1PowMonCfg                                                 
20001148  tx1PowMonCfg_001                                             
20002448  tx1PowMonCfg_002                                             
20003708  tx1PowMonCfg_003                                             
200049c8  tx1PowMonCfg_004                                             
20005c88  tx1PowMonCfg_005                                             
20006f48  tx1PowMonCfg_006                                             
20008208  tx1PowMonCfg_007                                             
200094c8  tx1PowMonCfg_008                                             
2000a788  tx1PowMonCfg_009                                             
2000ba48  tx1PowMonCfg_010                                             
00815d94  tx2BallBreakMonCfg                                           
20001220  tx2BallBreakMonCfg_001                                       
20002520  tx2BallBreakMonCfg_002                                       
200037e0  tx2BallBreakMonCfg_003                                       
20004aa0  tx2BallBreakMonCfg_004                                       
20005d60  tx2BallBreakMonCfg_005                                       
20007020  tx2BallBreakMonCfg_006                                       
200082e0  tx2BallBreakMonCfg_007                                       
200095a0  tx2BallBreakMonCfg_008                                       
2000a860  tx2BallBreakMonCfg_009                                       
2000bb20  tx2BallBreakMonCfg_010                                       
00815cc0  tx2BpmMonCfg                                                 
20001158  tx2BpmMonCfg_001                                             
20002458  tx2BpmMonCfg_002                                             
20003718  tx2BpmMonCfg_003                                             
200049d8  tx2BpmMonCfg_004                                             
20005c98  tx2BpmMonCfg_005                                             
20006f58  tx2BpmMonCfg_006                                             
20008218  tx2BpmMonCfg_007                                             
200094d8  tx2BpmMonCfg_008                                             
2000a798  tx2BpmMonCfg_009                                             
2000ba58  tx2BpmMonCfg_010                                             
00815e08  tx2IntAnaSigMonCfg                                           
2000128c  tx2IntAnaSigMonCfg_001                                       
2000258c  tx2IntAnaSigMonCfg_002                                       
2000384c  tx2IntAnaSigMonCfg_003                                       
20004b0c  tx2IntAnaSigMonCfg_004                                       
20005dcc  tx2IntAnaSigMonCfg_005                                       
2000708c  tx2IntAnaSigMonCfg_006                                       
2000834c  tx2IntAnaSigMonCfg_007                                       
2000960c  tx2IntAnaSigMonCfg_008                                       
2000a8cc  tx2IntAnaSigMonCfg_009                                       
2000bb8c  tx2IntAnaSigMonCfg_010                                       
00815cd0  tx2PowMonCfg                                                 
20001168  tx2PowMonCfg_001                                             
20002468  tx2PowMonCfg_002                                             
20003728  tx2PowMonCfg_003                                             
200049e8  tx2PowMonCfg_004                                             
20005ca8  tx2PowMonCfg_005                                             
20006f68  tx2PowMonCfg_006                                             
20008228  tx2PowMonCfg_007                                             
200094e8  tx2PowMonCfg_008                                             
2000a7a8  tx2PowMonCfg_009                                             
2000ba68  tx2PowMonCfg_010                                             
00815b30  txGainPhMisMatchMonCfg                                       
20000fe0  txGainPhMisMatchMonCfg_001                                   
200022e0  txGainPhMisMatchMonCfg_002                                   
200035a0  txGainPhMisMatchMonCfg_003                                   
20004860  txGainPhMisMatchMonCfg_004                                   
20005b20  txGainPhMisMatchMonCfg_005                                   
20006de0  txGainPhMisMatchMonCfg_006                                   
200080a0  txGainPhMisMatchMonCfg_007                                   
20009360  txGainPhMisMatchMonCfg_008                                   
2000a620  txGainPhMisMatchMonCfg_009                                   
2000b8e0  txGainPhMisMatchMonCfg_010                                   
00815e34  txGainTempLutReadCfg                                         
200012b8  txGainTempLutReadCfg_001                                     
200025b8  txGainTempLutReadCfg_002                                     
20003878  txGainTempLutReadCfg_003                                     
20004b38  txGainTempLutReadCfg_004                                     
20005df8  txGainTempLutReadCfg_005                                     
200070b8  txGainTempLutReadCfg_006                                     
20008378  txGainTempLutReadCfg_007                                     
20009638  txGainTempLutReadCfg_008                                     
2000a8f8  txGainTempLutReadCfg_009                                     
2000bbb8  txGainTempLutReadCfg_010                                     
007fed20  unlink                                                       
0080bd80  wcslen                                                       
0080aee0  write                                                        
008148b4  xdc_runtime_Assert_E_assertFailed__C                         
007fba60  xdc_runtime_Assert_raise__I                                  
008148b8  xdc_runtime_Core_A_initializedParams__C                      
008148bc  xdc_runtime_Core_Module__diagsEnabled__C                     
008148c0  xdc_runtime_Core_Module__diagsIncluded__C                    
008148c4  xdc_runtime_Core_Module__diagsMask__C                        
0081495c  xdc_runtime_Core_Module__id__C                               
007feda0  xdc_runtime_Core_assignLabel__I                              
007fcb80  xdc_runtime_Core_assignParams__I                             
007f42e0  xdc_runtime_Core_constructObject__I                          
007efbe0  xdc_runtime_Core_createObject__I                             
007f7540  xdc_runtime_Core_deleteObject__I                             
008148c8  xdc_runtime_Error_E_memory__C                                
00817038  xdc_runtime_Error_IgnoreBlock                                
008148cc  xdc_runtime_Error_Module__diagsEnabled__C                    
008148d0  xdc_runtime_Error_Module__diagsIncluded__C                   
008148d4  xdc_runtime_Error_Module__diagsMask__C                       
0081495e  xdc_runtime_Error_Module__loggerDefined__C                   
008148d8  xdc_runtime_Error_Module__loggerFxn8__C                      
008148dc  xdc_runtime_Error_Module__loggerObj__C                       
008171d8  xdc_runtime_Error_Module__state__V                           
0080bdc0  xdc_runtime_Error_check__E                                   
0080cb20  xdc_runtime_Error_getSite__E                                 
0080be00  xdc_runtime_Error_init__E                                    
00814960  xdc_runtime_Error_maxDepth__C                                
007f10c0  xdc_runtime_Error_policyDefault__E                           
008148e0  xdc_runtime_Error_policyFxn__C                               
008148e4  xdc_runtime_Error_policy__C                                  
007f9500  xdc_runtime_Error_print__E                                   
008148e8  xdc_runtime_Error_raiseHook__C                               
0080cb40  xdc_runtime_Error_raiseX__E                                  
007fbb20  xdc_runtime_Error_setX__E                                    
0080cb60  xdc_runtime_Gate_enterSystem__E                              
0080cb80  xdc_runtime_Gate_leaveSystem__E                              
008148ec  xdc_runtime_IGateProvider_Interface__BASE__C                 
008148f0  xdc_runtime_IHeap_Interface__BASE__C                         
008148f4  xdc_runtime_IModule_Interface__BASE__C                       
008148f8  xdc_runtime_Log_L_error__C                                   
0080ba40  xdc_runtime_Main_Module_GateProxy_Handle__label__S           
0080c840  xdc_runtime_Main_Module_GateProxy_query__E                   
00814962  xdc_runtime_Main_Module__id__C                               
0080bb80  xdc_runtime_Memory_HeapProxy_Handle__label__S                
0080cba0  xdc_runtime_Memory_HeapProxy_alloc__E                        
0080cbc0  xdc_runtime_Memory_HeapProxy_free__E                         
00814964  xdc_runtime_Memory_Module__id__C                             
008171d4  xdc_runtime_Memory_Module__state__V                          
007f9600  xdc_runtime_Memory_alloc__E                                  
0080cbe0  xdc_runtime_Memory_calloc__E                                 
008148fc  xdc_runtime_Memory_defaultHeapInstance__C                    
0080cc00  xdc_runtime_Memory_free__E                                   
0080cc20  xdc_runtime_Memory_getMaxDefaultTypeAlign__E                 
0080af40  xdc_runtime_Memory_valloc__E                                 
008171a8  xdc_runtime_Registry_Module__state__V                        
0080be40  xdc_runtime_Registry_findById__E                             
008171b0  xdc_runtime_Startup_Module__state__V                         
00000001  xdc_runtime_Startup__EXECFXN__C                              
00000001  xdc_runtime_Startup__RESETFXN__C                             
00814900  xdc_runtime_Startup_execImpl__C                              
007f9700  xdc_runtime_Startup_exec__E                                  
0080cc40  xdc_runtime_Startup_exec__I                                  
008146a0  xdc_runtime_Startup_firstFxns__A                             
008146a8  xdc_runtime_Startup_firstFxns__C                             
008146b0  xdc_runtime_Startup_lastFxns__C                              
00814904  xdc_runtime_Startup_maxPasses__C                             
0080cc60  xdc_runtime_Startup_reset__I                                 
0080cc80  xdc_runtime_Startup_rtsDone__E                               
00814440  xdc_runtime_Startup_sfxnRts__A                               
00814908  xdc_runtime_Startup_sfxnRts__C                               
00814180  xdc_runtime_Startup_sfxnTab__A                               
0081490c  xdc_runtime_Startup_sfxnTab__C                               
007eee40  xdc_runtime_Startup_startMods__I                             
007fee20  xdc_runtime_SysStd_abort__E                                  
0080cca0  xdc_runtime_SysStd_exit__E                                   
0080ccc0  xdc_runtime_SysStd_putch__E                                  
0080cce0  xdc_runtime_SysStd_ready__E                                  
0080ba40  xdc_runtime_System_Module_GateProxy_Handle__label__S         
0080cd00  xdc_runtime_System_Module_GateProxy_enter__E                 
0080cd20  xdc_runtime_System_Module_GateProxy_leave__E                 
0080c840  xdc_runtime_System_Module_GateProxy_query__E                 
00817058  xdc_runtime_System_Module_State_0_atexitHandlers__A          
00814910  xdc_runtime_System_Module__gateObj__C                        
008171b8  xdc_runtime_System_Module__state__V                          
0080cd40  xdc_runtime_System_Module_startup__E                         
007fee20  xdc_runtime_System_SupportProxy_abort__E                     
0080cca0  xdc_runtime_System_SupportProxy_exit__E                      
0080ccc0  xdc_runtime_System_SupportProxy_putch__E                     
0080cce0  xdc_runtime_System_SupportProxy_ready__E                     
00814914  xdc_runtime_System_abortFxn__C                               
0080c4c0  xdc_runtime_System_abortStd__E                               
0080be80  xdc_runtime_System_abort__E                                  
0080bec0  xdc_runtime_System_aprintf__E                                
007fef20  xdc_runtime_System_aprintf_va__E                             
007fef20  xdc_runtime_System_aprintf_va__F                             
007feea0  xdc_runtime_System_atexit__E                                 
007fef20  xdc_runtime_System_avprintf__E                               
007e2da0  xdc_runtime_System_doPrint__I                                
00814918  xdc_runtime_System_exitFxn__C                                
007fa440  xdc_runtime_System_exitStd__E                                
0080bf00  xdc_runtime_System_exit__E                                   
0081491c  xdc_runtime_System_extendFxn__C                              
007fcc20  xdc_runtime_System_formatNum__I                              
00814920  xdc_runtime_System_maxAtexitHandlers__C                      
007efe20  xdc_runtime_System_printfExtend__I                           
0080bf40  xdc_runtime_System_printf__E                                 
007ff020  xdc_runtime_System_printf_va__E                              
007ff020  xdc_runtime_System_printf_va__F                              
007fefa0  xdc_runtime_System_processAtExit__E                          
007fccc0  xdc_runtime_System_putchar__I                                
0080cd60  xdc_runtime_System_snprintf_va__E                            
0080cd60  xdc_runtime_System_snprintf_va__F                            
007ff020  xdc_runtime_System_vprintf__E                                
0080cd60  xdc_runtime_System_vsnprintf__E                              
00814966  xdc_runtime_Text_charCnt__C                                  
0080f7d8  xdc_runtime_Text_charTab__A                                  
00814924  xdc_runtime_Text_charTab__C                                  
0080afa0  xdc_runtime_Text_cordText__E                                 
00814968  xdc_runtime_Text_isLoaded__C                                 
00814928  xdc_runtime_Text_nameEmpty__C                                
0081492c  xdc_runtime_Text_nameStatic__C                               
00814930  xdc_runtime_Text_nameUnknown__C                              
00813ca0  xdc_runtime_Text_nodeTab__A                                  
00814934  xdc_runtime_Text_nodeTab__C                                  
007fcd60  xdc_runtime_Text_printVisFxn__I                              
007f7680  xdc_runtime_Text_putLab__E                                   
007f63a0  xdc_runtime_Text_putMod__E                                   
007f1c20  xdc_runtime_Text_putSite__E                                  
0081496a  xdc_runtime_Text_registryModsLastId__C                       
0080cd80  xdc_runtime_Text_ropeText__E                                 
0081496c  xdc_runtime_Text_unnamedModsLastId__C                        
007fab40  xdc_runtime_Text_visitRope2__I                               
00814938  xdc_runtime_Text_visitRopeFxn__C                             
0080cda0  xdc_runtime_Text_visitRope__I                                
007fce00  xdc_runtime_Text_xprintf__I                                  


GLOBAL SYMBOLS: SORTED BY Symbol Address 

address   name                                                         
-------   ----                                                         
00000000  __ASM__                                                      
00000000  ti_sysbios_family_c64p_Cache_l2Size                          
00000001  xdc_runtime_Startup__EXECFXN__C                              
00000001  xdc_runtime_Startup__RESETFXN__C                             
00000088  __ISA__                                                      
000000a0  __PLAT__                                                     
000000c0  __TARG__                                                     
000000e8  __TRDR__                                                     
00001000  __TI_STACK_SIZE                                              
00004000  ti_sysbios_family_c64p_Cache_l1dSize                         
00004000  ti_sysbios_family_c64p_Cache_l1pSize                         
007e0000  ti_sysbios_family_c64p_Hwi0                                  
007e0000  ti_sysbios_family_c64p_Hwi_int0                              
007e0020  ti_sysbios_family_c64p_Hwi_int1                              
007e0040  ti_sysbios_family_c64p_Hwi_int2                              
007e0060  ti_sysbios_family_c64p_Hwi_int3                              
007e0080  ti_sysbios_family_c64p_Hwi_int4                              
007e00a0  ti_sysbios_family_c64p_Hwi_int5                              
007e00c0  ti_sysbios_family_c64p_Hwi_int6                              
007e00e0  ti_sysbios_family_c64p_Hwi_int7                              
007e0100  ti_sysbios_family_c64p_Hwi_int8                              
007e0120  ti_sysbios_family_c64p_Hwi_int9                              
007e0140  ti_sysbios_family_c64p_Hwi_int10                             
007e0160  ti_sysbios_family_c64p_Hwi_int11                             
007e0180  ti_sysbios_family_c64p_Hwi_int12                             
007e01a0  ti_sysbios_family_c64p_Hwi_int13                             
007e01c0  ti_sysbios_family_c64p_Hwi_int14                             
007e01e0  ti_sysbios_family_c64p_Hwi_int15                             
007e0200  __TI_printfi                                                 
007e21e0  MmwaveLink_verifyReportCount                                 
007e2da0  xdc_runtime_System_doPrint__I                                
007e3e60  ti_sysbios_knl_Semaphore_pend__E                             
007e4620  ti_sysbios_family_c64p_Exception_handler__I                  
007e4da0  ADCBUF_MMWave_control                                        
007e5a80  ti_sysbios_heaps_HeapMem_allocUnprotected__E                 
007e60a0  __c6xabi_divd                                                
007e66a0  ti_sysbios_heaps_HeapMem_freeUnprotected__E                  
007e6c60  MmwaveLinkTest_initConfig                                    
007e7180  ti_sysbios_knl_Task_Instance_finalize__E                     
007e76a0  ti_sysbios_knl_Task_sleep__E                                 
007e7b80  ti_sysbios_timers_rti_Timer_Module_startup__E                
007e7fc0  Mailbox_open                                                 
007e83e0  MmwaveLink_startDfpTest                                      
007e87e0  MmwaveLink_verifyRxGainPhRep                                 
007e8fe0  rlDriverRxHdrRead                                            
007e93e0  MmwaveLink_verifyTxGainPhaseRep                              
007e97c0  ti_sysbios_knl_Task_Module_startup__E                        
007e9ba0  ti_sysbios_knl_Task_Instance_init__E                         
007e9f60  MmwaveLink_verifyPllControlRep                               
007ea2e0  MmwaveLink_verifyRfSynthFreqNonLiveRep                       
007ea660  CRC_open                                                     
007ea9c0  MmwaveLink_verifyRxIfStageRep                                
007ead20  rlDriverMsgRead                                              
007eb080  ti_sysbios_knl_Semaphore_post__E                             
007eb3e0  MmwaveLink_verifyTxPower                                     
007eb720  fputs                                                        
007eba40  MmwaveLink_runDfpTest                                        
007ebd20  rlDriverCmdSendRetry                                         
007ec000  ti_sysbios_heaps_HeapMem_Instance_init__E                    
007ec2e0  MmwaveLink_getProfileConfig                                  
007ec5a0  MmwaveLink_verifyRxMixInpPowerRep                            
007ec860  rlDriverCmdInvoke                                            
007ecb20  ti_sysbios_knl_Clock_workFunc__E                             
007ecde0  CRC_computeSignature                                         
007ed080  MmwaveLink_initLink                                          
007ed320  MmwaveLink_monFeatureCfg                                     
007edb00  MmwaveLink_verifyTxBpm                                       
007edd80  ti_sysbios_family_c64p_Cache_Module_startup__E               
007ee000  MCPI_setFeatureTestResult                                    
007ee260  __c6xabi_divull                                              
007ee4c0  main                                                         
007ee720  rlDriverInit                                                 
007ee980  ti_sysbios_family_c64p_Cache_block__I                        
007eebe0  ti_sysbios_family_c64p_Hwi_dispatchCore__I                   
007eee40  xdc_runtime_Startup_startMods__I                             
007ef2e0  MmwaveLink_verifyRfSynthFreqRep                              
007ef520  ti_sysbios_family_c64p_EventCombiner_dispatch__E             
007ef760  ti_sysbios_family_c64p_Exception_internalHandler__I          
007ef9a0  ti_sysbios_timers_rti_Timer_getFreq__E                       
007efbe0  xdc_runtime_Core_createObject__I                             
007efe20  xdc_runtime_System_printfExtend__I                           
007f0060  Mailbox_write                                                
007f0280  ti_sysbios_family_c64p_Hwi_reconfig__E                       
007f04a0  ti_sysbios_knl_Swi_run__I                                    
007f06c0  MmwaveLink_verifyExtAnalogSigRep                             
007f08c0  MmwaveLink_verifyRfTxIntAnaSignals                           
007f0ac0  MmwaveLink_verifyTemperatureRep                              
007f0ec0  ti_sysbios_family_c64p_Hwi_dispatchAlways                    
007f10c0  xdc_runtime_Error_policyDefault__E                           
007f12c0  MmwaveLink_verifyTxBallBreak                                 
007f14a0  rlDriverRdVerifyMsg                                          
007f1680  ti_sysbios_family_c64p_EventCombiner_dispatchPlug__E         
007f1860  ti_sysbios_gates_GateMutex_enter__E                          
007f1a40  ti_sysbios_knl_Task_exit__E                                  
007f1c20  xdc_runtime_Text_putSite__E                                  
007f1e00  Mailbox_read                                                 
007f1fc0  MmwaveLink_checkStatusFlag                                   
007f2180  __c6xabi_divul                                               
007f2340  fputc                                                        
007f2340  putc                                                         
007f2500  frexp                                                        
007f2500  frexpl                                                       
007f26c0  ldexp                                                        
007f26c0  ldexpl                                                       
007f26c0  scalbn                                                       
007f26c0  scalbnl                                                      
007f2880  rlDriverMsgCmdReply                                          
007f2a40  setvbuf                                                      
007f2c00  ti_sysbios_knl_Task_checkStacks__E                           
007f2dc0  ADCBUF_MMWave_open                                           
007f2f60  HOSTrename                                                   
007f3100  MmwaveLink_verifyRxNoiseFigRep                               
007f32a0  rlDriverDeInit                                               
007f3440  rlDriverMsgWrite                                             
007f35e0  rlGetFrameConfig                                             
007f3780  rlSetChirpConfig                                             
007f3920  ti_sysbios_family_c64p_Cache_getL2InitSize__I                
007f3ac0  ti_sysbios_family_c64p_EventCombiner_disableEvent__E         
007f3c60  ti_sysbios_family_c64p_EventCombiner_enableEvent__E          
007f3e00  ti_sysbios_heaps_HeapBuf_Module_startup__E                   
007f3fa0  ti_sysbios_knl_Task_schedule__I                              
007f4140  ti_sysbios_knl_Clock_TimerProxy_startup__E                   
007f4140  ti_sysbios_timers_rti_Timer_startup__E                       
007f42e0  xdc_runtime_Core_constructObject__I                          
007f4600  MmwaveLink_getVersion                                        
007f4780  MmwaveLink_verifyIntGpadcSigRep                              
007f4900  rlSetProfileConfig                                           
007f4a80  ti_sysbios_family_c64p_Exception_dispatch__E                 
007f4c00  ti_sysbios_knl_Task_postInit__I                              
007f4d80  ti_sysbios_knl_Task_startCore__E                             
007f4f00  Mailbox_close                                                
007f5060  MmwaveLink_adcBufConfig                                      
007f51c0  MmwaveLink_loadConfig                                        
007f5320  SOC_registerSysIntListener                                   
007f5480  SOC_ungateClock                                              
007f55e0  rlDriverMsgReadCmdCtx                                        
007f5740  rlDriverWaitForResponse                                      
007f58a0  rlGetAdvFrameConfig                                          
007f5a00  rlRfTxBallbreakMonConfig                                     
007f5b60  rlRfTxBpmMonConfig                                           
007f5cc0  rlRfTxIntAnaSignalsMonConfig                                 
007f5e20  rlRfTxPowrMonConfig                                          
007f5f80  rlSetFrameConfig                                             
007f60e0  ti_sysbios_family_c64p_Hwi_Module_startup__E                 
007f6240  ti_sysbios_knl_Swi_post__E                                   
007f63a0  xdc_runtime_Text_putMod__E                                   
007f6500  MmwaveLink_genLatentFaultRep                                 
007f6640  MmwaveLink_getFrameConfig                                    
007f6780  MmwaveLink_verifyRxIntAnaSigRep                              
007f68c0  SOC_init                                                     
007f6a00  rlDevicePowerOn                                              
007f6b40  rlDriverMsgReadSpawnCtx                                      
007f6c80  rlGetProfileConfig                                           
007f6dc0  rlSetAdvFrameConfig                                          
007f6f00  ti_sysbios_family_c64p_Cache_getL1DInitSize__I               
007f7040  ti_sysbios_family_c64p_Cache_getL1PInitSize__I               
007f7180  ti_sysbios_knl_Semaphore_Instance_init__E                    
007f72c0  ti_sysbios_knl_Task_blockI__E                                
007f7400  ti_sysbios_timers_rti_Timer_initDevice__I                    
007f7540  xdc_runtime_Core_deleteObject__I                             
007f7680  xdc_runtime_Text_putLab__E                                   
007f77c0  ADCBUF_MMWave_getChanBufAddr                                 
007f78e0  SOC_gateClock                                                
007f7a00  _auto_init_elf                                               
007f7c40  getdevice                                                    
007f7d60  rlDriverAsyncEventHandler                                    
007f7e80  rlDriverProcRdMsg                                            
007f7fa0  ti_sysbios_family_c64p_Hwi_Instance_init__E                  
007f80c0  ti_sysbios_knl_Swi_restoreHwi__E                             
007f81e0  ti_sysbios_knl_Task_unblockI__E                              
007f8300  Mailbox_readFlush                                            
007f8400  MmwaveLink_getAdvFrameConfig                                 
007f8600  MmwaveLink_verifyDccClockFreqRep                             
007f8700  MmwaveLink_verifyDigLatFaultRep                              
007f8800  MmwaveLink_verifyDigPeriodicRep                              
007f8900  SOC_deviceInit                                               
007f8a00  __TI_closefile                                               
007f8c00  atoi                                                         
007f8d00  fflush                                                       
007f8e00  fseek                                                        
007f8f00  rlDeviceGetVersion                                           
007f9000  rlDevicePowerOff                                             
007f9300  ti_sysbios_family_c64p_Hwi_Instance_finalize__E              
007f9400  ti_sysbios_knl_Swi_schedule__I                               
007f9500  xdc_runtime_Error_print__E                                   
007f9600  xdc_runtime_Memory_alloc__E                                  
007f9700  xdc_runtime_Startup_exec__E                                  
007f9800  CRC_getTransactionId                                         
007f98e0  HOSTlseek                                                    
007f99c0  HOSTopen                                                     
007f9aa0  HOSTwrite                                                    
007f9c60  Mailbox_init                                                 
007f9e20  MmwaveLink_setBpmChirpConfig                                 
007f9f00  MmwaveLink_verifyIntPmClkLoSigRep                            
007f9fe0  MmwaveLink_verifyRunTimeCalibRep                             
007fa0c0  __TI_ltoa                                                    
007fa1a0  __TI_wrt_ok                                                  
007fa280  __c6xabi_divi                                                
007fa280  __divi                                                       
007fa360  close                                                        
007fa440  exit                                                         
007fa440  xdc_runtime_System_exitStd__E                                
007fa520  memset                                                       
007fa600  printf                                                       
007fa6e0  rlDriverHostIrqHandler                                       
007fa7c0  rlDriverValidateHdr                                          
007fa8a0  ti_sysbios_heaps_HeapMem_alloc__E                            
007fa980  ti_sysbios_knl_Swi_runLoop__I                                
007faa60  ti_sysbios_knl_Swi_startup__E                                
007fab40  xdc_runtime_Text_visitRope2__I                               
007fac20  CRC_getSignature                                             
007face0  HOSTread                                                     
007fada0  HOSTunlink                                                   
007fafe0  MmwaveLink_setChirpConfig                                    
007fb160  __c6xabi_divu                                                
007fb160  __divu                                                       
007fb220  __c6xabi_remi                                                
007fb220  __remi                                                       
007fb2e0  rlDriverCalChkSum                                            
007fb3a0  rlDriverExecuteGetApi                                        
007fb460  rlDriverExecuteSetApi                                        
007fb520  rlGetSubBlock                                                
007fb5e0  ti_sysbios_family_c64p_Hwi_create                            
007fb6a0  ti_sysbios_heaps_HeapMem_getStats__E                         
007fb760  ti_sysbios_knl_Clock_logTick__E                              
007fb820  ti_sysbios_knl_Task_allBlockedFunction__I                    
007fb8e0  ti_sysbios_knl_Task_create                                   
007fb9a0  __TI_tls_init                                                
007fba60  xdc_runtime_Assert_raise__I                                  
007fbb20  xdc_runtime_Error_setX__E                                    
007fbbe0  HOSTclose                                                    
007fbe60  MmwaveLink_rfCalibration                                     
007fbf00  MmwaveLink_sensorStart                                       
007fbfa0  MmwaveLink_setCalMonConfig                                   
007fc040  MmwaveLink_setGpAdcConfig                                    
007fc0e0  MmwaveLink_setProfileConfig                                  
007fc180  MmwaveLink_setRfSynthFreqNonLiveMonConfig                    
007fc220  SOC_SystemISR                                                
007fc2c0  __TI_cleanup                                                 
007fc360  __TI_doflush                                                 
007fc400  __c6xabi_remu                                                
007fc400  __remu                                                       
007fc4a0  _c_int00                                                     
007fc5e0  ti_sysbios_family_c64p_Hwi_plug__E                           
007fc680  finddevice                                                   
007fc720  memcpy                                                       
007fc7c0  rlAppendSubBlock                                             
007fc860  rlDriverVerifyCRC                                            
007fc900  ti_sysbios_family_c64p_Exception_Module_startup__E           
007fc9a0  ti_sysbios_family_c64p_Hwi_dispatchC__I                      
007fca40  ti_sysbios_family_c64p_Hwi_eventMap__E                       
007fcae0  ti_sysbios_family_c64p_Hwi_getStackInfo__E                   
007fcae0  ti_sysbios_hal_Hwi_HwiProxy_getStackInfo__E                  
007fcae0  ti_sysbios_hal_Hwi_getStackInfo__E                           
007fcb80  xdc_runtime_Core_assignParams__I                             
007fcc20  xdc_runtime_System_formatNum__I                              
007fccc0  xdc_runtime_System_putchar__I                                
007fcd60  xdc_runtime_Text_printVisFxn__I                              
007fce00  xdc_runtime_Text_xprintf__I                                  
007fcea0  ADCBUF_MMWave_close                                          
007fcf20  ADCBuf_init                                                  
007fcfa0  Mailbox_writeReset                                           
007fd020  MmwaveLink_RxMixerInPwrConfig                                
007fd0a0  MmwaveLink_checkTxGainPhaseVal                               
007fd120  MmwaveLink_getRfBootupStatus                                 
007fd1a0  MmwaveLink_rfSetLdoBypassConfig                              
007fd220  MmwaveLink_rlRfDigMonPeriodicConfig                          
007fd2a0  MmwaveLink_setAdcOutConfig                                   
007fd320  MmwaveLink_setAdvFrameConfig                                 
007fd3a0  MmwaveLink_setBpmCommonConfig                                
007fd420  MmwaveLink_setChannelConfig                                  
007fd4a0  MmwaveLink_setFrameConfig                                    
007fd520  MmwaveLink_setHsiClk                                         
007fd5a0  MmwaveLink_setInitTimeCalibConfig                            
007fd620  MmwaveLink_setLowPowerModeConfig                             
007fd6a0  MmwaveLink_setRfAnaMonConfig                                 
007fd720  MmwaveLink_setRfDevCfg                                       
007fd7a0  MmwaveLink_setRfDualClkCompMonConfig                         
007fd820  MmwaveLink_setRfExtAnaSignalsMonConfig                       
007fd8a0  MmwaveLink_setRfGpadcIntAnaSignalsMonConfig                  
007fd920  MmwaveLink_setRfPllContrlVoltMonConfig                       
007fd9a0  MmwaveLink_setRfPmClkLoIntAnaSignalsMonConfig                
007fda20  MmwaveLink_setRfRxGainPhaMonConfig                           
007fdaa0  MmwaveLink_setRfRxIfSatMonConfig                             
007fdb20  MmwaveLink_setRfRxIfStageMonConfig                           
007fdba0  MmwaveLink_setRfRxIntAnaSignalMonConfig                      
007fdc20  MmwaveLink_setRfRxNoiseMonConfig                             
007fdca0  MmwaveLink_setRfRxSigImgMonConfig                            
007fdd20  MmwaveLink_setRfSynthFreqMonConfig                           
007fdda0  MmwaveLink_setRfTempMonConfig                                
007fde20  MmwaveLink_setRfTxBallbreakMonConfig                         
007fdea0  MmwaveLink_setRfTxBpmMonConfig                               
007fdf20  MmwaveLink_setRfTxGainPhaseMismatchMonConfig                 
007fdfa0  MmwaveLink_setRfTxIntAnaSignalMonConfig                      
007fe020  MmwaveLink_setRfTxPowMonConfig                               
007fe0a0  MmwaveLink_setRunTimeCalibConfig                             
007fe120  MmwaveLink_verifyRepHeader                                   
007fe1a0  SemaphoreP_create                                            
007fe220  __TI_readmsg                                                 
007fe2a0  __c6xabi_llshl                                               
007fe3a0  ti_sysbios_family_c62_TaskSupport_swap__E                    
007fe3a0  ti_sysbios_knl_Task_SupportProxy_swap__E                     
007fe420  rlDeviceIdentifyCmdDir                                       
007fe4a0  rlDriverOsiInit                                              
007fe520  snprintf                                                     
007fe5a0  ti_sysbios_BIOS_atExitFunc__I                                
007fe620  ti_sysbios_BIOS_registerRTSLock__I                           
007fe6a0  ti_sysbios_family_c64p_Cache_invL1pAll__E                    
007fe720  ti_sysbios_gates_GateHwi_Object__create__S                   
007fe7a0  ti_sysbios_gates_GateMutex_Object__create__S                 
007fe820  ti_sysbios_hal_Hwi_checkStack                                
007fe8a0  ti_sysbios_heaps_HeapMem_Object__create__S                   
007fe920  ti_sysbios_heaps_HeapMem_init__I                             
007fe9a0  ti_sysbios_knl_Clock_doTick__I                               
007fea20  ti_sysbios_knl_Idle_run__E                                   
007feaa0  ti_sysbios_knl_Semaphore_create                              
007feb20  ti_sysbios_knl_Semaphore_pendTimeout__I                      
007feba0  ti_sysbios_knl_Task_processVitalTaskFlag__I                  
007fec20  malloc                                                       
007feca0  ti_sysbios_timers_rti_Timer_stop__E                          
007fed20  remove                                                       
007fed20  unlink                                                       
007feda0  xdc_runtime_Core_assignLabel__I                              
007fee20  xdc_runtime_SysStd_abort__E                                  
007fee20  xdc_runtime_System_SupportProxy_abort__E                     
007feea0  xdc_runtime_System_atexit__E                                 
007fef20  xdc_runtime_System_aprintf_va__E                             
007fef20  xdc_runtime_System_aprintf_va__F                             
007fef20  xdc_runtime_System_avprintf__E                               
007fefa0  xdc_runtime_System_processAtExit__E                          
007ff020  xdc_runtime_System_printf_va__E                              
007ff020  xdc_runtime_System_printf_va__F                              
007ff020  xdc_runtime_System_vprintf__E                                
007ff0a0  ADCBuf_open                                                  
007ff280  Mailbox_Config_init                                          
007ff340  Osal_mutexCreate                                             
007ff3a0  Osal_semCreate                                               
007ff400  SOC_unhaltBSS                                                
007ff460  __TI_writemsg                                                
007ff4b8  C$$IO$$                                                      
007ff4c0  __c6xabi_llshru                                              
007ff520  _subcull                                                     
007ff580  ti_sysbios_family_c64p_Hwi_switchAndDispatch__I              
007ff5e0  ti_sysbios_family_xxx_Hwi_switchAndRunFunc                   
007ff640  lseek                                                        
007ff6a0  memccpy                                                      
007ff700  rlDeviceGetMssVersion                                        
007ff760  rlDeviceSetHsiClk                                            
007ff7c0  rlDriverConstructInMsg                                       
007ff820  rlRfAnaMonConfig                                             
007ff880  rlRfDigMonEnableConfig                                       
007ff8e0  rlRfDigMonPeriodicConfig                                     
007ff940  rlRfDualClkCompMonConfig                                     
007ff9a0  rlRfExtAnaSignalsMonConfig                                   
007ffa00  rlRfGpadcIntAnaSignalsMonConfig                              
007ffa60  rlRfInitCalibConfig                                          
007ffac0  rlRfPllContrlVoltMonConfig                                   
007ffb20  rlRfPmClkLoIntAnaSignalsMonConfig                            
007ffb80  rlRfRunTimeCalibConfig                                       
007ffbe0  rlRfRxGainPhMonConfig                                        
007ffc40  rlRfRxIfSatMonConfig                                         
007ffca0  rlRfRxIfStageMonConfig                                       
007ffd00  rlRfRxIntAnaSignalsMonConfig                                 
007ffd60  rlRfRxMixerInPwrConfig                                       
007ffdc0  rlRfRxNoiseMonConfig                                         
007ffe20  rlRfRxSigImgMonConfig                                        
007ffe80  rlRfSetCalMonFreqLimitConfig                                 
007ffee0  rlRfSetCalMonTimeUnitConfig                                  
007fff40  ADCBUF_MMWave_init                                           
00800000  ti_sysbios_heaps_HeapMem_Instance_State_0_buf__A             
00808000  MCPI_logMessage                                              
0080a400  rlRfSetDeviceCfg                                             
0080a460  rlRfSetLdoBypassConfig                                       
0080a4c0  rlRfSynthFreqMonConfig                                       
0080a520  rlRfTempMonConfig                                            
0080a580  rlRfTxGainPhaseMismatchMonConfig                             
0080a5e0  rlSensorStart                                                
0080a640  rlSetAdcOutConfig                                            
0080a6a0  rlSetBpmChirpConfig                                          
0080a700  rlSetBpmCommonConfig                                         
0080a760  rlSetChannelConfig                                           
0080a7c0  rlSetGpAdcConfig                                             
0080a820  rlSetLowPowerModeConfig                                      
0080a880  sprintf                                                      
0080a8e0  ti_sysbios_BIOS_errorRaiseHook__I                            
0080a940  ti_sysbios_BIOS_removeRTSLock__I                             
0080a9a0  ti_sysbios_BIOS_startFunc__I                                 
0080aa00  ti_sysbios_family_c62_TaskSupport_start__E                   
0080aa00  ti_sysbios_knl_Task_SupportProxy_start__E                    
0080aa60  ti_sysbios_family_c64p_Cache_setMar__E                       
0080aac0  ti_sysbios_family_c64p_EventCombiner_Module_startup__E       
0080ab20  ti_sysbios_family_c64p_EventCombiner_unused__E               
0080ab80  ti_sysbios_gates_GateMutex_Object__delete__S                 
0080abe0  ti_sysbios_hal_Hwi_initStack                                 
0080ac40  ti_sysbios_heaps_HeapMem_free__E                             
0080aca0  ti_sysbios_knl_Clock_Module_startup__E                       
0080ad00  ti_sysbios_knl_Queue_construct                               
0080ad60  ti_sysbios_knl_Semaphore_Object__delete__S                   
0080adc0  ti_sysbios_knl_Semaphore_construct                           
0080ae20  ti_sysbios_knl_Swi_Module_startup__E                         
0080ae80  ti_sysbios_knl_Task_enter__I                                 
0080aee0  write                                                        
0080af40  xdc_runtime_Memory_valloc__E                                 
0080afa0  xdc_runtime_Text_cordText__E                                 
0080b3c0  HwiP_create                                                  
0080b400  HwiP_delete                                                  
0080b440  MCPI_Initialize                                              
0080b580  __TI_frcmpyd_div                                             
0080b5c0  __c6xabi_isinf                                               
0080b640  __c6xabi_strasgi_64plus                                      
0080b640  __strasgi_64plus                                             
0080b680  _args_main                                                   
0080b740  ti_sysbios_family_c62_TaskSupport_buildTaskStack             
0080b780  free                                                         
0080b7c0  rlAppendDummy                                                
0080b800  rlDeviceGetRfVersion                                         
0080b840  rlDriverFillPayload                                          
0080b880  rlGetRfBootupStatus                                          
0080b8c0  rlRfInit                                                     
0080b900  ti_sysbios_BIOS_exitFunc__I                                  
0080b940  ti_sysbios_BIOS_rtsLock__I                                   
0080b980  ti_sysbios_BIOS_rtsUnlock__I                                 
0080b9c0  ti_sysbios_family_c64p_Hwi_disableInterrupt__E               
0080b9c0  ti_sysbios_hal_Hwi_HwiProxy_disableInterrupt__E              
0080b9c0  ti_sysbios_hal_Hwi_disableInterrupt__E                       
0080ba00  ti_sysbios_family_c64p_Hwi_enableInterrupt__E                
0080ba00  ti_sysbios_hal_Hwi_HwiProxy_enableInterrupt__E               
0080ba00  ti_sysbios_hal_Hwi_enableInterrupt__E                        
0080ba40  ti_sysbios_gates_GateHwi_Handle__label__S                    
0080ba40  xdc_runtime_Main_Module_GateProxy_Handle__label__S           
0080ba40  xdc_runtime_System_Module_GateProxy_Handle__label__S         
0080ba80  ti_sysbios_gates_GateHwi_Object__delete__S                   
0080bac0  ti_sysbios_BIOS_RtsGateProxy_Handle__label__S                
0080bac0  ti_sysbios_gates_GateMutex_Handle__label__S                  
0080bac0  ti_sysbios_heaps_HeapMem_Module_GateProxy_Handle__label__S   
0080bb00  ti_sysbios_gates_GateMutex_Instance_init__E                  
0080bb40  ti_sysbios_gates_GateMutex_leave__E                          
0080bb80  ti_sysbios_heaps_HeapMem_Handle__label__S                    
0080bb80  xdc_runtime_Memory_HeapProxy_Handle__label__S                
0080bbc0  ti_sysbios_heaps_HeapMem_Object__delete__S                   
0080bc00  ti_sysbios_heaps_HeapMem_Object__get__S                      
0080bc40  ti_sysbios_knl_Semaphore_destruct                            
0080bc80  ti_sysbios_knl_Swi_Object__get__S                            
0080bcc0  ti_sysbios_knl_Task_Object__get__S                           
0080bd00  ti_sysbios_knl_Task_sleepTimeout__I                          
0080bd40  ti_sysbios_timers_rti_Timer_periodicStub__E                  
0080bd80  wcslen                                                       
0080bdc0  xdc_runtime_Error_check__E                                   
0080be00  xdc_runtime_Error_init__E                                    
0080be40  xdc_runtime_Registry_findById__E                             
0080be80  xdc_runtime_System_abort__E                                  
0080bec0  xdc_runtime_System_aprintf__E                                
0080bf00  xdc_runtime_System_exit__E                                   
0080bf40  xdc_runtime_System_printf__E                                 
0080bf80  ADCBuf_Params_init                                           
0080bfa0  ADCBuf_control                                               
0080bfc0  CRC_initConfigParams                                         
0080bfe0  HwiP_Params_init                                             
0080c000  HwiP_disable                                                 
0080c020  HwiP_disableInterrupt                                        
0080c040  HwiP_enableInterrupt                                         
0080c060  HwiP_restore                                                 
0080c080  MCPI_setTestResult                                           
0080c0a0  MemoryP_ctrlAlloc                                            
0080c0c0  MemoryP_ctrlFree                                             
0080c160  MmwaveLink_monitorReportCountInit                            
0080c1a0  MmwaveLink_unmaskHostIRQ                                     
0080c1c0  Mmwavelink_chirpAvailInterrupCallBackFunc                    
0080c1e0  Mmwavelink_frameInterrupCallBackFunc                         
0080c200  Osal_mutexDelete                                             
0080c220  Osal_mutexLock                                               
0080c240  Osal_mutexUnlock                                             
0080c260  Osal_semDelete                                               
0080c280  Osal_semSignal                                               
0080c2a0  Osal_semWait                                                 
0080c2c0  SemaphoreP_Params_init                                       
0080c2e0  SemaphoreP_delete                                            
0080c300  SemaphoreP_pend                                              
0080c320  SemaphoreP_post                                              
0080c320  SemaphoreP_postFromClock                                     
0080c320  SemaphoreP_postFromISR                                       
0080c340  _DebugP_assert                                               
0080c360  __c6xabi_errno_addr                                          
0080c380  __c6xabi_pop_rts                                             
0080c380  __pop_rts                                                    
0080c3a0  __c6xabi_push_rts                                            
0080c3a0  __push_rts                                                   
0080c3c0  _nop                                                         
0080c440  _register_lock                                               
0080c460  _register_unlock                                             
0080c480  _signbit                                                     
0080c4a0  ti_sysbios_family_c62_TaskSupport_glue                       
0080c4c0  C$$EXIT                                                      
0080c4c0  abort                                                        
0080c4c0  xdc_runtime_System_abortStd__E                               
0080c4e0  putchar                                                      
0080c500  rlDriverConstructOutMsg                                      
0080c520  rlDriverGetHandle                                            
0080c540  rlDriverGetPlatformId                                        
0080c560  rlDriverIsDeviceMapValid                                     
0080c580  rlGetSubBlockId                                              
0080c5a0  rlGetSubBlockLen                                             
0080c5c0  ti_sysbios_BIOS_RtsGateProxy_enter__E                        
0080c5e0  ti_sysbios_BIOS_RtsGateProxy_leave__E                        
0080c600  ti_sysbios_BIOS_exit__E                                      
0080c620  ti_sysbios_BIOS_linkedWithIncorrectBootLibrary__E            
0080c640  ti_sysbios_BIOS_nullFunc__I                                  
0080c660  ti_sysbios_BIOS_setThreadType__E                             
0080c680  ti_sysbios_BIOS_start__E                                     
0080c6a0  ti_sysbios_family_c62_TaskSupport_Module__startupDone__S     
0080c6a0  ti_sysbios_knl_Task_SupportProxy_Module__startupDone__S      
0080c6c0  ti_sysbios_family_c62_TaskSupport_checkStack__E              
0080c6c0  ti_sysbios_knl_Task_SupportProxy_checkStack__E               
0080c6e0  ti_sysbios_family_c62_TaskSupport_getStackAlignment__E       
0080c6e0  ti_sysbios_knl_Task_SupportProxy_getStackAlignment__E        
0080c700  ti_sysbios_family_c64p_Cache_wbInv__E                        
0080c720  ti_sysbios_family_c64p_Hwi_Module__startupDone__F            
0080c720  ti_sysbios_family_c64p_Hwi_Module__startupDone__S            
0080c720  ti_sysbios_hal_Hwi_HwiProxy_Module__startupDone__S           
0080c740  ti_sysbios_family_c64p_Hwi_Params__init__S                   
0080c740  ti_sysbios_hal_Hwi_HwiProxy_Params__init__S                  
0080c760  ti_sysbios_family_c64p_Hwi_clearInterrupt__E                 
0080c760  ti_sysbios_hal_Hwi_HwiProxy_clearInterrupt__E                
0080c760  ti_sysbios_hal_Hwi_clearInterrupt__E                         
0080c780  ti_sysbios_family_c64p_Hwi_startup__E                        
0080c780  ti_sysbios_hal_Hwi_HwiProxy_startup__E                       
0080c780  ti_sysbios_hal_Hwi_startup__E                                
0080c7a0  ti_sysbios_family_c64p_Hwi_switchFromBootStack__E            
0080c7a0  ti_sysbios_hal_Hwi_HwiProxy_switchFromBootStack__E           
0080c7a0  ti_sysbios_hal_Hwi_switchFromBootStack__E                    
0080c7c0  ti_sysbios_family_c64p_Hwi_unPluggedInterrupt__I             
0080c7e0  ti_sysbios_gates_GateHwi_Instance_init__E                    
0080c800  ti_sysbios_gates_GateHwi_enter__E                            
0080c820  ti_sysbios_gates_GateHwi_leave__E                            
0080c840  ti_sysbios_gates_GateHwi_query__E                            
0080c840  xdc_runtime_Main_Module_GateProxy_query__E                   
0080c840  xdc_runtime_System_Module_GateProxy_query__E                 
0080c860  ti_sysbios_gates_GateMutex_Instance_finalize__E              
0080c880  ti_sysbios_BIOS_RtsGateProxy_query__E                        
0080c880  ti_sysbios_gates_GateMutex_query__E                          
0080c880  ti_sysbios_heaps_HeapMem_Module_GateProxy_query__E           
0080c8a0  ti_sysbios_hal_Hwi_Module_startup__E                         
0080c8c0  ti_sysbios_heaps_HeapBuf_Object__get__S                      
0080c8e0  ti_sysbios_heaps_HeapMem_Module_GateProxy_enter__E           
0080c900  ti_sysbios_heaps_HeapMem_Module_GateProxy_leave__E           
0080c920  ti_sysbios_heaps_HeapMem_isBlocking__E                       
0080c940  ti_sysbios_knl_Clock_TimerProxy_getMaxTicks__E               
0080c960  ti_sysbios_knl_Idle_loop__E                                  
0080c980  ti_sysbios_knl_Queue_Instance_init__E                        
0080c9a0  ti_sysbios_knl_Queue_Object__get__S                          
0080c9c0  ti_sysbios_knl_Queue_destruct                                
0080c9e0  ti_sysbios_knl_Queue_empty__E                                
0080ca00  ti_sysbios_knl_Semaphore_Instance_finalize__E                
0080ca20  ti_sysbios_knl_Semaphore_Params__init__S                     
0080ca40  ti_sysbios_knl_Semaphore_delete                              
0080ca60  ti_sysbios_knl_Swi_disable__E                                
0080ca80  ti_sysbios_knl_Task_Params__init__S                          
0080caa0  ti_sysbios_knl_Task_disable__E                               
0080cac0  ti_sysbios_knl_Task_startup__E                               
0080cae0  ti_sysbios_knl_Clock_TimerProxy_Module__startupDone__S       
0080cae0  ti_sysbios_timers_rti_Timer_Module__startupDone__F           
0080cae0  ti_sysbios_timers_rti_Timer_Module__startupDone__S           
0080cb00  ti_sysbios_timers_rti_Timer_getMaxTicks__E                   
0080cb20  xdc_runtime_Error_getSite__E                                 
0080cb40  xdc_runtime_Error_raiseX__E                                  
0080cb60  xdc_runtime_Gate_enterSystem__E                              
0080cb80  xdc_runtime_Gate_leaveSystem__E                              
0080cba0  xdc_runtime_Memory_HeapProxy_alloc__E                        
0080cbc0  xdc_runtime_Memory_HeapProxy_free__E                         
0080cbe0  xdc_runtime_Memory_calloc__E                                 
0080cc00  xdc_runtime_Memory_free__E                                   
0080cc20  xdc_runtime_Memory_getMaxDefaultTypeAlign__E                 
0080cc40  xdc_runtime_Startup_exec__I                                  
0080cc60  xdc_runtime_Startup_reset__I                                 
0080cc80  xdc_runtime_Startup_rtsDone__E                               
0080cca0  xdc_runtime_SysStd_exit__E                                   
0080cca0  xdc_runtime_System_SupportProxy_exit__E                      
0080ccc0  xdc_runtime_SysStd_putch__E                                  
0080ccc0  xdc_runtime_System_SupportProxy_putch__E                     
0080cce0  xdc_runtime_SysStd_ready__E                                  
0080cce0  xdc_runtime_System_SupportProxy_ready__E                     
0080cd00  xdc_runtime_System_Module_GateProxy_enter__E                 
0080cd20  xdc_runtime_System_Module_GateProxy_leave__E                 
0080cd40  xdc_runtime_System_Module_startup__E                         
0080cd60  xdc_runtime_System_snprintf_va__E                            
0080cd60  xdc_runtime_System_snprintf_va__F                            
0080cd60  xdc_runtime_System_vsnprintf__E                              
0080cd80  xdc_runtime_Text_ropeText__E                                 
0080cda0  xdc_runtime_Text_visitRope__I                                
0080f7d8  xdc_runtime_Text_charTab__A                                  
00811196  ti_sysbios_family_c64p_Cache_Module__id__C                   
00813798  _ctypes_                                                     
0081389a  ti_sysbios_family_c64p_EventCombiner_Module__id__C           
00813ca0  xdc_runtime_Text_nodeTab__A                                  
00814038  ti_sysbios_knl_Task_Object__PARAMS__C                        
008140f8  ti_sysbios_family_c64p_Hwi_Object__PARAMS__C                 
00814180  xdc_runtime_Startup_sfxnTab__A                               
008141ac  ti_sysbios_heaps_HeapMem_Module__FXNS__C                     
008141f8  Mailbox_defaultCfg                                           
0081421c  ti_sysbios_gates_GateHwi_Module__FXNS__C                     
00814240  ti_sysbios_gates_GateMutex_Module__FXNS__C                   
00814264  ti_sysbios_heaps_HeapMem_Object__PARAMS__C                   
00814288  ti_sysbios_knl_Semaphore_Object__PARAMS__C                   
008142cc  ti_sysbios_family_c64p_Hwi_Object__DESC__C                   
008142ec  ti_sysbios_gates_GateHwi_Object__DESC__C                     
0081430c  ti_sysbios_gates_GateMutex_Object__DESC__C                   
0081432c  ti_sysbios_heaps_HeapMem_Object__DESC__C                     
0081434c  ti_sysbios_knl_Queue_Object__DESC__C                         
0081436c  ti_sysbios_knl_Semaphore_Object__DESC__C                     
0081438c  ti_sysbios_knl_Task_Object__DESC__C                          
008143f8  ti_sysbios_gates_GateHwi_Object__PARAMS__C                   
00814410  ti_sysbios_gates_GateMutex_Object__PARAMS__C                 
00814428  ti_sysbios_knl_Queue_Object__PARAMS__C                       
00814440  xdc_runtime_Startup_sfxnRts__A                               
00814456  ti_sysbios_family_c64p_Exception_Module__id__C               
0081446c  gADCBufFxnTable                                              
00814610  ADCBuf_defaultParams                                         
00814620  gADCBufHwCfg                                                 
00814630  ti_sysbios_family_c64p_EventCombiner_EVTMASK__C              
00814694  ti_sysbios_knl_Idle_funcList__C                              
0081469c  ti_sysbios_family_c62_TaskSupport_stackAlignment__C          
008146a0  xdc_runtime_Startup_firstFxns__A                             
008146a8  xdc_runtime_Startup_firstFxns__C                             
008146b0  xdc_runtime_Startup_lastFxns__C                              
008146b8  ti_sysbios_family_c64p_Cache_EMIFA_BASE__C                   
008146bc  ti_sysbios_family_c64p_Cache_EMIFA_CFG__C                    
008146c0  ti_sysbios_family_c64p_Cache_EMIFA_LENGTH__C                 
008146c4  ti_sysbios_family_c64p_Cache_EMIFB_BASE__C                   
008146c8  ti_sysbios_family_c64p_Cache_EMIFB_CFG__C                    
008146cc  ti_sysbios_family_c64p_Cache_EMIFB_LENGTH__C                 
008146d0  ti_sysbios_family_c64p_Cache_EMIFC_BASE__C                   
008146d4  ti_sysbios_family_c64p_Cache_EMIFC_CFG__C                    
008146d8  ti_sysbios_family_c64p_Cache_EMIFC_LENGTH__C                 
008146dc  ti_sysbios_family_c64p_Cache_E_invalidL1CacheSize__C         
008146e0  ti_sysbios_family_c64p_Cache_E_invalidL2CacheSize__C         
008146e4  ti_sysbios_family_c64p_Cache_MAR0_31__C                      
008146e8  ti_sysbios_family_c64p_Cache_MAR128_159__C                   
008146ec  ti_sysbios_family_c64p_Cache_MAR160_191__C                   
008146f0  ti_sysbios_family_c64p_Cache_MAR192_223__C                   
008146f4  ti_sysbios_family_c64p_Cache_MAR224_255__C                   
008146f8  ti_sysbios_family_c64p_Cache_MAR32_63__C                     
008146fc  ti_sysbios_family_c64p_Cache_MAR64_95__C                     
00814700  ti_sysbios_family_c64p_Cache_MAR96_127__C                    
00814704  ti_sysbios_family_c64p_EventCombiner_A_invalidEventId__C     
00814708  ti_sysbios_family_c64p_EventCombiner_EVTRegs__C              
0081470c  ti_sysbios_family_c64p_EventCombiner_E_unpluggedEvent__C     
00814710  ti_sysbios_family_c64p_EventCombiner_Module__diagsEnabled__C 
00814714  ti_sysbios_family_c64p_EventCombiner_Module__diagsIncluded__C
00814718  ti_sysbios_family_c64p_EventCombiner_Module__diagsMask__C    
0081471c  ti_sysbios_family_c64p_Exception_E_exceptionMax__C           
00814720  ti_sysbios_family_c64p_Exception_exceptionHook__C            
00814724  ti_sysbios_family_c64p_Exception_externalHook__C             
00814728  ti_sysbios_family_c64p_Exception_internalHook__C             
0081472c  ti_sysbios_family_c64p_Exception_nmiHook__C                  
00814730  ti_sysbios_family_c64p_Hwi_E_alreadyDefined__C               
00814734  ti_sysbios_family_c64p_Hwi_E_handleNotFound__C               
00814738  ti_sysbios_family_c64p_Hwi_E_invalidIntNum__C                
0081473c  ti_sysbios_family_c64p_Hwi_INTRMUX1Address__C                
00814740  ti_sysbios_family_c64p_Hwi_LD_end__C                         
00814744  ti_sysbios_family_c64p_Hwi_LM_begin__C                       
00814748  ti_sysbios_family_c64p_Hwi_Module__diagsEnabled__C           
0081474c  ti_sysbios_family_c64p_Hwi_Module__diagsIncluded__C          
00814750  ti_sysbios_family_c64p_Hwi_Module__diagsMask__C              
00814754  ti_sysbios_family_c64p_Hwi_Module__loggerFxn1__C             
00814758  ti_sysbios_family_c64p_Hwi_Module__loggerFxn8__C             
0081475c  ti_sysbios_family_c64p_Hwi_Module__loggerObj__C              
00814760  ti_sysbios_gates_GateMutex_A_badContext__C                   
00814764  ti_sysbios_gates_GateMutex_Instance_State_sem__O             
00814768  ti_sysbios_gates_GateMutex_Module__diagsEnabled__C           
0081476c  ti_sysbios_gates_GateMutex_Module__diagsIncluded__C          
00814770  ti_sysbios_gates_GateMutex_Module__diagsMask__C              
00814774  ti_sysbios_hal_Hwi_E_stackOverflow__C                        
00814778  ti_sysbios_heaps_HeapBuf_Instance_State_freeList__O          
0081477c  ti_sysbios_heaps_HeapBuf_Object__count__C                    
00814780  ti_sysbios_heaps_HeapBuf_numConstructedHeaps__C              
00814784  ti_sysbios_heaps_HeapMem_A_align__C                          
00814788  ti_sysbios_heaps_HeapMem_A_heapSize__C                       
0081478c  ti_sysbios_heaps_HeapMem_A_invalidFree__C                    
00814790  ti_sysbios_heaps_HeapMem_A_zeroBlock__C                      
00814794  ti_sysbios_heaps_HeapMem_E_memory__C                         
00814798  ti_sysbios_heaps_HeapMem_Module__diagsEnabled__C             
0081479c  ti_sysbios_heaps_HeapMem_Module__diagsIncluded__C            
008147a0  ti_sysbios_heaps_HeapMem_Module__diagsMask__C                
008147a4  ti_sysbios_heaps_HeapMem_Module__gateObj__C                  
008147a8  ti_sysbios_heaps_HeapMem_Object__count__C                    
008147ac  ti_sysbios_heaps_HeapMem_reqAlign__C                         
008147b0  ti_sysbios_knl_Clock_LM_begin__C                             
008147b4  ti_sysbios_knl_Clock_LM_tick__C                              
008147b8  ti_sysbios_knl_Clock_LW_delayed__C                           
008147bc  ti_sysbios_knl_Clock_Module_State_clockQ__O                  
008147c0  ti_sysbios_knl_Clock_Module__diagsEnabled__C                 
008147c4  ti_sysbios_knl_Clock_Module__diagsIncluded__C                
008147c8  ti_sysbios_knl_Clock_Module__diagsMask__C                    
008147cc  ti_sysbios_knl_Clock_Module__loggerFxn1__C                   
008147d0  ti_sysbios_knl_Clock_Module__loggerFxn2__C                   
008147d4  ti_sysbios_knl_Clock_Module__loggerObj__C                    
008147d8  ti_sysbios_knl_Idle_funcList__A                              
008147dc  ti_sysbios_knl_Semaphore_A_badContext__C                     
008147e0  ti_sysbios_knl_Semaphore_A_noEvents__C                       
008147e4  ti_sysbios_knl_Semaphore_A_overflow__C                       
008147e8  ti_sysbios_knl_Semaphore_A_pendTaskDisabled__C               
008147ec  ti_sysbios_knl_Semaphore_Instance_State_pendQ__O             
008147f0  ti_sysbios_knl_Semaphore_LM_pend__C                          
008147f4  ti_sysbios_knl_Semaphore_LM_post__C                          
008147f8  ti_sysbios_knl_Semaphore_Module__diagsEnabled__C             
008147fc  ti_sysbios_knl_Semaphore_Module__diagsIncluded__C            
00814800  ti_sysbios_knl_Semaphore_Module__diagsMask__C                
00814804  ti_sysbios_knl_Semaphore_Module__loggerFxn2__C               
00814808  ti_sysbios_knl_Semaphore_Module__loggerFxn4__C               
0081480c  ti_sysbios_knl_Semaphore_Module__loggerObj__C                
00814810  ti_sysbios_knl_Swi_LD_end__C                                 
00814814  ti_sysbios_knl_Swi_LM_begin__C                               
00814818  ti_sysbios_knl_Swi_LM_post__C                                
0081481c  ti_sysbios_knl_Swi_Module__diagsEnabled__C                   
00814820  ti_sysbios_knl_Swi_Module__diagsIncluded__C                  
00814824  ti_sysbios_knl_Swi_Module__diagsMask__C                      
00814828  ti_sysbios_knl_Swi_Module__loggerFxn1__C                     
0081482c  ti_sysbios_knl_Swi_Module__loggerFxn4__C                     
00814830  ti_sysbios_knl_Swi_Module__loggerObj__C                      
00814834  ti_sysbios_knl_Swi_Object__count__C                          
00814838  ti_sysbios_knl_Task_A_badPriority__C                         
0081483c  ti_sysbios_knl_Task_A_badTaskState__C                        
00814840  ti_sysbios_knl_Task_A_badThreadType__C                       
00814844  ti_sysbios_knl_Task_A_badTimeout__C                          
00814848  ti_sysbios_knl_Task_A_noPendElem__C                          
0081484c  ti_sysbios_knl_Task_A_sleepTaskDisabled__C                   
00814850  ti_sysbios_knl_Task_E_spOutOfBounds__C                       
00814854  ti_sysbios_knl_Task_E_stackOverflow__C                       
00814858  ti_sysbios_knl_Task_LD_block__C                              
0081485c  ti_sysbios_knl_Task_LD_exit__C                               
00814860  ti_sysbios_knl_Task_LD_ready__C                              
00814864  ti_sysbios_knl_Task_LM_sleep__C                              
00814868  ti_sysbios_knl_Task_LM_switch__C                             
0081486c  ti_sysbios_knl_Task_Module_State_inactiveQ__O                
00814870  ti_sysbios_knl_Task_Module__diagsEnabled__C                  
00814874  ti_sysbios_knl_Task_Module__diagsIncluded__C                 
00814878  ti_sysbios_knl_Task_Module__diagsMask__C                     
0081487c  ti_sysbios_knl_Task_Module__loggerFxn2__C                    
00814880  ti_sysbios_knl_Task_Module__loggerFxn4__C                    
00814884  ti_sysbios_knl_Task_Module__loggerObj__C                     
00814888  ti_sysbios_knl_Task_Object__count__C                         
0081488c  ti_sysbios_knl_Task_allBlockedFunc__C                        
00814890  ti_sysbios_knl_Task_defaultStackHeap__C                      
00814894  ti_sysbios_knl_Task_defaultStackSize__C                      
00814898  ti_sysbios_knl_Task_numConstructedTasks__C                   
0081489c  ti_sysbios_timers_rti_Timer_E_cannotSupport__C               
008148a0  ti_sysbios_timers_rti_Timer_Module__diagsEnabled__C          
008148a4  ti_sysbios_timers_rti_Timer_Module__diagsIncluded__C         
008148a8  ti_sysbios_timers_rti_Timer_Module__diagsMask__C             
008148ac  ti_sysbios_timers_rti_Timer_numTimerDevices__C               
008148b0  ti_sysbios_timers_rti_Timer_startupNeeded__C                 
008148b4  xdc_runtime_Assert_E_assertFailed__C                         
008148b8  xdc_runtime_Core_A_initializedParams__C                      
008148bc  xdc_runtime_Core_Module__diagsEnabled__C                     
008148c0  xdc_runtime_Core_Module__diagsIncluded__C                    
008148c4  xdc_runtime_Core_Module__diagsMask__C                        
008148c8  xdc_runtime_Error_E_memory__C                                
008148cc  xdc_runtime_Error_Module__diagsEnabled__C                    
008148d0  xdc_runtime_Error_Module__diagsIncluded__C                   
008148d4  xdc_runtime_Error_Module__diagsMask__C                       
008148d8  xdc_runtime_Error_Module__loggerFxn8__C                      
008148dc  xdc_runtime_Error_Module__loggerObj__C                       
008148e0  xdc_runtime_Error_policyFxn__C                               
008148e4  xdc_runtime_Error_policy__C                                  
008148e8  xdc_runtime_Error_raiseHook__C                               
008148ec  xdc_runtime_IGateProvider_Interface__BASE__C                 
008148f0  xdc_runtime_IHeap_Interface__BASE__C                         
008148f4  xdc_runtime_IModule_Interface__BASE__C                       
008148f8  xdc_runtime_Log_L_error__C                                   
008148fc  xdc_runtime_Memory_defaultHeapInstance__C                    
00814900  xdc_runtime_Startup_execImpl__C                              
00814904  xdc_runtime_Startup_maxPasses__C                             
00814908  xdc_runtime_Startup_sfxnRts__C                               
0081490c  xdc_runtime_Startup_sfxnTab__C                               
00814910  xdc_runtime_System_Module__gateObj__C                        
00814914  xdc_runtime_System_abortFxn__C                               
00814918  xdc_runtime_System_exitFxn__C                                
0081491c  xdc_runtime_System_extendFxn__C                              
00814920  xdc_runtime_System_maxAtexitHandlers__C                      
00814924  xdc_runtime_Text_charTab__C                                  
00814928  xdc_runtime_Text_nameEmpty__C                                
0081492c  xdc_runtime_Text_nameStatic__C                               
00814930  xdc_runtime_Text_nameUnknown__C                              
00814934  xdc_runtime_Text_nodeTab__C                                  
00814938  xdc_runtime_Text_visitRopeFxn__C                             
0081493c  ti_sysbios_family_c64p_Exception_useInternalBuffer__C        
0081493e  ti_sysbios_family_c64p_Hwi_Module__id__C                     
00814940  ti_sysbios_family_c64p_Hwi_Module__loggerDefined__C          
00814942  ti_sysbios_gates_GateMutex_Module__id__C                     
00814944  ti_sysbios_hal_Hwi_Module__id__C                             
00814946  ti_sysbios_heaps_HeapMem_Module__id__C                       
00814948  ti_sysbios_knl_Clock_Module__id__C                           
0081494a  ti_sysbios_knl_Clock_Module__loggerDefined__C                
0081494c  ti_sysbios_knl_Semaphore_Module__id__C                       
0081494e  ti_sysbios_knl_Semaphore_Module__loggerDefined__C            
00814950  ti_sysbios_knl_Swi_Module__id__C                             
00814952  ti_sysbios_knl_Swi_Module__loggerDefined__C                  
00814954  ti_sysbios_knl_Task_Module__id__C                            
00814956  ti_sysbios_knl_Task_Module__loggerDefined__C                 
00814958  ti_sysbios_timers_rti_Timer_Module__id__C                    
0081495a  ti_sysbios_timers_rti_Timer_continueOnSuspend__C             
0081495c  xdc_runtime_Core_Module__id__C                               
0081495e  xdc_runtime_Error_Module__loggerDefined__C                   
00814960  xdc_runtime_Error_maxDepth__C                                
00814962  xdc_runtime_Main_Module__id__C                               
00814964  xdc_runtime_Memory_Module__id__C                             
00814966  xdc_runtime_Text_charCnt__C                                  
00814968  xdc_runtime_Text_isLoaded__C                                 
0081496a  xdc_runtime_Text_registryModsLastId__C                       
0081496c  xdc_runtime_Text_unnamedModsLastId__C                        
00814970  ti_sysbios_knl_Task_Instance_State_0_stack__A                
00815170  dynPhaseShiftCfg                                             
00815378  chirpCfg                                                     
00815508  __TI_tmpnams                                                 
00815648  gTestStartStopCfg                                            
00815718  progFiltCoef                                                 
008157e8  advFrameCfg                                                  
008158a0  gTestMiscCfg                                                 
00815958  profileCfg                                                   
00815a08  bpmChirpCfg                                                  
00815aa8  rxGainPhaseMonCfg                                            
00815aec  testSourceCfg                                                
00815b30  txGainPhMisMatchMonCfg                                       
00815b64  extAnaSigMonCfg                                              
00815b84  gpAdcCfg                                                     
00815ba0  frameCfg                                                     
00815bb8  gMmwaveLinkMCB                                               
00815bd0  interRxGainPhCfg                                             
00815be8  synthFreqNonLiveMonCfg                                       
00815c00  contModeCfg                                                  
00815c14  runTimeCalib                                                 
00815c28  rxSatMonCfg                                                  
00815c3c  tempMonCfg                                                   
00815c50  bpmCommonCfg                                                 
00815c60  monRxIfStageCfg                                              
00815c70  phaseShiftCfg                                                
00815c80  tx0BpmMonCfg                                                 
00815c90  tx0PowMonCfg                                                 
00815ca0  tx1BpmMonCfg                                                 
00815cb0  tx1PowMonCfg                                                 
00815cc0  tx2BpmMonCfg                                                 
00815cd0  tx2PowMonCfg                                                 
00815ce0  allTxBallbreakMonCfg                                         
00815cec  allTxBpmMonCfg                                               
00815cf8  allTxPowMonCfg                                               
00815d04  allTxanaSigMonCfg                                            
00815d10  freqLimit                                                    
00815d1c  gTestMCB                                                     
00815d28  monDigEnables                                                
00815d34  monDigPeriodicCfg                                            
00815d40  rfInitCalib                                                  
00815d4c  rxMixInpwrMonCfg                                             
00815d58  rxNoiseMonCfg                                                
00815d64  sigImgMonCfg                                                 
00815d70  synthFreqMonCfg                                              
00815d7c  tx0BallBreakMonCfg                                           
00815d88  tx1BallBreakMonCfg                                           
00815d94  tx2BallBreakMonCfg                                           
00815da0  adcOutCfgArgs                                                
00815da8  calMonTimeUnitConf                                           
00815db0  chCfg                                                        
00815db8  dualClkCompMonCfg                                            
00815dc0  gpadcIntAnaSigMonCfg                                         
00815dc8  miscCfg                                                      
00815dd0  monAnaEnables                                                
00815dd8  parmbuf                                                      
00815de0  pllConVoltMonCfg                                             
00815de8  pmClkLoIntAnaSigMonCfg                                       
00815df0  rxIntAnaSigMonCfg                                            
00815df8  tx0IntAnaSigMonCfg                                           
00815e00  tx1IntAnaSigMonCfg                                           
00815e08  tx2IntAnaSigMonCfg                                           
00815e10  contModeEn                                                   
00815e14  deviceHsiClk                                                 
00815e18  dynPwrSave                                                   
00815e1c  lowPowerModeCfg                                              
00815e20  progFiltCfg                                                  
00815e24  rfLdoBypassCfg                                               
00815e28  rxGainTempLutReadCfg                                         
00815e2c  subFrameTrigCfg                                              
00815e30  testSourceEn                                                 
00815e34  txGainTempLutReadCfg                                         
00815e38  ti_sysbios_family_c64p_EventCombiner_Module__state__V        
00816238  gMonDataAeStrct                                              
008166f0  _ftable                                                      
008168d0  rl_rxMsg                                                     
008169d0  rl_txMsg                                                     
00816ad0  _stream                                                      
00816b70  ti_sysbios_knl_Swi_Module_State_0_readyQ__A                  
00816bf0  ti_sysbios_knl_Task_Module_State_0_readyQ__A                 
00816c70  _device                                                      
00816ce8  ti_sysbios_family_c64p_Hwi_Module__state__V                  
00816d54  _lock                                                        
00816d58  ti_sysbios_knl_Task_Object__table__V                         
00816db4  gMailboxMCB                                                  
00816e04  _unlock                                                      
00816e08  monAeCnt                                                     
00816e58  rcvGpAdcData                                                 
00816ea0  ti_sysbios_knl_Task_Module__state__V                         
00816ee8  ti_sysbios_gates_GateMutex_Object__table__V                  
00816f28  ti_sysbios_timers_rti_Timer_Object__table__V                 
00816f64  ti_sysbios_family_c64p_Exception_Module__state__V            
00816f94  retryNegativeTestCfg                                         
00816f98  ti_sysbios_knl_Swi_Object__table__V                          
00816fc8  ti_sysbios_knl_Clock_Module__state__V                        
00816ff4  ti_sysbios_BIOS_Module__state__V                             
00817018  gSOCHwAttrib                                                 
00817038  xdc_runtime_Error_IgnoreBlock                                
00817058  xdc_runtime_System_Module_State_0_atexitHandlers__A          
00817078  ti_sysbios_knl_Swi_Module__state__V                          
00817094  __TI_ft_end                                                  
00817098  ADCBuf_config                                                
008170b0  gMailboxDssBssHwCfg                                          
008170c8  gMailboxDssMssHwCfg                                          
008170e0  ti_sysbios_family_c64p_Hwi_Object__table__V                  
008170f8  ti_sysbios_heaps_HeapMem_Object__table__V                    
00817110  ti_sysbios_timers_rti_Timer_Module_State_0_device__A         
00817128  ti_sysbios_timers_rti_Timer_Module_State_0_intFreqs__A       
00817138  ti_sysbios_timers_rti_Timer_Module__state__V                 
00817148  rfDevCfg                                                     
00817154  __TI_cleanup_ptr                                             
00817158  __TI_dtors_ptr                                               
0081715c  __TI_enable_exit_profile_output                              
00817160  ti_sysbios_family_c64p_Hwi_Module__root__V                   
00817168  ti_sysbios_gates_GateHwi_Module__root__V                     
00817170  ti_sysbios_gates_GateMutex_Module__root__V                   
00817178  ti_sysbios_hal_Hwi_Object__table__V                          
00817180  ti_sysbios_heaps_HeapMem_Module__root__V                     
00817188  ti_sysbios_knl_Queue_Module__root__V                         
00817190  ti_sysbios_knl_Semaphore_Module__root__V                     
00817198  ti_sysbios_knl_Task_Module__root__V                          
008171a0  ti_sysbios_timers_rti_Timer_Module_State_0_handles__A        
008171a8  xdc_runtime_Registry_Module__state__V                        
008171b0  xdc_runtime_Startup_Module__state__V                         
008171b8  xdc_runtime_System_Module__state__V                          
008171c0  __errno                                                      
008171c0  errno                                                        
008171c4  ti_sysbios_family_c64p_Cache_Module__state__V                
008171c8  ti_sysbios_gates_GateHwi_Object__table__V                    
008171cc  ti_sysbios_heaps_HeapBuf_Module__state__V                    
008171d0  ti_sysbios_knl_Task_Module_State_0_idleTask__A               
008171d4  xdc_runtime_Memory_Module__state__V                          
008171d8  xdc_runtime_Error_Module__state__V                           
008171e0  _stack                                                       
008181e0  __TI_STACK_END                                               
00818438  __CIOBUF_                                                    
00818558  __TI_STATIC_BASE                                             
00818558  adcbufHandle                                                 
0081855c  gLatentFaultReportReceived                                   
00818560  gSensorStopSem                                               
00818564  g_MailboxInterruptFunc                                       
00818568  deviceVariant                                                
00818569  monTestPassFlag                                              
0081856c  gInitTimeCalibStatus                                         
00818570  gFrameStartStatus                                            
00818574  gMmwlChecksumFailAsyncEvent                                  
00818578  gMmwlCrcFailAsyncEvent                                       
0081857c  isGetGpAdcMeasData                                           
0081857d  eDMADataTransferDone                                         
0081857e  hit_count                                                    
00818580  cqTestStatus                                                 
00818581  cpTestStatus                                                 
00818584  MCPI_Result                                                  
00818588  MCPI_FailSignature                                           
00818590  gTestNumber                                                  
00818594  gNumberOfFrames                                              
00818596  gIwrDeviceFlag                                               
0081859c  gCRCRegister                                                 
008185a0  gMCPILogMessageSize                                          
20000000  dfpTestLoadCfg_001                                           
20000760  dynPhaseShiftCfg_001                                         
20000968  chirpCfg_001                                                 
20000af8  gTestStartStopCfg_001                                        
20000bc8  progFiltCoef_001                                             
20000c98  advFrameCfg_001                                              
20000d50  gTestMiscCfg_001                                             
20000e08  profileCfg_001                                               
20000eb8  bpmChirpCfg_001                                              
20000f58  rxGainPhaseMonCfg_001                                        
20000f9c  testSourceCfg_001                                            
20000fe0  txGainPhMisMatchMonCfg_001                                   
20001014  extAnaSigMonCfg_001                                          
20001034  gpAdcCfg_001                                                 
20001050  frameCfg_001                                                 
20001068  interRxGainPhCfg_001                                         
20001080  synthFreqNonLiveMonCfg_001                                   
20001098  contModeCfg_001                                              
200010ac  runTimeCalib_001                                             
200010c0  rxSatMonCfg_001                                              
200010d4  tempMonCfg_001                                               
200010e8  bpmCommonCfg_001                                             
200010f8  monRxIfStageCfg_001                                          
20001108  phaseShiftCfg_001                                            
20001118  tx0BpmMonCfg_001                                             
20001128  tx0PowMonCfg_001                                             
20001138  tx1BpmMonCfg_001                                             
20001148  tx1PowMonCfg_001                                             
20001158  tx2BpmMonCfg_001                                             
20001168  tx2PowMonCfg_001                                             
20001178  allTxBallbreakMonCfg_001                                     
20001184  allTxBpmMonCfg_001                                           
20001190  allTxPowMonCfg_001                                           
2000119c  allTxanaSigMonCfg_001                                        
200011a8  freqLimit_001                                                
200011b4  monDigEnables_001                                            
200011c0  monDigPeriodicCfg_001                                        
200011cc  rfInitCalib_001                                              
200011d8  rxMixInpwrMonCfg_001                                         
200011e4  rxNoiseMonCfg_001                                            
200011f0  sigImgMonCfg_001                                             
200011fc  synthFreqMonCfg_001                                          
20001208  tx0BallBreakMonCfg_001                                       
20001214  tx1BallBreakMonCfg_001                                       
20001220  tx2BallBreakMonCfg_001                                       
2000122c  adcOutCfgArgs_001                                            
20001234  calMonTimeUnitConf_001                                       
2000123c  chCfg_001                                                    
20001244  dualClkCompMonCfg_001                                        
2000124c  gpadcIntAnaSigMonCfg_001                                     
20001254  miscCfg_001                                                  
2000125c  monAnaEnables_001                                            
20001264  pllConVoltMonCfg_001                                         
2000126c  pmClkLoIntAnaSigMonCfg_001                                   
20001274  rxIntAnaSigMonCfg_001                                        
2000127c  tx0IntAnaSigMonCfg_001                                       
20001284  tx1IntAnaSigMonCfg_001                                       
2000128c  tx2IntAnaSigMonCfg_001                                       
20001294  contModeEn_001                                               
20001298  deviceHsiClk_001                                             
2000129c  dynPwrSave_001                                               
200012a0  lowPowerModeCfg_001                                          
200012a4  progFiltCfg_001                                              
200012a8  rfLdoBypassCfg_001                                           
200012ac  rxGainTempLutReadCfg_001                                     
200012b0  subFrameTrigCfg_001                                          
200012b4  testSourceEn_001                                             
200012b8  txGainTempLutReadCfg_001                                     
20001300  dfpTestLoadCfg_002                                           
20001a60  dynPhaseShiftCfg_002                                         
20001c68  chirpCfg_002                                                 
20001df8  gTestStartStopCfg_002                                        
20001ec8  progFiltCoef_002                                             
20001f98  advFrameCfg_002                                              
20002050  gTestMiscCfg_002                                             
20002108  profileCfg_002                                               
200021b8  bpmChirpCfg_002                                              
20002258  rxGainPhaseMonCfg_002                                        
2000229c  testSourceCfg_002                                            
200022e0  txGainPhMisMatchMonCfg_002                                   
20002314  extAnaSigMonCfg_002                                          
20002334  gpAdcCfg_002                                                 
20002350  frameCfg_002                                                 
20002368  interRxGainPhCfg_002                                         
20002380  synthFreqNonLiveMonCfg_002                                   
20002398  contModeCfg_002                                              
200023ac  runTimeCalib_002                                             
200023c0  rxSatMonCfg_002                                              
200023d4  tempMonCfg_002                                               
200023e8  bpmCommonCfg_002                                             
200023f8  monRxIfStageCfg_002                                          
20002408  phaseShiftCfg_002                                            
20002418  tx0BpmMonCfg_002                                             
20002428  tx0PowMonCfg_002                                             
20002438  tx1BpmMonCfg_002                                             
20002448  tx1PowMonCfg_002                                             
20002458  tx2BpmMonCfg_002                                             
20002468  tx2PowMonCfg_002                                             
20002478  allTxBallbreakMonCfg_002                                     
20002484  allTxBpmMonCfg_002                                           
20002490  allTxPowMonCfg_002                                           
2000249c  allTxanaSigMonCfg_002                                        
200024a8  freqLimit_002                                                
200024b4  monDigEnables_002                                            
200024c0  monDigPeriodicCfg_002                                        
200024cc  rfInitCalib_002                                              
200024d8  rxMixInpwrMonCfg_002                                         
200024e4  rxNoiseMonCfg_002                                            
200024f0  sigImgMonCfg_002                                             
200024fc  synthFreqMonCfg_002                                          
20002508  tx0BallBreakMonCfg_002                                       
20002514  tx1BallBreakMonCfg_002                                       
20002520  tx2BallBreakMonCfg_002                                       
2000252c  adcOutCfgArgs_002                                            
20002534  calMonTimeUnitConf_002                                       
2000253c  chCfg_002                                                    
20002544  dualClkCompMonCfg_002                                        
2000254c  gpadcIntAnaSigMonCfg_002                                     
20002554  miscCfg_002                                                  
2000255c  monAnaEnables_002                                            
20002564  pllConVoltMonCfg_002                                         
2000256c  pmClkLoIntAnaSigMonCfg_002                                   
20002574  rxIntAnaSigMonCfg_002                                        
2000257c  tx0IntAnaSigMonCfg_002                                       
20002584  tx1IntAnaSigMonCfg_002                                       
2000258c  tx2IntAnaSigMonCfg_002                                       
20002594  contModeEn_002                                               
20002598  deviceHsiClk_002                                             
2000259c  dynPwrSave_002                                               
200025a0  lowPowerModeCfg_002                                          
200025a4  progFiltCfg_002                                              
200025a8  rfLdoBypassCfg_002                                           
200025ac  rxGainTempLutReadCfg_002                                     
200025b0  subFrameTrigCfg_002                                          
200025b4  testSourceEn_002                                             
200025b8  txGainTempLutReadCfg_002                                     
200025c0  dfpTestLoadCfg_003                                           
20002d20  dynPhaseShiftCfg_003                                         
20002f28  chirpCfg_003                                                 
200030b8  gTestStartStopCfg_003                                        
20003188  progFiltCoef_003                                             
20003258  advFrameCfg_003                                              
20003310  gTestMiscCfg_003                                             
200033c8  profileCfg_003                                               
20003478  bpmChirpCfg_003                                              
20003518  rxGainPhaseMonCfg_003                                        
2000355c  testSourceCfg_003                                            
200035a0  txGainPhMisMatchMonCfg_003                                   
200035d4  extAnaSigMonCfg_003                                          
200035f4  gpAdcCfg_003                                                 
20003610  frameCfg_003                                                 
20003628  interRxGainPhCfg_003                                         
20003640  synthFreqNonLiveMonCfg_003                                   
20003658  contModeCfg_003                                              
2000366c  runTimeCalib_003                                             
20003680  rxSatMonCfg_003                                              
20003694  tempMonCfg_003                                               
200036a8  bpmCommonCfg_003                                             
200036b8  monRxIfStageCfg_003                                          
200036c8  phaseShiftCfg_003                                            
200036d8  tx0BpmMonCfg_003                                             
200036e8  tx0PowMonCfg_003                                             
200036f8  tx1BpmMonCfg_003                                             
20003708  tx1PowMonCfg_003                                             
20003718  tx2BpmMonCfg_003                                             
20003728  tx2PowMonCfg_003                                             
20003738  allTxBallbreakMonCfg_003                                     
20003744  allTxBpmMonCfg_003                                           
20003750  allTxPowMonCfg_003                                           
2000375c  allTxanaSigMonCfg_003                                        
20003768  freqLimit_003                                                
20003774  monDigEnables_003                                            
20003780  monDigPeriodicCfg_003                                        
2000378c  rfInitCalib_003                                              
20003798  rxMixInpwrMonCfg_003                                         
200037a4  rxNoiseMonCfg_003                                            
200037b0  sigImgMonCfg_003                                             
200037bc  synthFreqMonCfg_003                                          
200037c8  tx0BallBreakMonCfg_003                                       
200037d4  tx1BallBreakMonCfg_003                                       
200037e0  tx2BallBreakMonCfg_003                                       
200037ec  adcOutCfgArgs_003                                            
200037f4  calMonTimeUnitConf_003                                       
200037fc  chCfg_003                                                    
20003804  dualClkCompMonCfg_003                                        
2000380c  gpadcIntAnaSigMonCfg_003                                     
20003814  miscCfg_003                                                  
2000381c  monAnaEnables_003                                            
20003824  pllConVoltMonCfg_003                                         
2000382c  pmClkLoIntAnaSigMonCfg_003                                   
20003834  rxIntAnaSigMonCfg_003                                        
2000383c  tx0IntAnaSigMonCfg_003                                       
20003844  tx1IntAnaSigMonCfg_003                                       
2000384c  tx2IntAnaSigMonCfg_003                                       
20003854  contModeEn_003                                               
20003858  deviceHsiClk_003                                             
2000385c  dynPwrSave_003                                               
20003860  lowPowerModeCfg_003                                          
20003864  progFiltCfg_003                                              
20003868  rfLdoBypassCfg_003                                           
2000386c  rxGainTempLutReadCfg_003                                     
20003870  subFrameTrigCfg_003                                          
20003874  testSourceEn_003                                             
20003878  txGainTempLutReadCfg_003                                     
20003880  dfpTestLoadCfg_004                                           
20003fe0  dynPhaseShiftCfg_004                                         
200041e8  chirpCfg_004                                                 
20004378  gTestStartStopCfg_004                                        
20004448  progFiltCoef_004                                             
20004518  advFrameCfg_004                                              
200045d0  gTestMiscCfg_004                                             
20004688  profileCfg_004                                               
20004738  bpmChirpCfg_004                                              
200047d8  rxGainPhaseMonCfg_004                                        
2000481c  testSourceCfg_004                                            
20004860  txGainPhMisMatchMonCfg_004                                   
20004894  extAnaSigMonCfg_004                                          
200048b4  gpAdcCfg_004                                                 
200048d0  frameCfg_004                                                 
200048e8  interRxGainPhCfg_004                                         
20004900  synthFreqNonLiveMonCfg_004                                   
20004918  contModeCfg_004                                              
2000492c  runTimeCalib_004                                             
20004940  rxSatMonCfg_004                                              
20004954  tempMonCfg_004                                               
20004968  bpmCommonCfg_004                                             
20004978  monRxIfStageCfg_004                                          
20004988  phaseShiftCfg_004                                            
20004998  tx0BpmMonCfg_004                                             
200049a8  tx0PowMonCfg_004                                             
200049b8  tx1BpmMonCfg_004                                             
200049c8  tx1PowMonCfg_004                                             
200049d8  tx2BpmMonCfg_004                                             
200049e8  tx2PowMonCfg_004                                             
200049f8  allTxBallbreakMonCfg_004                                     
20004a04  allTxBpmMonCfg_004                                           
20004a10  allTxPowMonCfg_004                                           
20004a1c  allTxanaSigMonCfg_004                                        
20004a28  freqLimit_004                                                
20004a34  monDigEnables_004                                            
20004a40  monDigPeriodicCfg_004                                        
20004a4c  rfInitCalib_004                                              
20004a58  rxMixInpwrMonCfg_004                                         
20004a64  rxNoiseMonCfg_004                                            
20004a70  sigImgMonCfg_004                                             
20004a7c  synthFreqMonCfg_004                                          
20004a88  tx0BallBreakMonCfg_004                                       
20004a94  tx1BallBreakMonCfg_004                                       
20004aa0  tx2BallBreakMonCfg_004                                       
20004aac  adcOutCfgArgs_004                                            
20004ab4  calMonTimeUnitConf_004                                       
20004abc  chCfg_004                                                    
20004ac4  dualClkCompMonCfg_004                                        
20004acc  gpadcIntAnaSigMonCfg_004                                     
20004ad4  miscCfg_004                                                  
20004adc  monAnaEnables_004                                            
20004ae4  pllConVoltMonCfg_004                                         
20004aec  pmClkLoIntAnaSigMonCfg_004                                   
20004af4  rxIntAnaSigMonCfg_004                                        
20004afc  tx0IntAnaSigMonCfg_004                                       
20004b04  tx1IntAnaSigMonCfg_004                                       
20004b0c  tx2IntAnaSigMonCfg_004                                       
20004b14  contModeEn_004                                               
20004b18  deviceHsiClk_004                                             
20004b1c  dynPwrSave_004                                               
20004b20  lowPowerModeCfg_004                                          
20004b24  progFiltCfg_004                                              
20004b28  rfLdoBypassCfg_004                                           
20004b2c  rxGainTempLutReadCfg_004                                     
20004b30  subFrameTrigCfg_004                                          
20004b34  testSourceEn_004                                             
20004b38  txGainTempLutReadCfg_004                                     
20004b40  dfpTestLoadCfg_005                                           
200052a0  dynPhaseShiftCfg_005                                         
200054a8  chirpCfg_005                                                 
20005638  gTestStartStopCfg_005                                        
20005708  progFiltCoef_005                                             
200057d8  advFrameCfg_005                                              
20005890  gTestMiscCfg_005                                             
20005948  profileCfg_005                                               
200059f8  bpmChirpCfg_005                                              
20005a98  rxGainPhaseMonCfg_005                                        
20005adc  testSourceCfg_005                                            
20005b20  txGainPhMisMatchMonCfg_005                                   
20005b54  extAnaSigMonCfg_005                                          
20005b74  gpAdcCfg_005                                                 
20005b90  frameCfg_005                                                 
20005ba8  interRxGainPhCfg_005                                         
20005bc0  synthFreqNonLiveMonCfg_005                                   
20005bd8  contModeCfg_005                                              
20005bec  runTimeCalib_005                                             
20005c00  rxSatMonCfg_005                                              
20005c14  tempMonCfg_005                                               
20005c28  bpmCommonCfg_005                                             
20005c38  monRxIfStageCfg_005                                          
20005c48  phaseShiftCfg_005                                            
20005c58  tx0BpmMonCfg_005                                             
20005c68  tx0PowMonCfg_005                                             
20005c78  tx1BpmMonCfg_005                                             
20005c88  tx1PowMonCfg_005                                             
20005c98  tx2BpmMonCfg_005                                             
20005ca8  tx2PowMonCfg_005                                             
20005cb8  allTxBallbreakMonCfg_005                                     
20005cc4  allTxBpmMonCfg_005                                           
20005cd0  allTxPowMonCfg_005                                           
20005cdc  allTxanaSigMonCfg_005                                        
20005ce8  freqLimit_005                                                
20005cf4  monDigEnables_005                                            
20005d00  monDigPeriodicCfg_005                                        
20005d0c  rfInitCalib_005                                              
20005d18  rxMixInpwrMonCfg_005                                         
20005d24  rxNoiseMonCfg_005                                            
20005d30  sigImgMonCfg_005                                             
20005d3c  synthFreqMonCfg_005                                          
20005d48  tx0BallBreakMonCfg_005                                       
20005d54  tx1BallBreakMonCfg_005                                       
20005d60  tx2BallBreakMonCfg_005                                       
20005d6c  adcOutCfgArgs_005                                            
20005d74  calMonTimeUnitConf_005                                       
20005d7c  chCfg_005                                                    
20005d84  dualClkCompMonCfg_005                                        
20005d8c  gpadcIntAnaSigMonCfg_005                                     
20005d94  miscCfg_005                                                  
20005d9c  monAnaEnables_005                                            
20005da4  pllConVoltMonCfg_005                                         
20005dac  pmClkLoIntAnaSigMonCfg_005                                   
20005db4  rxIntAnaSigMonCfg_005                                        
20005dbc  tx0IntAnaSigMonCfg_005                                       
20005dc4  tx1IntAnaSigMonCfg_005                                       
20005dcc  tx2IntAnaSigMonCfg_005                                       
20005dd4  contModeEn_005                                               
20005dd8  deviceHsiClk_005                                             
20005ddc  dynPwrSave_005                                               
20005de0  lowPowerModeCfg_005                                          
20005de4  progFiltCfg_005                                              
20005de8  rfLdoBypassCfg_005                                           
20005dec  rxGainTempLutReadCfg_005                                     
20005df0  subFrameTrigCfg_005                                          
20005df4  testSourceEn_005                                             
20005df8  txGainTempLutReadCfg_005                                     
20005e00  dfpTestLoadCfg_006                                           
20006560  dynPhaseShiftCfg_006                                         
20006768  chirpCfg_006                                                 
200068f8  gTestStartStopCfg_006                                        
200069c8  progFiltCoef_006                                             
20006a98  advFrameCfg_006                                              
20006b50  gTestMiscCfg_006                                             
20006c08  profileCfg_006                                               
20006cb8  bpmChirpCfg_006                                              
20006d58  rxGainPhaseMonCfg_006                                        
20006d9c  testSourceCfg_006                                            
20006de0  txGainPhMisMatchMonCfg_006                                   
20006e14  extAnaSigMonCfg_006                                          
20006e34  gpAdcCfg_006                                                 
20006e50  frameCfg_006                                                 
20006e68  interRxGainPhCfg_006                                         
20006e80  synthFreqNonLiveMonCfg_006                                   
20006e98  contModeCfg_006                                              
20006eac  runTimeCalib_006                                             
20006ec0  rxSatMonCfg_006                                              
20006ed4  tempMonCfg_006                                               
20006ee8  bpmCommonCfg_006                                             
20006ef8  monRxIfStageCfg_006                                          
20006f08  phaseShiftCfg_006                                            
20006f18  tx0BpmMonCfg_006                                             
20006f28  tx0PowMonCfg_006                                             
20006f38  tx1BpmMonCfg_006                                             
20006f48  tx1PowMonCfg_006                                             
20006f58  tx2BpmMonCfg_006                                             
20006f68  tx2PowMonCfg_006                                             
20006f78  allTxBallbreakMonCfg_006                                     
20006f84  allTxBpmMonCfg_006                                           
20006f90  allTxPowMonCfg_006                                           
20006f9c  allTxanaSigMonCfg_006                                        
20006fa8  freqLimit_006                                                
20006fb4  monDigEnables_006                                            
20006fc0  monDigPeriodicCfg_006                                        
20006fcc  rfInitCalib_006                                              
20006fd8  rxMixInpwrMonCfg_006                                         
20006fe4  rxNoiseMonCfg_006                                            
20006ff0  sigImgMonCfg_006                                             
20006ffc  synthFreqMonCfg_006                                          
20007008  tx0BallBreakMonCfg_006                                       
20007014  tx1BallBreakMonCfg_006                                       
20007020  tx2BallBreakMonCfg_006                                       
2000702c  adcOutCfgArgs_006                                            
20007034  calMonTimeUnitConf_006                                       
2000703c  chCfg_006                                                    
20007044  dualClkCompMonCfg_006                                        
2000704c  gpadcIntAnaSigMonCfg_006                                     
20007054  miscCfg_006                                                  
2000705c  monAnaEnables_006                                            
20007064  pllConVoltMonCfg_006                                         
2000706c  pmClkLoIntAnaSigMonCfg_006                                   
20007074  rxIntAnaSigMonCfg_006                                        
2000707c  tx0IntAnaSigMonCfg_006                                       
20007084  tx1IntAnaSigMonCfg_006                                       
2000708c  tx2IntAnaSigMonCfg_006                                       
20007094  contModeEn_006                                               
20007098  deviceHsiClk_006                                             
2000709c  dynPwrSave_006                                               
200070a0  lowPowerModeCfg_006                                          
200070a4  progFiltCfg_006                                              
200070a8  rfLdoBypassCfg_006                                           
200070ac  rxGainTempLutReadCfg_006                                     
200070b0  subFrameTrigCfg_006                                          
200070b4  testSourceEn_006                                             
200070b8  txGainTempLutReadCfg_006                                     
200070c0  dfpTestLoadCfg_007                                           
20007820  dynPhaseShiftCfg_007                                         
20007a28  chirpCfg_007                                                 
20007bb8  gTestStartStopCfg_007                                        
20007c88  progFiltCoef_007                                             
20007d58  advFrameCfg_007                                              
20007e10  gTestMiscCfg_007                                             
20007ec8  profileCfg_007                                               
20007f78  bpmChirpCfg_007                                              
20008018  rxGainPhaseMonCfg_007                                        
2000805c  testSourceCfg_007                                            
200080a0  txGainPhMisMatchMonCfg_007                                   
200080d4  extAnaSigMonCfg_007                                          
200080f4  gpAdcCfg_007                                                 
20008110  frameCfg_007                                                 
20008128  interRxGainPhCfg_007                                         
20008140  synthFreqNonLiveMonCfg_007                                   
20008158  contModeCfg_007                                              
2000816c  runTimeCalib_007                                             
20008180  rxSatMonCfg_007                                              
20008194  tempMonCfg_007                                               
200081a8  bpmCommonCfg_007                                             
200081b8  monRxIfStageCfg_007                                          
200081c8  phaseShiftCfg_007                                            
200081d8  tx0BpmMonCfg_007                                             
200081e8  tx0PowMonCfg_007                                             
200081f8  tx1BpmMonCfg_007                                             
20008208  tx1PowMonCfg_007                                             
20008218  tx2BpmMonCfg_007                                             
20008228  tx2PowMonCfg_007                                             
20008238  allTxBallbreakMonCfg_007                                     
20008244  allTxBpmMonCfg_007                                           
20008250  allTxPowMonCfg_007                                           
2000825c  allTxanaSigMonCfg_007                                        
20008268  freqLimit_007                                                
20008274  monDigEnables_007                                            
20008280  monDigPeriodicCfg_007                                        
2000828c  rfInitCalib_007                                              
20008298  rxMixInpwrMonCfg_007                                         
200082a4  rxNoiseMonCfg_007                                            
200082b0  sigImgMonCfg_007                                             
200082bc  synthFreqMonCfg_007                                          
200082c8  tx0BallBreakMonCfg_007                                       
200082d4  tx1BallBreakMonCfg_007                                       
200082e0  tx2BallBreakMonCfg_007                                       
200082ec  adcOutCfgArgs_007                                            
200082f4  calMonTimeUnitConf_007                                       
200082fc  chCfg_007                                                    
20008304  dualClkCompMonCfg_007                                        
2000830c  gpadcIntAnaSigMonCfg_007                                     
20008314  miscCfg_007                                                  
2000831c  monAnaEnables_007                                            
20008324  pllConVoltMonCfg_007                                         
2000832c  pmClkLoIntAnaSigMonCfg_007                                   
20008334  rxIntAnaSigMonCfg_007                                        
2000833c  tx0IntAnaSigMonCfg_007                                       
20008344  tx1IntAnaSigMonCfg_007                                       
2000834c  tx2IntAnaSigMonCfg_007                                       
20008354  contModeEn_007                                               
20008358  deviceHsiClk_007                                             
2000835c  dynPwrSave_007                                               
20008360  lowPowerModeCfg_007                                          
20008364  progFiltCfg_007                                              
20008368  rfLdoBypassCfg_007                                           
2000836c  rxGainTempLutReadCfg_007                                     
20008370  subFrameTrigCfg_007                                          
20008374  testSourceEn_007                                             
20008378  txGainTempLutReadCfg_007                                     
20008380  dfpTestLoadCfg_008                                           
20008ae0  dynPhaseShiftCfg_008                                         
20008ce8  chirpCfg_008                                                 
20008e78  gTestStartStopCfg_008                                        
20008f48  progFiltCoef_008                                             
20009018  advFrameCfg_008                                              
200090d0  gTestMiscCfg_008                                             
20009188  profileCfg_008                                               
20009238  bpmChirpCfg_008                                              
200092d8  rxGainPhaseMonCfg_008                                        
2000931c  testSourceCfg_008                                            
20009360  txGainPhMisMatchMonCfg_008                                   
20009394  extAnaSigMonCfg_008                                          
200093b4  gpAdcCfg_008                                                 
200093d0  frameCfg_008                                                 
200093e8  interRxGainPhCfg_008                                         
20009400  synthFreqNonLiveMonCfg_008                                   
20009418  contModeCfg_008                                              
2000942c  runTimeCalib_008                                             
20009440  rxSatMonCfg_008                                              
20009454  tempMonCfg_008                                               
20009468  bpmCommonCfg_008                                             
20009478  monRxIfStageCfg_008                                          
20009488  phaseShiftCfg_008                                            
20009498  tx0BpmMonCfg_008                                             
200094a8  tx0PowMonCfg_008                                             
200094b8  tx1BpmMonCfg_008                                             
200094c8  tx1PowMonCfg_008                                             
200094d8  tx2BpmMonCfg_008                                             
200094e8  tx2PowMonCfg_008                                             
200094f8  allTxBallbreakMonCfg_008                                     
20009504  allTxBpmMonCfg_008                                           
20009510  allTxPowMonCfg_008                                           
2000951c  allTxanaSigMonCfg_008                                        
20009528  freqLimit_008                                                
20009534  monDigEnables_008                                            
20009540  monDigPeriodicCfg_008                                        
2000954c  rfInitCalib_008                                              
20009558  rxMixInpwrMonCfg_008                                         
20009564  rxNoiseMonCfg_008                                            
20009570  sigImgMonCfg_008                                             
2000957c  synthFreqMonCfg_008                                          
20009588  tx0BallBreakMonCfg_008                                       
20009594  tx1BallBreakMonCfg_008                                       
200095a0  tx2BallBreakMonCfg_008                                       
200095ac  adcOutCfgArgs_008                                            
200095b4  calMonTimeUnitConf_008                                       
200095bc  chCfg_008                                                    
200095c4  dualClkCompMonCfg_008                                        
200095cc  gpadcIntAnaSigMonCfg_008                                     
200095d4  miscCfg_008                                                  
200095dc  monAnaEnables_008                                            
200095e4  pllConVoltMonCfg_008                                         
200095ec  pmClkLoIntAnaSigMonCfg_008                                   
200095f4  rxIntAnaSigMonCfg_008                                        
200095fc  tx0IntAnaSigMonCfg_008                                       
20009604  tx1IntAnaSigMonCfg_008                                       
2000960c  tx2IntAnaSigMonCfg_008                                       
20009614  contModeEn_008                                               
20009618  deviceHsiClk_008                                             
2000961c  dynPwrSave_008                                               
20009620  lowPowerModeCfg_008                                          
20009624  progFiltCfg_008                                              
20009628  rfLdoBypassCfg_008                                           
2000962c  rxGainTempLutReadCfg_008                                     
20009630  subFrameTrigCfg_008                                          
20009634  testSourceEn_008                                             
20009638  txGainTempLutReadCfg_008                                     
20009640  dfpTestLoadCfg_009                                           
20009da0  dynPhaseShiftCfg_009                                         
20009fa8  chirpCfg_009                                                 
2000a138  gTestStartStopCfg_009                                        
2000a208  progFiltCoef_009                                             
2000a2d8  advFrameCfg_009                                              
2000a390  gTestMiscCfg_009                                             
2000a448  profileCfg_009                                               
2000a4f8  bpmChirpCfg_009                                              
2000a598  rxGainPhaseMonCfg_009                                        
2000a5dc  testSourceCfg_009                                            
2000a620  txGainPhMisMatchMonCfg_009                                   
2000a654  extAnaSigMonCfg_009                                          
2000a674  gpAdcCfg_009                                                 
2000a690  frameCfg_009                                                 
2000a6a8  interRxGainPhCfg_009                                         
2000a6c0  synthFreqNonLiveMonCfg_009                                   
2000a6d8  contModeCfg_009                                              
2000a6ec  runTimeCalib_009                                             
2000a700  rxSatMonCfg_009                                              
2000a714  tempMonCfg_009                                               
2000a728  bpmCommonCfg_009                                             
2000a738  monRxIfStageCfg_009                                          
2000a748  phaseShiftCfg_009                                            
2000a758  tx0BpmMonCfg_009                                             
2000a768  tx0PowMonCfg_009                                             
2000a778  tx1BpmMonCfg_009                                             
2000a788  tx1PowMonCfg_009                                             
2000a798  tx2BpmMonCfg_009                                             
2000a7a8  tx2PowMonCfg_009                                             
2000a7b8  allTxBallbreakMonCfg_009                                     
2000a7c4  allTxBpmMonCfg_009                                           
2000a7d0  allTxPowMonCfg_009                                           
2000a7dc  allTxanaSigMonCfg_009                                        
2000a7e8  freqLimit_009                                                
2000a7f4  monDigEnables_009                                            
2000a800  monDigPeriodicCfg_009                                        
2000a80c  rfInitCalib_009                                              
2000a818  rxMixInpwrMonCfg_009                                         
2000a824  rxNoiseMonCfg_009                                            
2000a830  sigImgMonCfg_009                                             
2000a83c  synthFreqMonCfg_009                                          
2000a848  tx0BallBreakMonCfg_009                                       
2000a854  tx1BallBreakMonCfg_009                                       
2000a860  tx2BallBreakMonCfg_009                                       
2000a86c  adcOutCfgArgs_009                                            
2000a874  calMonTimeUnitConf_009                                       
2000a87c  chCfg_009                                                    
2000a884  dualClkCompMonCfg_009                                        
2000a88c  gpadcIntAnaSigMonCfg_009                                     
2000a894  miscCfg_009                                                  
2000a89c  monAnaEnables_009                                            
2000a8a4  pllConVoltMonCfg_009                                         
2000a8ac  pmClkLoIntAnaSigMonCfg_009                                   
2000a8b4  rxIntAnaSigMonCfg_009                                        
2000a8bc  tx0IntAnaSigMonCfg_009                                       
2000a8c4  tx1IntAnaSigMonCfg_009                                       
2000a8cc  tx2IntAnaSigMonCfg_009                                       
2000a8d4  contModeEn_009                                               
2000a8d8  deviceHsiClk_009                                             
2000a8dc  dynPwrSave_009                                               
2000a8e0  lowPowerModeCfg_009                                          
2000a8e4  progFiltCfg_009                                              
2000a8e8  rfLdoBypassCfg_009                                           
2000a8ec  rxGainTempLutReadCfg_009                                     
2000a8f0  subFrameTrigCfg_009                                          
2000a8f4  testSourceEn_009                                             
2000a8f8  txGainTempLutReadCfg_009                                     
2000a900  dfpTestLoadCfg_010                                           
2000b060  dynPhaseShiftCfg_010                                         
2000b268  chirpCfg_010                                                 
2000b3f8  gTestStartStopCfg_010                                        
2000b4c8  progFiltCoef_010                                             
2000b598  advFrameCfg_010                                              
2000b650  gTestMiscCfg_010                                             
2000b708  profileCfg_010                                               
2000b7b8  bpmChirpCfg_010                                              
2000b858  rxGainPhaseMonCfg_010                                        
2000b89c  testSourceCfg_010                                            
2000b8e0  txGainPhMisMatchMonCfg_010                                   
2000b914  extAnaSigMonCfg_010                                          
2000b934  gpAdcCfg_010                                                 
2000b950  frameCfg_010                                                 
2000b968  interRxGainPhCfg_010                                         
2000b980  synthFreqNonLiveMonCfg_010                                   
2000b998  contModeCfg_010                                              
2000b9ac  runTimeCalib_010                                             
2000b9c0  rxSatMonCfg_010                                              
2000b9d4  tempMonCfg_010                                               
2000b9e8  bpmCommonCfg_010                                             
2000b9f8  monRxIfStageCfg_010                                          
2000ba08  phaseShiftCfg_010                                            
2000ba18  tx0BpmMonCfg_010                                             
2000ba28  tx0PowMonCfg_010                                             
2000ba38  tx1BpmMonCfg_010                                             
2000ba48  tx1PowMonCfg_010                                             
2000ba58  tx2BpmMonCfg_010                                             
2000ba68  tx2PowMonCfg_010                                             
2000ba78  allTxBallbreakMonCfg_010                                     
2000ba84  allTxBpmMonCfg_010                                           
2000ba90  allTxPowMonCfg_010                                           
2000ba9c  allTxanaSigMonCfg_010                                        
2000baa8  freqLimit_010                                                
2000bab4  monDigEnables_010                                            
2000bac0  monDigPeriodicCfg_010                                        
2000bacc  rfInitCalib_010                                              
2000bad8  rxMixInpwrMonCfg_010                                         
2000bae4  rxNoiseMonCfg_010                                            
2000baf0  sigImgMonCfg_010                                             
2000bafc  synthFreqMonCfg_010                                          
2000bb08  tx0BallBreakMonCfg_010                                       
2000bb14  tx1BallBreakMonCfg_010                                       
2000bb20  tx2BallBreakMonCfg_010                                       
2000bb2c  adcOutCfgArgs_010                                            
2000bb34  calMonTimeUnitConf_010                                       
2000bb3c  chCfg_010                                                    
2000bb44  dualClkCompMonCfg_010                                        
2000bb4c  gpadcIntAnaSigMonCfg_010                                     
2000bb54  miscCfg_010                                                  
2000bb5c  monAnaEnables_010                                            
2000bb64  pllConVoltMonCfg_010                                         
2000bb6c  pmClkLoIntAnaSigMonCfg_010                                   
2000bb74  rxIntAnaSigMonCfg_010                                        
2000bb7c  tx0IntAnaSigMonCfg_010                                       
2000bb84  tx1IntAnaSigMonCfg_010                                       
2000bb8c  tx2IntAnaSigMonCfg_010                                       
2000bb94  contModeEn_010                                               
2000bb98  deviceHsiClk_010                                             
2000bb9c  dynPwrSave_010                                               
2000bba0  lowPowerModeCfg_010                                          
2000bba4  progFiltCfg_010                                              
2000bba8  rfLdoBypassCfg_010                                           
2000bbac  rxGainTempLutReadCfg_010                                     
2000bbb0  subFrameTrigCfg_010                                          
2000bbb4  testSourceEn_010                                             
2000bbb8  txGainTempLutReadCfg_010                                     
ffffffff  __TI_pprof_out_hndl                                          
ffffffff  __TI_prof_data_size                                          
ffffffff  __TI_prof_data_start                                         
ffffffff  __binit__                                                    
ffffffff  __c_args__                                                   
ffffffff  binit                                                        
UNDEFED   __TI_CINIT_Base                                              
UNDEFED   __TI_CINIT_Limit                                             
UNDEFED   __TI_Handler_Table_Base                                      
UNDEFED   __TI_Handler_Table_Limit                                     
UNDEFED   __TI_INITARRAY_Base                                          
UNDEFED   __TI_INITARRAY_Limit                                         
UNDEFED   __TI_TLS_INIT_Base                                           
UNDEFED   __TI_TLS_INIT_Limit                                          

[1663 symbols]
